
Optional file libmchp_peripheral.a not found

Optional file libmchp_peripheral_32MX795F512L.a not found
Archive member included because of file (symbol)

c:/program files (x86)/microchip/xc32/v1.44/bin/bin/../../lib/gcc/pic32mx/4.8.3/../../../../pic32mx/lib\libpic32.a(memcpy.o)
                              build/default/production/_ext/1128951024/queue.o (memcpy)
c:/program files (x86)/microchip/xc32/v1.44/bin/bin/../../lib/gcc/pic32mx/4.8.3/../../../../pic32mx/lib\libpic32.a(memset.o)
                              build/default/production/_ext/1128951024/tasks.o (memset)
c:/program files (x86)/microchip/xc32/v1.44/bin/bin/../../lib/gcc/pic32mx/4.8.3/../../../../pic32mx/lib\libpic32.a(strlen.o)
                              build/default/production/_ext/1360937237/WiFiReceive.o (strlen)
c:/program files (x86)/microchip/xc32/v1.44/bin/bin/../../lib/gcc/pic32mx/4.8.3/../../../../pic32mx/lib\libpic32.a(default-bootstrap-exception-handler.o)
                              c:/program files (x86)/microchip/xc32/v1.44/bin/bin/../../lib/gcc/pic32mx/4.8.3/../../../../pic32mx/lib/./proc/32MX795F512L/crt0_mips32r2.o (_bootstrap_exception_handler)
c:/program files (x86)/microchip/xc32/v1.44/bin/bin/../../lib/gcc/pic32mx/4.8.3/../../../../pic32mx/lib\libpic32.a(default-on-reset.o)
                              c:/program files (x86)/microchip/xc32/v1.44/bin/bin/../../lib/gcc/pic32mx/4.8.3/../../../../pic32mx/lib/./proc/32MX795F512L/crt0_mips32r2.o (_on_reset)
c:/program files (x86)/microchip/xc32/v1.44/bin/bin/../../lib/gcc/pic32mx/4.8.3/../../../../pic32mx/lib\libpic32.a(default-on-bootstrap.o)
                              c:/program files (x86)/microchip/xc32/v1.44/bin/bin/../../lib/gcc/pic32mx/4.8.3/../../../../pic32mx/lib/./proc/32MX795F512L/crt0_mips32r2.o (_on_bootstrap)
c:/program files (x86)/microchip/xc32/v1.44/bin/bin/../../lib/gcc/pic32mx/4.8.3/../../../../pic32mx/lib\libpic32.a(default-nmi-handler.o)
                              c:/program files (x86)/microchip/xc32/v1.44/bin/bin/../../lib/gcc/pic32mx/4.8.3/../../../../pic32mx/lib/./proc/32MX795F512L/crt0_mips32r2.o (_nmi_handler)
c:/program files (x86)/microchip/xc32/v1.44/bin/bin/../../lib/gcc/pic32mx/4.8.3/../../../../pic32mx/lib\libpic32.a(general-exception.o)
                              c:/program files (x86)/microchip/xc32/v1.44/bin/bin/../../lib/gcc/pic32mx/4.8.3/../../../../pic32mx/lib/./proc/32MX795F512L/crt0_mips32r2.o (_general_exception_context)
c:/program files (x86)/microchip/xc32/v1.44/bin/bin/../../lib/gcc/pic32mx/4.8.3/../../../../pic32mx/lib\libpic32.a(vector0.o)
                              c:/program files (x86)/microchip/xc32/v1.44/bin/bin/../../lib/gcc/pic32mx/4.8.3/../../../../pic32mx/lib/./proc/32MX795F512L\default_isr_vectors.o (__vector_dispatch_0)
c:/program files (x86)/microchip/xc32/v1.44/bin/bin/../../lib/gcc/pic32mx/4.8.3/../../../../pic32mx/lib\libpic32.a(vector2.o)
                              c:/program files (x86)/microchip/xc32/v1.44/bin/bin/../../lib/gcc/pic32mx/4.8.3/../../../../pic32mx/lib/./proc/32MX795F512L\default_isr_vectors.o (__vector_dispatch_2)
c:/program files (x86)/microchip/xc32/v1.44/bin/bin/../../lib/gcc/pic32mx/4.8.3/../../../../pic32mx/lib\libpic32.a(vector3.o)
                              c:/program files (x86)/microchip/xc32/v1.44/bin/bin/../../lib/gcc/pic32mx/4.8.3/../../../../pic32mx/lib/./proc/32MX795F512L\default_isr_vectors.o (__vector_dispatch_3)
c:/program files (x86)/microchip/xc32/v1.44/bin/bin/../../lib/gcc/pic32mx/4.8.3/../../../../pic32mx/lib\libpic32.a(vector5.o)
                              c:/program files (x86)/microchip/xc32/v1.44/bin/bin/../../lib/gcc/pic32mx/4.8.3/../../../../pic32mx/lib/./proc/32MX795F512L\default_isr_vectors.o (__vector_dispatch_5)
c:/program files (x86)/microchip/xc32/v1.44/bin/bin/../../lib/gcc/pic32mx/4.8.3/../../../../pic32mx/lib\libpic32.a(vector6.o)
                              c:/program files (x86)/microchip/xc32/v1.44/bin/bin/../../lib/gcc/pic32mx/4.8.3/../../../../pic32mx/lib/./proc/32MX795F512L\default_isr_vectors.o (__vector_dispatch_6)
c:/program files (x86)/microchip/xc32/v1.44/bin/bin/../../lib/gcc/pic32mx/4.8.3/../../../../pic32mx/lib\libpic32.a(vector7.o)
                              c:/program files (x86)/microchip/xc32/v1.44/bin/bin/../../lib/gcc/pic32mx/4.8.3/../../../../pic32mx/lib/./proc/32MX795F512L\default_isr_vectors.o (__vector_dispatch_7)
c:/program files (x86)/microchip/xc32/v1.44/bin/bin/../../lib/gcc/pic32mx/4.8.3/../../../../pic32mx/lib\libpic32.a(vector9.o)
                              c:/program files (x86)/microchip/xc32/v1.44/bin/bin/../../lib/gcc/pic32mx/4.8.3/../../../../pic32mx/lib/./proc/32MX795F512L\default_isr_vectors.o (__vector_dispatch_9)
c:/program files (x86)/microchip/xc32/v1.44/bin/bin/../../lib/gcc/pic32mx/4.8.3/../../../../pic32mx/lib\libpic32.a(vector10.o)
                              c:/program files (x86)/microchip/xc32/v1.44/bin/bin/../../lib/gcc/pic32mx/4.8.3/../../../../pic32mx/lib/./proc/32MX795F512L\default_isr_vectors.o (__vector_dispatch_10)
c:/program files (x86)/microchip/xc32/v1.44/bin/bin/../../lib/gcc/pic32mx/4.8.3/../../../../pic32mx/lib\libpic32.a(vector11.o)
                              c:/program files (x86)/microchip/xc32/v1.44/bin/bin/../../lib/gcc/pic32mx/4.8.3/../../../../pic32mx/lib/./proc/32MX795F512L\default_isr_vectors.o (__vector_dispatch_11)
c:/program files (x86)/microchip/xc32/v1.44/bin/bin/../../lib/gcc/pic32mx/4.8.3/../../../../pic32mx/lib\libpic32.a(vector13.o)
                              c:/program files (x86)/microchip/xc32/v1.44/bin/bin/../../lib/gcc/pic32mx/4.8.3/../../../../pic32mx/lib/./proc/32MX795F512L\default_isr_vectors.o (__vector_dispatch_13)
c:/program files (x86)/microchip/xc32/v1.44/bin/bin/../../lib/gcc/pic32mx/4.8.3/../../../../pic32mx/lib\libpic32.a(vector14.o)
                              c:/program files (x86)/microchip/xc32/v1.44/bin/bin/../../lib/gcc/pic32mx/4.8.3/../../../../pic32mx/lib/./proc/32MX795F512L\default_isr_vectors.o (__vector_dispatch_14)
c:/program files (x86)/microchip/xc32/v1.44/bin/bin/../../lib/gcc/pic32mx/4.8.3/../../../../pic32mx/lib\libpic32.a(vector17.o)
                              c:/program files (x86)/microchip/xc32/v1.44/bin/bin/../../lib/gcc/pic32mx/4.8.3/../../../../pic32mx/lib/./proc/32MX795F512L\default_isr_vectors.o (__vector_dispatch_17)
c:/program files (x86)/microchip/xc32/v1.44/bin/bin/../../lib/gcc/pic32mx/4.8.3/../../../../pic32mx/lib\libpic32.a(vector18.o)
                              c:/program files (x86)/microchip/xc32/v1.44/bin/bin/../../lib/gcc/pic32mx/4.8.3/../../../../pic32mx/lib/./proc/32MX795F512L\default_isr_vectors.o (__vector_dispatch_18)
c:/program files (x86)/microchip/xc32/v1.44/bin/bin/../../lib/gcc/pic32mx/4.8.3/../../../../pic32mx/lib\libpic32.a(vector21.o)
                              c:/program files (x86)/microchip/xc32/v1.44/bin/bin/../../lib/gcc/pic32mx/4.8.3/../../../../pic32mx/lib/./proc/32MX795F512L\default_isr_vectors.o (__vector_dispatch_21)
c:/program files (x86)/microchip/xc32/v1.44/bin/bin/../../lib/gcc/pic32mx/4.8.3/../../../../pic32mx/lib\libpic32.a(vector22.o)
                              c:/program files (x86)/microchip/xc32/v1.44/bin/bin/../../lib/gcc/pic32mx/4.8.3/../../../../pic32mx/lib/./proc/32MX795F512L\default_isr_vectors.o (__vector_dispatch_22)
c:/program files (x86)/microchip/xc32/v1.44/bin/bin/../../lib/gcc/pic32mx/4.8.3/../../../../pic32mx/lib\libpic32.a(vector23.o)
                              c:/program files (x86)/microchip/xc32/v1.44/bin/bin/../../lib/gcc/pic32mx/4.8.3/../../../../pic32mx/lib/./proc/32MX795F512L\default_isr_vectors.o (__vector_dispatch_23)
c:/program files (x86)/microchip/xc32/v1.44/bin/bin/../../lib/gcc/pic32mx/4.8.3/../../../../pic32mx/lib\libpic32.a(vector25.o)
                              c:/program files (x86)/microchip/xc32/v1.44/bin/bin/../../lib/gcc/pic32mx/4.8.3/../../../../pic32mx/lib/./proc/32MX795F512L\default_isr_vectors.o (__vector_dispatch_25)
c:/program files (x86)/microchip/xc32/v1.44/bin/bin/../../lib/gcc/pic32mx/4.8.3/../../../../pic32mx/lib\libpic32.a(vector26.o)
                              c:/program files (x86)/microchip/xc32/v1.44/bin/bin/../../lib/gcc/pic32mx/4.8.3/../../../../pic32mx/lib/./proc/32MX795F512L\default_isr_vectors.o (__vector_dispatch_26)
c:/program files (x86)/microchip/xc32/v1.44/bin/bin/../../lib/gcc/pic32mx/4.8.3/../../../../pic32mx/lib\libpic32.a(vector27.o)
                              c:/program files (x86)/microchip/xc32/v1.44/bin/bin/../../lib/gcc/pic32mx/4.8.3/../../../../pic32mx/lib/./proc/32MX795F512L\default_isr_vectors.o (__vector_dispatch_27)
c:/program files (x86)/microchip/xc32/v1.44/bin/bin/../../lib/gcc/pic32mx/4.8.3/../../../../pic32mx/lib\libpic32.a(vector28.o)
                              c:/program files (x86)/microchip/xc32/v1.44/bin/bin/../../lib/gcc/pic32mx/4.8.3/../../../../pic32mx/lib/./proc/32MX795F512L\default_isr_vectors.o (__vector_dispatch_28)
c:/program files (x86)/microchip/xc32/v1.44/bin/bin/../../lib/gcc/pic32mx/4.8.3/../../../../pic32mx/lib\libpic32.a(vector29.o)
                              c:/program files (x86)/microchip/xc32/v1.44/bin/bin/../../lib/gcc/pic32mx/4.8.3/../../../../pic32mx/lib/./proc/32MX795F512L\default_isr_vectors.o (__vector_dispatch_29)
c:/program files (x86)/microchip/xc32/v1.44/bin/bin/../../lib/gcc/pic32mx/4.8.3/../../../../pic32mx/lib\libpic32.a(vector30.o)
                              c:/program files (x86)/microchip/xc32/v1.44/bin/bin/../../lib/gcc/pic32mx/4.8.3/../../../../pic32mx/lib/./proc/32MX795F512L\default_isr_vectors.o (__vector_dispatch_30)
c:/program files (x86)/microchip/xc32/v1.44/bin/bin/../../lib/gcc/pic32mx/4.8.3/../../../../pic32mx/lib\libpic32.a(vector31.o)
                              c:/program files (x86)/microchip/xc32/v1.44/bin/bin/../../lib/gcc/pic32mx/4.8.3/../../../../pic32mx/lib/./proc/32MX795F512L\default_isr_vectors.o (__vector_dispatch_31)
c:/program files (x86)/microchip/xc32/v1.44/bin/bin/../../lib/gcc/pic32mx/4.8.3/../../../../pic32mx/lib\libpic32.a(vector32.o)
                              c:/program files (x86)/microchip/xc32/v1.44/bin/bin/../../lib/gcc/pic32mx/4.8.3/../../../../pic32mx/lib/./proc/32MX795F512L\default_isr_vectors.o (__vector_dispatch_32)
c:/program files (x86)/microchip/xc32/v1.44/bin/bin/../../lib/gcc/pic32mx/4.8.3/../../../../pic32mx/lib\libpic32.a(vector33.o)
                              c:/program files (x86)/microchip/xc32/v1.44/bin/bin/../../lib/gcc/pic32mx/4.8.3/../../../../pic32mx/lib/./proc/32MX795F512L\default_isr_vectors.o (__vector_dispatch_33)
c:/program files (x86)/microchip/xc32/v1.44/bin/bin/../../lib/gcc/pic32mx/4.8.3/../../../../pic32mx/lib\libpic32.a(vector34.o)
                              c:/program files (x86)/microchip/xc32/v1.44/bin/bin/../../lib/gcc/pic32mx/4.8.3/../../../../pic32mx/lib/./proc/32MX795F512L\default_isr_vectors.o (__vector_dispatch_34)
c:/program files (x86)/microchip/xc32/v1.44/bin/bin/../../lib/gcc/pic32mx/4.8.3/../../../../pic32mx/lib\libpic32.a(vector35.o)
                              c:/program files (x86)/microchip/xc32/v1.44/bin/bin/../../lib/gcc/pic32mx/4.8.3/../../../../pic32mx/lib/./proc/32MX795F512L\default_isr_vectors.o (__vector_dispatch_35)
c:/program files (x86)/microchip/xc32/v1.44/bin/bin/../../lib/gcc/pic32mx/4.8.3/../../../../pic32mx/lib\libpic32.a(vector36.o)
                              c:/program files (x86)/microchip/xc32/v1.44/bin/bin/../../lib/gcc/pic32mx/4.8.3/../../../../pic32mx/lib/./proc/32MX795F512L\default_isr_vectors.o (__vector_dispatch_36)
c:/program files (x86)/microchip/xc32/v1.44/bin/bin/../../lib/gcc/pic32mx/4.8.3/../../../../pic32mx/lib\libpic32.a(vector37.o)
                              c:/program files (x86)/microchip/xc32/v1.44/bin/bin/../../lib/gcc/pic32mx/4.8.3/../../../../pic32mx/lib/./proc/32MX795F512L\default_isr_vectors.o (__vector_dispatch_37)
c:/program files (x86)/microchip/xc32/v1.44/bin/bin/../../lib/gcc/pic32mx/4.8.3/../../../../pic32mx/lib\libpic32.a(vector38.o)
                              c:/program files (x86)/microchip/xc32/v1.44/bin/bin/../../lib/gcc/pic32mx/4.8.3/../../../../pic32mx/lib/./proc/32MX795F512L\default_isr_vectors.o (__vector_dispatch_38)
c:/program files (x86)/microchip/xc32/v1.44/bin/bin/../../lib/gcc/pic32mx/4.8.3/../../../../pic32mx/lib\libpic32.a(vector39.o)
                              c:/program files (x86)/microchip/xc32/v1.44/bin/bin/../../lib/gcc/pic32mx/4.8.3/../../../../pic32mx/lib/./proc/32MX795F512L\default_isr_vectors.o (__vector_dispatch_39)
c:/program files (x86)/microchip/xc32/v1.44/bin/bin/../../lib/gcc/pic32mx/4.8.3/../../../../pic32mx/lib\libpic32.a(vector40.o)
                              c:/program files (x86)/microchip/xc32/v1.44/bin/bin/../../lib/gcc/pic32mx/4.8.3/../../../../pic32mx/lib/./proc/32MX795F512L\default_isr_vectors.o (__vector_dispatch_40)
c:/program files (x86)/microchip/xc32/v1.44/bin/bin/../../lib/gcc/pic32mx/4.8.3/../../../../pic32mx/lib\libpic32.a(vector41.o)
                              c:/program files (x86)/microchip/xc32/v1.44/bin/bin/../../lib/gcc/pic32mx/4.8.3/../../../../pic32mx/lib/./proc/32MX795F512L\default_isr_vectors.o (__vector_dispatch_41)
c:/program files (x86)/microchip/xc32/v1.44/bin/bin/../../lib/gcc/pic32mx/4.8.3/../../../../pic32mx/lib\libpic32.a(vector42.o)
                              c:/program files (x86)/microchip/xc32/v1.44/bin/bin/../../lib/gcc/pic32mx/4.8.3/../../../../pic32mx/lib/./proc/32MX795F512L\default_isr_vectors.o (__vector_dispatch_42)
c:/program files (x86)/microchip/xc32/v1.44/bin/bin/../../lib/gcc/pic32mx/4.8.3/../../../../pic32mx/lib\libpic32.a(vector43.o)
                              c:/program files (x86)/microchip/xc32/v1.44/bin/bin/../../lib/gcc/pic32mx/4.8.3/../../../../pic32mx/lib/./proc/32MX795F512L\default_isr_vectors.o (__vector_dispatch_43)
c:/program files (x86)/microchip/xc32/v1.44/bin/bin/../../lib/gcc/pic32mx/4.8.3/../../../../pic32mx/lib\libpic32.a(vector44.o)
                              c:/program files (x86)/microchip/xc32/v1.44/bin/bin/../../lib/gcc/pic32mx/4.8.3/../../../../pic32mx/lib/./proc/32MX795F512L\default_isr_vectors.o (__vector_dispatch_44)
c:/program files (x86)/microchip/xc32/v1.44/bin/bin/../../lib/gcc/pic32mx/4.8.3/../../../../pic32mx/lib\libpic32.a(vector45.o)
                              c:/program files (x86)/microchip/xc32/v1.44/bin/bin/../../lib/gcc/pic32mx/4.8.3/../../../../pic32mx/lib/./proc/32MX795F512L\default_isr_vectors.o (__vector_dispatch_45)
c:/program files (x86)/microchip/xc32/v1.44/bin/bin/../../lib/gcc/pic32mx/4.8.3/../../../../pic32mx/lib\libpic32.a(vector46.o)
                              c:/program files (x86)/microchip/xc32/v1.44/bin/bin/../../lib/gcc/pic32mx/4.8.3/../../../../pic32mx/lib/./proc/32MX795F512L\default_isr_vectors.o (__vector_dispatch_46)
c:/program files (x86)/microchip/xc32/v1.44/bin/bin/../../lib/gcc/pic32mx/4.8.3/../../../../pic32mx/lib\libpic32.a(vector47.o)
                              c:/program files (x86)/microchip/xc32/v1.44/bin/bin/../../lib/gcc/pic32mx/4.8.3/../../../../pic32mx/lib/./proc/32MX795F512L\default_isr_vectors.o (__vector_dispatch_47)
c:/program files (x86)/microchip/xc32/v1.44/bin/bin/../../lib/gcc/pic32mx/4.8.3/../../../../pic32mx/lib\libpic32.a(vector48.o)
                              c:/program files (x86)/microchip/xc32/v1.44/bin/bin/../../lib/gcc/pic32mx/4.8.3/../../../../pic32mx/lib/./proc/32MX795F512L\default_isr_vectors.o (__vector_dispatch_48)
c:/program files (x86)/microchip/xc32/v1.44/bin/bin/../../lib/gcc/pic32mx/4.8.3/../../../../pic32mx/lib\libpic32.a(vector49.o)
                              c:/program files (x86)/microchip/xc32/v1.44/bin/bin/../../lib/gcc/pic32mx/4.8.3/../../../../pic32mx/lib/./proc/32MX795F512L\default_isr_vectors.o (__vector_dispatch_49)
c:/program files (x86)/microchip/xc32/v1.44/bin/bin/../../lib/gcc/pic32mx/4.8.3/../../../../pic32mx/lib\libpic32.a(vector50.o)
                              c:/program files (x86)/microchip/xc32/v1.44/bin/bin/../../lib/gcc/pic32mx/4.8.3/../../../../pic32mx/lib/./proc/32MX795F512L\default_isr_vectors.o (__vector_dispatch_50)
c:/program files (x86)/microchip/xc32/v1.44/bin/bin/../../lib/gcc/pic32mx/4.8.3/../../../../pic32mx/lib\libpic32.a(vector51.o)
                              c:/program files (x86)/microchip/xc32/v1.44/bin/bin/../../lib/gcc/pic32mx/4.8.3/../../../../pic32mx/lib/./proc/32MX795F512L\default_isr_vectors.o (__vector_dispatch_51)
c:/program files (x86)/microchip/xc32/v1.44/bin/bin/../../lib/gcc/pic32mx/4.8.3/../../../../pic32mx/lib\libpic32.a(defaultinterrupt.o)
                              c:/program files (x86)/microchip/xc32/v1.44/bin/bin/../../lib/gcc/pic32mx/4.8.3/../../../../pic32mx/lib\libpic32.a(vector0.o) (_DefaultInterrupt)
c:/program files (x86)/microchip/xc32/v1.44/bin/bin/../../lib/gcc/pic32mx/4.8.3/../../../../pic32mx/lib\libc.a(atoi.o)
                              build/default/production/_ext/1360937237/WiFiReceive.o (atoi)
c:/program files (x86)/microchip/xc32/v1.44/bin/bin/../../lib/gcc/pic32mx/4.8.3/../../../../pic32mx/lib\libc.a(ctype.o)
                              c:/program files (x86)/microchip/xc32/v1.44/bin/bin/../../lib/gcc/pic32mx/4.8.3/../../../../pic32mx/lib\libc.a(atoi.o) (_ctype)
c:/program files (x86)/microchip/xc32/v1.44/bin/bin/../../lib/gcc/pic32mx/4.8.3/../../../../pic32mx/lib\libc.a(strncmp.o)
                              build/default/production/_ext/1360937237/WiFiReceive.o (strncmp)
c:/program files (x86)/microchip/xc32/v1.44/bin/bin/../../lib/gcc/pic32mx/4.8.3/../../../../pic32mx/lib\libc.a(sprintf_cdnopuxX.eo)
                              build/default/production/_ext/1360937237/WiFiTransmit.o (_sprintf_cdnopuxX)
c:/program files (x86)/microchip/xc32/v1.44/bin/bin/../../lib/gcc/pic32mx/4.8.3/../../../../pic32mx/lib\libc.a(doprnt_cdnopuxX.eo)
                              c:/program files (x86)/microchip/xc32/v1.44/bin/bin/../../lib/gcc/pic32mx/4.8.3/../../../../pic32mx/lib\libc.a(sprintf_cdnopuxX.eo) (_vfprintf_cdnopuxX)
c:/program files (x86)/microchip/xc32/v1.44/bin/bin/../../lib/gcc/pic32mx/4.8.3/../../../../pic32mx/lib\libc.a(_fputc_simple.o)
                              c:/program files (x86)/microchip/xc32/v1.44/bin/bin/../../lib/gcc/pic32mx/4.8.3/../../../../pic32mx/lib\libc.a(doprnt_cdnopuxX.eo) (fputc)
c:/program files (x86)/microchip/xc32/v1.44/bin/bin/../../lib/gcc/pic32mx/4.8.3/../../../../pic32mx/lib\libc.a(_iob.o)
                              c:/program files (x86)/microchip/xc32/v1.44/bin/bin/../../lib/gcc/pic32mx/4.8.3/../../../../pic32mx/lib\libc.a(_fputc_simple.o) (_outdone)
c:/program files (x86)/microchip/xc32/v1.44/bin/bin/../../lib/gcc/pic32mx/4.8.3/../../../../pic32mx/lib\libc.a(_flsbuf_simple.o)
                              c:/program files (x86)/microchip/xc32/v1.44/bin/bin/../../lib/gcc/pic32mx/4.8.3/../../../../pic32mx/lib\libc.a(_fputc_simple.o) (_flsbuf)
c:/program files (x86)/microchip/xc32/v1.44/bin/bin/../../lib/gcc/pic32mx/4.8.3/../../../../pic32mx/lib\libm.a(fp32div.o)
                              build/default/production/_ext/1360937237/motor_encoder_thread.o (fpdiv)
c:/program files (x86)/microchip/xc32/v1.44/bin/bin/../../lib/gcc/pic32mx/4.8.3/../../../../pic32mx/lib\libm.a(fp32mul.o)
                              build/default/production/_ext/1360937237/motor_encoder_thread.o (fpmul)
c:/program files (x86)/microchip/xc32/v1.44/bin/bin/../../lib/gcc/pic32mx/4.8.3/../../../../pic32mx/lib\libm.a(fp32subadd.o)
                              build/default/production/_ext/1360937237/motor_encoder_thread.o (fpadd)
c:/program files (x86)/microchip/xc32/v1.44/bin/bin/../../lib/gcc/pic32mx/4.8.3/../../../../pic32mx/lib\libm.a(fpcmp.o)
                              build/default/production/_ext/1360937237/motor_encoder_thread.o (fpcmp)
c:/program files (x86)/microchip/xc32/v1.44/bin/bin/../../lib/gcc/pic32mx/4.8.3/../../../../pic32mx/lib\libm.a(fptoli.o)
                              build/default/production/_ext/1360937237/motor_encoder_thread.o (fptosi)
c:/program files (x86)/microchip/xc32/v1.44/bin/bin/../../lib/gcc/pic32mx/4.8.3/../../../../pic32mx/lib\libm.a(sitofp.o)
                              build/default/production/_ext/1360937237/motor_encoder_thread.o (sitofp)
c:/program files (x86)/microchip/xc32/v1.44/bin/bin/../../lib/gcc/pic32mx/4.8.3\libgcc.a(_udivdi3.o)
                              c:/program files (x86)/microchip/xc32/v1.44/bin/bin/../../lib/gcc/pic32mx/4.8.3/../../../../pic32mx/lib\libc.a(doprnt_cdnopuxX.eo) (__udivdi3)
c:/program files (x86)/microchip/xc32/v1.44/bin/bin/../../lib/gcc/pic32mx/4.8.3\libgcc.a(_umoddi3.o)
                              c:/program files (x86)/microchip/xc32/v1.44/bin/bin/../../lib/gcc/pic32mx/4.8.3/../../../../pic32mx/lib\libc.a(doprnt_cdnopuxX.eo) (__umoddi3)
c:/program files (x86)/microchip/xc32/v1.44/bin/bin/../../lib/gcc/pic32mx/4.8.3/../../../../pic32mx/lib\libpic32.a(write.o)
                              c:/program files (x86)/microchip/xc32/v1.44/bin/bin/../../lib/gcc/pic32mx/4.8.3/../../../../pic32mx/lib\libc.a(_fputc_simple.o) (write)
c:/program files (x86)/microchip/xc32/v1.44/bin/bin/../../lib/gcc/pic32mx/4.8.3/../../../../pic32mx/lib\libpic32.a(_mon_putc.o)
                              c:/program files (x86)/microchip/xc32/v1.44/bin/bin/../../lib/gcc/pic32mx/4.8.3/../../../../pic32mx/lib\libpic32.a(write.o) (_mon_putc)
c:/program files (x86)/microchip/xc32/v1.44/bin/bin/../../lib/gcc/pic32mx/4.8.3/../../../../pic32mx/lib\libpic32.a(xc32_uart.o)
                              c:/program files (x86)/microchip/xc32/v1.44/bin/bin/../../lib/gcc/pic32mx/4.8.3/../../../../pic32mx/lib\libpic32.a(_mon_putc.o) (__XC_UART)

Allocating common symbols
Common symbol       size              file

myUART              0x4               build/default/production/_ext/1360937237/WiFiReceive.o
usartreceivequeue   0x4               build/default/production/_ext/1360937237/WiFiReceive.o
gDrvUSART0Obj       0x8               build/default/production/_ext/327000265/drv_usart_static.o
sysObj              0x14              build/default/production/_ext/1688732426/system_init.o
wifitransmitqueue   0x4               build/default/production/_ext/1360937237/WiFiTransmit.o
Encoder_Q           0x4               build/default/production/_ext/1047219354/drv_oc_mapping.o
receive_q           0x4               build/default/production/_ext/1360937237/Control.o
usarttransmitqueue  0x4               build/default/production/_ext/1360937237/WiFiTransmit.o
controltimer        0x4               build/default/production/_ext/1360937237/Control.o
wifireceiveData     0x4               build/default/production/_ext/1360937237/WiFiReceive.o
sysDevconObj        0x8               build/default/production/_ext/340578644/sys_devcon.o

Microchip PIC32 Memory-Usage Report

kseg0 Program-Memory Usage
section                    address  length [bytes]      (dec)  Description
-------                 ----------  -------------------------  -----------
.text._vfprintf_cdnopux 0x9d000000          0xc8c        3212   
.text.jsmn_parse        0x9d000c8c          0x844        2116   
.text                   0x9d0014d0          0x8bc        2236  App's exec code 
.text                   0x9d001d8c          0x454        1108  App's exec code 
.text.xTaskCreate       0x9d0021e0          0x2c8         712   
.text.fpsubadd          0x9d0024a8          0x278         632   
.text.prvTimerTask      0x9d002720          0x274         628   
.text.xQueueGenericRece 0x9d002994          0x264         612   
.text.fp32div           0x9d002bf8          0x230         560   
.text.xQueueGenericSend 0x9d002e28          0x20c         524   
.dinit                  0x9d003034          0x200         512   
.text.ParseJson         0x9d003234          0x1e4         484   
.text.fp32mul           0x9d003418          0x1bc         444   
.ExternalInterruptInsta 0x9d0035d4          0x1b4         436   
.ExternalInterruptInsta 0x9d003788          0x1b4         436   
.DrvTmrInstance0_vector 0x9d00393c          0x1b4         436   
.DrvTmrInstance1_vector 0x9d003af0          0x1b4         436   
.DrvTmrInstance2_vector 0x9d003ca4          0x1b4         436   
.DrvTmrInstance3_vector 0x9d003e58          0x1b4         436   
.DrvUsartInstance0_vect 0x9d00400c          0x1b4         436   
.text.xTaskGenericNotif 0x9d0041c0          0x1a8         424   
.text.WIFIRECEIVE_Tasks 0x9d004368          0x1a4         420   
.text.SYS_Initialize    0x9d00450c          0x19c         412   
.text.xTaskIncrementTic 0x9d0046a8          0x198         408   
.text.DRV_USART0_Initia 0x9d004840          0x190         400   
.text.CONTROL_Tasks     0x9d0049d0          0x174         372   
.text.xTaskGenericNotif 0x9d004b44          0x170         368   
.text.Left_PID_module   0x9d004cb4          0x16c         364   
.text.Right_PID_module  0x9d004e20          0x16c         364   
.text                   0x9d004f8c          0x2d0         720  App's exec code 
.text.vTaskPrioritySet  0x9d00525c          0x15c         348   
.text._state_machine_wa 0x9d0053b8          0x154         340   
.text.cipango_state     0x9d00550c          0x154         340   
.text.WIFITRANSMIT_Task 0x9d005660          0x148         328   
.text.xTaskResumeAll    0x9d0057a8          0x148         328   
.text.xEventGroupWaitBi 0x9d0058f0          0x148         328   
.text.fputc             0x9d005a38          0x144         324   
.text.vTaskSuspend      0x9d005b7c          0x130         304   
.text.vTaskPriorityInhe 0x9d005cac          0x12c         300   
.text._flsbuf           0x9d005dd8          0x12c         300   
.rodata                 0x9d005f04          0x128         296  Read-only const 
.text.vTaskDelete       0x9d00602c          0x128         296   
.text._state_machine_ar 0x9d006154          0x120         288   
.text._state_machine_tr 0x9d006274          0x11c         284   
.text._state_machine_ar 0x9d006390          0x11c         284   
.text._state_machine_tr 0x9d0064ac          0x118         280   
.text.xEventGroupSync   0x9d0065c4          0x110         272   
.text._state_machine_wa 0x9d0066d4          0x108         264   
.text.xTaskNotifyWait   0x9d0067dc          0x108         264   
.text._state_machine_wa 0x9d0068e4          0x104         260   
.text.vTaskNotifyGiveFr 0x9d0069e8          0x104         260   
.text.prvSampleTimeNow  0x9d006aec          0x104         260   
.rodata                 0x9d006bf0          0x104         260  Read-only const 
.text.prvUnlockQueue    0x9d006cf4           0xfc         252   
.text.xEventGroupSetBit 0x9d006df0           0xfc         252   
.text.xTaskPriorityDisi 0x9d006eec           0xf8         248   
.text.prvCopyDataToQueu 0x9d006fe4           0xf4         244   
.text.DRV_USART0_BaudSe 0x9d0070d8           0xf0         240   
.text.xQueueGenericSend 0x9d0071c8           0xf0         240   
.text.prvAddCurrentTask 0x9d0072b8           0xe4         228   
.text.SYS_DEVCON_Perfor 0x9d00739c           0xe0         224   
.text.xQueueReceiveFrom 0x9d00747c           0xe0         224   
.text.vTaskSwitchContex 0x9d00755c           0xe0         224   
.text.SYS_Tasks         0x9d00763c           0xdc         220   
.text.general_exception 0x9d007718           0xdc         220   
.text.xTaskResumeFromIS 0x9d0077f4           0xd8         216   
.text._mon_putc         0x9d0078cc           0xd4         212   
.rodata                 0x9d0079a0           0xd0         208  Read-only const 
.text.DRV_ADC_Initializ 0x9d007a70           0xc4         196   
.text.ulTaskNotifyTake  0x9d007b34           0xc4         196   
.text.xQueueGenericRese 0x9d007bf8           0xc0         192   
.text.xQueueGiveFromISR 0x9d007cb8           0xc0         192   
.text.vTaskResume       0x9d007d78           0xc0         192   
.text.xTaskRemoveFromEv 0x9d007e38           0xbc         188   
.text.pvPortMalloc      0x9d007ef4           0xb8         184   
.text.DRV_TMR0_ClockSet 0x9d007fac           0xb4         180   
.text.DRV_TMR1_ClockSet 0x9d008060           0xb4         180   
.text.DRV_TMR2_ClockSet 0x9d008114           0xb4         180   
.text.DRV_TMR3_ClockSet 0x9d0081c8           0xb4         180   
.text.prvIdleTask       0x9d00827c           0xb4         180   
.text._DRV_TMR_ClockSou 0x9d008330           0xa8         168   
.text.SYS_PORTS_Initial 0x9d0083d8           0xa8         168   
.text.vTaskDelayUntil   0x9d008480           0xa8         168   
.text                   0x9d008528           0xa8         168  App's exec code 
.text.atoi              0x9d0085d0           0xa8         168   
.text.DRV_TMR0_Prescale 0x9d008678           0xa4         164   
.text.DRV_TMR1_Prescale 0x9d00871c           0xa4         164   
.text.DRV_TMR2_Prescale 0x9d0087c0           0xa4         164   
.text.DRV_TMR3_Prescale 0x9d008864           0xa4         164   
.text.xTaskCheckForTime 0x9d008908           0xa0         160   
.text.JsonToString      0x9d0089a8           0x9c         156   
.text.xTaskRemoveFromUn 0x9d008a44           0x9c         156   
.text.fpcmp             0x9d008ae0           0x9c         156   
.text.write             0x9d008b7c           0x9c         156   
.text.DRV_OC_Initialize 0x9d008c18           0x94         148   
.text.DRV_OC_Start      0x9d008cac           0x94         148   
.text.MOTOR_ENCODER_THR 0x9d008d40           0x94         148   
.text.xQueueGenericCrea 0x9d008dd4           0x94         148   
.text.xTimerGenericComm 0x9d008e68           0x94         148   
.text.CONTROL_Initializ 0x9d008efc           0x90         144   
.text._state_machine_st 0x9d008f8c           0x8c         140   
.text.OSAL_SEM_Create   0x9d009018           0x8c         140   
.text.vQueueWaitForMess 0x9d0090a4           0x8c         140   
.text.vTaskStartSchedul 0x9d009130           0x8c         140   
.text.DRV_TMR_ClockSet  0x9d0091bc           0x88         136   
.text.xTimerCreate      0x9d009244           0x88         136   
.text.DRV_OC_FaultHasOc 0x9d0092cc           0x84         132   
.text.DRV_TMR_ClientSta 0x9d009350           0x84         132   
.text.DRV_TMR_CounterVa 0x9d0093d4           0x84         132   
.text.DRV_TMR_Start     0x9d009458           0x84         132   
.text.DRV_TMR_Prescaler 0x9d0094dc           0x84         132   
.text.DRV_TMR_CounterFr 0x9d009560           0x84         132   
.text.DRV_TMR_DividerRa 0x9d0095e4           0x84         132   
.text.jsoneq            0x9d009668           0x84         132   
.text.DRV_TMR_Initializ 0x9d0096ec           0x80         128   
.text._DRV_USART0_Error 0x9d00976c           0x80         128   
.text.fptoli            0x9d0097ec           0x80         128   
.text.DRV_TMR0_Initiali 0x9d00986c           0x7c         124   
.text.DRV_TMR2_Initiali 0x9d0098e8           0x78         120   
.text.DRV_OC_Stop       0x9d009960           0x74         116   
.text.DRV_OC_PulseWidth 0x9d0099d4           0x74         116   
.text.DRV_TMR3_Initiali 0x9d009a48           0x74         116   
.text.DRV_TMR_Deinitial 0x9d009abc           0x74         116   
.text.DRV_TMR_Close     0x9d009b30           0x74         116   
.text.DRV_TMR_CounterVa 0x9d009ba4           0x74         116   
.text.DRV_TMR_CounterCl 0x9d009c18           0x74         116   
.text.DRV_TMR_Stop      0x9d009c8c           0x74         116   
.text.DRV_USART0_LineCo 0x9d009d00           0x74         116   
.text.xQueuePeekFromISR 0x9d009d74           0x74         116   
.text.prvInsertTimerInA 0x9d009de8           0x74         116   
.text.prvCheckForValidL 0x9d009e5c           0x74         116   
.text.DRV_TMR1_Initiali 0x9d009ed0           0x70         112   
.text.SendToTransmitQue 0x9d009f40           0x70         112   
.text.strncmp           0x9d009fb0           0x70         112   
.text.ISR_UART_RECEIVE  0x9d00a020           0x6c         108   
.text.Dispatch          0x9d00a08c           0x6c         108   
.text.ISR_UART_TRANSMIT 0x9d00a0f8           0x6c         108   
.text.vApplicationSetup 0x9d00a164           0x6c         108   
.text.IntHandlerDrvUsar 0x9d00a1d0           0x68         104   
.text.MOTOR_ENCODER_THR 0x9d00a238           0x68         104   
.text._sprintf_cdnopuxX 0x9d00a2a0           0x68         104   
.text.DRV_USART0_WriteB 0x9d00a308           0x60          96   
.text.SYS_PORTS_PinWrit 0x9d00a368           0x60          96   
.text.SYS_PORTS_PinDire 0x9d00a3c8           0x60          96   
.rodata                 0x9d00a428           0x60          96  Read-only const 
.text.vTaskExitCritical 0x9d00a488           0x60          96   
.text.xTaskNotifyStateC 0x9d00a4e8           0x60          96   
.text.sitofp            0x9d00a548           0x60          96   
.text.xPortStartSchedul 0x9d00a5a8           0x5c          92   
.text.vListInsert       0x9d00a604           0x5c          92   
.text.xTimerCreateTimer 0x9d00a660           0x5c          92   
.text.SYS_DEVCON_System 0x9d00a6bc           0x58          88   
.text.WIFIRECEIVE_Initi 0x9d00a714           0x58          88   
.text.SendToControlQueu 0x9d00a76c           0x58          88   
.text.xQueueCreateMutex 0x9d00a7c4           0x58          88   
.text.vTaskDelay        0x9d00a81c           0x58          88   
.text.vEventGroupDelete 0x9d00a874           0x58          88   
.text.main_entry        0x9d00a8cc           0x54          84   
.text.SYS_PORTS_Directi 0x9d00a920           0x54          84   
.text.CheckString       0x9d00a974           0x54          84   
.rodata                 0x9d00a9c8           0x54          84  Read-only const 
.text.SYS_INT_SourceDis 0x9d00aa1c           0x54          84   
.text.pxPortInitialiseS 0x9d00aa70           0x54          84   
.text.vPortIncrementTic 0x9d00aac4           0x54          84   
.text.DRV_USART0_ReadBy 0x9d00ab18           0x50          80   
.text.SYS_PORTS_ChangeN 0x9d00ab68           0x50          80   
.text.IntHandlerExterna 0x9d00abb8           0x50          80   
.text.IntHandlerExterna 0x9d00ac08           0x50          80   
.text.SendToQueue       0x9d00ac58           0x50          80   
.text._state_machine_se 0x9d00aca8           0x50          80   
.text.requeststatus     0x9d00acf8           0x50          80   
.text.prvCopyDataFromQu 0x9d00ad48           0x50          80   
.text.xEventGroupClearB 0x9d00ad98           0x50          80   
.text.DRV_TMR0_CounterF 0x9d00ade8           0x4c          76   
.text.DRV_TMR3_CounterF 0x9d00ae34           0x4c          76   
.text.DRV_USART0_Deinit 0x9d00ae80           0x4c          76   
.text.OSAL_SEM_PostISR  0x9d00aecc           0x4c          76   
.text.DRV_USART0_Transf 0x9d00af18           0x48          72   
.text.SYS_CLK_Secondary 0x9d00af60           0x48          72   
.text.SYS_CLK_Secondary 0x9d00afa8           0x48          72   
.text.SYS_DEVCON_System 0x9d00aff0           0x48          72   
.text.Motor_Left_Set    0x9d00b038           0x48          72   
.text.Motor_Right_Set   0x9d00b080           0x48          72   
.text.OSAL_CRIT_Enter   0x9d00b0c8           0x48          72   
.text.vTaskPlaceOnUnord 0x9d00b110           0x48          72   
.text.vTaskPlaceOnEvent 0x9d00b158           0x48          72   
.text.vTaskEnterCritica 0x9d00b1a0           0x48          72   
.text._bootstrap_except 0x9d00b1e8           0x48          72   
.vector_default         0x9d00b230           0x48          72   
.text.DRV_USART0_TasksT 0x9d00b278           0x44          68   
.text.SYS_CLK_Initializ 0x9d00b2bc           0x44          68   
.text.SYS_DEVCON_PowerM 0x9d00b300           0x44          68   
.text.IntHandlerDrvTmrI 0x9d00b344           0x44          68   
.text.OSAL_CRIT_Leave   0x9d00b388           0x44          68   
.text.uxListRemove      0x9d00b3cc           0x44          68   
.text                   0x9d00b410           0x44          68  App's exec code 
.text.DRV_OC2_Initializ 0x9d00b454           0x40          64   
.text.DRV_OC3_Initializ 0x9d00b494           0x40          64   
.text._general_exceptio 0x9d00b4d4           0x40          64   
.text.OSAL_SEM_Pend     0x9d00b514           0x40          64   
.text.OSAL_MUTEX_Lock   0x9d00b554           0x40          64   
.text.DRV_ADC_NegativeI 0x9d00b594           0x3c          60   
.text.DRV_ADC_PositiveI 0x9d00b5d0           0x3c          60   
.text.DRV_OC0_Initializ 0x9d00b60c           0x3c          60   
.text.DRV_OC1_Initializ 0x9d00b648           0x3c          60   
.text.DRV_TMR0_Stop     0x9d00b684           0x3c          60   
.text.DRV_TMR1_Stop     0x9d00b6c0           0x3c          60   
.text.DRV_TMR2_Stop     0x9d00b6fc           0x3c          60   
.text.DRV_TMR3_Stop     0x9d00b738           0x3c          60   
.text.hash              0x9d00b774           0x3c          60   
.text.WIFITRANSMIT_Init 0x9d00b7b0           0x3c          60   
.text.SendOverWiFi      0x9d00b7ec           0x3c          60   
.text.OSAL_MUTEX_Create 0x9d00b828           0x3c          60   
.text.OSAL_MUTEX_Delete 0x9d00b864           0x3c          60   
.text.uxPortSetInterrup 0x9d00b8a0           0x3c          60   
.text.uxTaskPriorityGet 0x9d00b8dc           0x3c          60   
.text.xEventGroupCreate 0x9d00b918           0x3c          60   
.text.DRV_TMR0_Start    0x9d00b954           0x38          56   
.text.DRV_TMR1_Start    0x9d00b98c           0x38          56   
.text.DRV_TMR2_Start    0x9d00b9c4           0x38          56   
.text.DRV_TMR3_Start    0x9d00b9fc           0x38          56   
.text.GetMessageStat    0x9d00ba34           0x38          56   
.text.Forward           0x9d00ba6c           0x38          56   
.text.Backward          0x9d00baa4           0x38          56   
.text.uxQueueSpacesAvai 0x9d00badc           0x38          56   
.text.prvTaskIsTaskSusp 0x9d00bb14           0x38          56   
.text.prvResetNextTaskU 0x9d00bb4c           0x38          56   
.text.vTaskPlaceOnEvent 0x9d00bb84           0x38          56   
.text.uxTaskPriorityGet 0x9d00bbbc           0x38          56   
.text.vTimerSetTimerID  0x9d00bbf4           0x38          56   
.text.DRV_USART_ClientS 0x9d00bc2c           0x34          52   
.text.DRV_USART_Transfe 0x9d00bc60           0x34          52   
.text.DRV_USART_ErrorGe 0x9d00bc94           0x34          52   
.text.DRV_USART_ReadByt 0x9d00bcc8           0x34          52   
.text.DRV_USART_Receive 0x9d00bcfc           0x34          52   
.text.DRV_USART_Transmi 0x9d00bd30           0x34          52   
.text.DRV_USART_Receive 0x9d00bd64           0x34          52   
.text.DRV_USART_Transmi 0x9d00bd98           0x34          52   
.text.DRV_USART_BaudSet 0x9d00bdcc           0x34          52   
.text.DRV_USART_LineCon 0x9d00be00           0x34          52   
.text.Read_Encoders     0x9d00be34           0x34          52   
.text.xQueueCreateCount 0x9d00be68           0x34          52   
.text.uxQueueMessagesWa 0x9d00be9c           0x34          52   
.text.vTaskEndScheduler 0x9d00bed0           0x34          52   
.text.xTimerIsTimerActi 0x9d00bf04           0x34          52   
.text.xEventGroupGetBit 0x9d00bf38           0x34          52   
.text.DRV_TMR_Open      0x9d00bf6c           0x30          48   
.text.DRV_USART_Initial 0x9d00bf9c           0x30          48   
.text.DRV_USART_Status  0x9d00bfcc           0x30          48   
.text.DRV_USART_Open    0x9d00bffc           0x30          48   
.text.SYS_PORTS_PinTogg 0x9d00c02c           0x30          48   
.text.SYS_PORTS_PinSet  0x9d00c05c           0x30          48   
.text.SYS_PORTS_PinClea 0x9d00c08c           0x30          48   
.text.SYS_PORTS_PinOpen 0x9d00c0bc           0x30          48   
.text.SYS_PORTS_PinOpen 0x9d00c0ec           0x30          48   
.text.GetConnectionStat 0x9d00c11c           0x30          48   
.text.OSAL_SEM_Delete   0x9d00c14c           0x30          48   
.text.OSAL_SEM_Post     0x9d00c17c           0x30          48   
.text.OSAL_MUTEX_Unlock 0x9d00c1ac           0x30          48   
.text.vListInsertEnd    0x9d00c1dc           0x30          48   
.text.pvTimerGetTimerID 0x9d00c20c           0x30          48   
.text.DRV_TMR0_DividerR 0x9d00c23c           0x2c          44   
.text.DRV_TMR1_DividerR 0x9d00c268           0x2c          44   
.text.DRV_TMR2_DividerR 0x9d00c294           0x2c          44   
.text.DRV_TMR3_DividerR 0x9d00c2c0           0x2c          44   
.text.DRV_USART_Close   0x9d00c2ec           0x2c          44   
.text.DRV_USART_WriteBy 0x9d00c318           0x2c          44   
.text.SYS_PORTS_Set     0x9d00c344           0x2c          44   
.text.SYS_PORTS_PinMode 0x9d00c370           0x2c          44   
.text.SYS_PORTS_PinRead 0x9d00c39c           0x2c          44   
.text.Pause             0x9d00c3c8           0x2c          44   
.text.OSAL_SEM_GetCount 0x9d00c3f4           0x2c          44   
.text.DRV_USART_Deiniti 0x9d00c420           0x28          40   
.text.DRV_USART_TasksTr 0x9d00c448           0x28          40   
.text.DRV_USART_TasksRe 0x9d00c470           0x28          40   
.text.DRV_USART_TasksEr 0x9d00c498           0x28          40   
.text.DRV_USART0_TasksR 0x9d00c4c0           0x28          40   
.text.DRV_USART0_TasksE 0x9d00c4e8           0x28          40   
.text.SYS_PORTS_Read    0x9d00c510           0x28          40   
.text.SYS_PORTS_Write   0x9d00c538           0x28          40   
.text.SYS_PORTS_Clear   0x9d00c560           0x28          40   
.text.SYS_PORTS_Directi 0x9d00c588           0x28          40   
.text.SYS_PORTS_Toggle  0x9d00c5b0           0x28          40   
.text.SYS_PORTS_OpenDra 0x9d00c5d8           0x28          40   
.text.SYS_PORTS_OpenDra 0x9d00c600           0x28          40   
.text.SYS_INT_ExternalI 0x9d00c628           0x28          40   
.text.pvTaskIncrementMu 0x9d00c650           0x28          40   
.text.vApplicationStack 0x9d00c678           0x24          36   
.text.vApplicationMallo 0x9d00c69c           0x24          36   
.text.Left_Motor_PID    0x9d00c6c0           0x24          36   
.text.Right_Motor_PID   0x9d00c6e4           0x24          36   
.text.prvTaskExitError  0x9d00c708           0x24          36   
.text.uxTaskResetEventI 0x9d00c72c           0x24          36   
.text.DRV_ADC_Open      0x9d00c750           0x20          32   
.text.DRV_ADC_SamplesRe 0x9d00c770           0x20          32   
.text.main              0x9d00c790           0x20          32   
.text.SYS_INT_Disable   0x9d00c7b0           0x20          32   
.text.vListInitialise   0x9d00c7d0           0x20          32   
.text.xTaskGetScheduler 0x9d00c7f0           0x20          32   
.text.DRV_ADC_DeInitial 0x9d00c810           0x1c          28   
.text.DRV_ADC_Close     0x9d00c82c           0x1c          28   
.text.DRV_ADC_ChannelSc 0x9d00c848           0x1c          28   
.text.SYS_DEVCON_TraceE 0x9d00c864           0x1c          28   
.text.SYS_INT_StatusGet 0x9d00c880           0x1c          28   
.text.SYS_INT_StatusRes 0x9d00c89c           0x1c          28   
.text.vPortClearInterru 0x9d00c8b8           0x1c          28   
.text.vQueueDelete      0x9d00c8d4           0x1c          28   
.text.vEventGroupSetBit 0x9d00c8f0           0x1c          28   
.text.vEventGroupClearB 0x9d00c90c           0x1c          28   
.text.DRV_ADC_Start     0x9d00c928           0x18          24   
.text.DRV_ADC_Stop      0x9d00c940           0x18          24   
.text.DRV_USART0_Receiv 0x9d00c958           0x18          24   
.text.SYS_DEVCON_JTAGEn 0x9d00c970           0x18          24   
.text.SYS_DEVCON_JTAGDi 0x9d00c988           0x18          24   
.text.SYS_DEVCON_TraceD 0x9d00c9a0           0x18          24   
.text.SYS_PORTS_ChangeN 0x9d00c9b8           0x18          24   
.text.SYS_PORTS_ChangeN 0x9d00c9d0           0x18          24   
.text.SYS_PORTS_ChangeN 0x9d00c9e8           0x18          24   
.text.IntHandlerDrvTmrI 0x9d00ca00           0x18          24   
.text.IntHandlerDrvTmrI 0x9d00ca18           0x18          24   
.text.IntHandlerDrvTmrI 0x9d00ca30           0x18          24   
.text._CONTROL_Tasks    0x9d00ca48           0x18          24   
.text._MOTOR_ENCODER_TH 0x9d00ca60           0x18          24   
.text._WIFITRANSMIT_Tas 0x9d00ca78           0x18          24   
.text._WIFIRECEIVE_Task 0x9d00ca90           0x18          24   
.rodata                 0x9d00caa8           0x18          24  Read-only const 
.text                   0x9d00cac0           0x18          24  App's exec code 
.text.DRV_ADC_ChannelSc 0x9d00cad8           0x14          20   
.text.DRV_ADC_SamplesAv 0x9d00caec           0x14          20   
.text.DRV_OC0_Enable    0x9d00cb00           0x14          20   
.text.DRV_OC0_Disable   0x9d00cb14           0x14          20   
.text.DRV_OC0_Start     0x9d00cb28           0x14          20   
.text.DRV_OC0_Stop      0x9d00cb3c           0x14          20   
.text.DRV_OC0_PulseWidt 0x9d00cb50           0x14          20   
.text.DRV_OC1_Enable    0x9d00cb64           0x14          20   
.text.DRV_OC1_Disable   0x9d00cb78           0x14          20   
.text.DRV_OC1_Start     0x9d00cb8c           0x14          20   
.text.DRV_OC1_Stop      0x9d00cba0           0x14          20   
.text.DRV_OC1_PulseWidt 0x9d00cbb4           0x14          20   
.text.DRV_OC2_Enable    0x9d00cbc8           0x14          20   
.text.DRV_OC2_Disable   0x9d00cbdc           0x14          20   
.text.DRV_OC2_Start     0x9d00cbf0           0x14          20   
.text.DRV_OC2_Stop      0x9d00cc04           0x14          20   
.text.DRV_OC2_PulseWidt 0x9d00cc18           0x14          20   
.text.DRV_OC3_Enable    0x9d00cc2c           0x14          20   
.text.DRV_OC3_Disable   0x9d00cc40           0x14          20   
.text.DRV_OC3_Start     0x9d00cc54           0x14          20   
.text.DRV_OC3_Stop      0x9d00cc68           0x14          20   
.text.DRV_OC3_PulseWidt 0x9d00cc7c           0x14          20   
.text.DRV_TMR0_ClientSt 0x9d00cc90           0x14          20   
.text.DRV_TMR0_CounterV 0x9d00cca4           0x14          20   
.text.DRV_TMR0_CounterV 0x9d00ccb8           0x14          20   
.text.DRV_TMR0_PeriodVa 0x9d00cccc           0x14          20   
.text.DRV_TMR0_PeriodVa 0x9d00cce0           0x14          20   
.text.DRV_TMR0_StopInId 0x9d00ccf4           0x14          20   
.text.DRV_TMR0_StopInId 0x9d00cd08           0x14          20   
.text.DRV_TMR1_ClientSt 0x9d00cd1c           0x14          20   
.text.DRV_TMR1_CounterV 0x9d00cd30           0x14          20   
.text.DRV_TMR1_CounterV 0x9d00cd44           0x14          20   
.text.DRV_TMR1_PeriodVa 0x9d00cd58           0x14          20   
.text.DRV_TMR1_PeriodVa 0x9d00cd6c           0x14          20   
.text.DRV_TMR1_StopInId 0x9d00cd80           0x14          20   
.text.DRV_TMR1_StopInId 0x9d00cd94           0x14          20   
.text.DRV_TMR2_ClientSt 0x9d00cda8           0x14          20   
.text.DRV_TMR2_CounterV 0x9d00cdbc           0x14          20   
.text.DRV_TMR2_CounterV 0x9d00cdd0           0x14          20   
.text.DRV_TMR2_PeriodVa 0x9d00cde4           0x14          20   
.text.DRV_TMR2_PeriodVa 0x9d00cdf8           0x14          20   
.text.DRV_TMR2_StopInId 0x9d00ce0c           0x14          20   
.text.DRV_TMR2_StopInId 0x9d00ce20           0x14          20   
.text.DRV_TMR3_ClientSt 0x9d00ce34           0x14          20   
.text.DRV_TMR3_CounterV 0x9d00ce48           0x14          20   
.text.DRV_TMR3_CounterV 0x9d00ce5c           0x14          20   
.text.DRV_TMR3_PeriodVa 0x9d00ce70           0x14          20   
.text.DRV_TMR3_PeriodVa 0x9d00ce84           0x14          20   
.text.DRV_TMR3_StopInId 0x9d00ce98           0x14          20   
.text.DRV_TMR3_StopInId 0x9d00ceac           0x14          20   
.text.DRV_USART0_Transm 0x9d00cec0           0x14          20   
.text.SYS_DEVCON_Initia 0x9d00ced4           0x14          20   
.text.SYS_PORTS_ChangeN 0x9d00cee8           0x14          20   
.text.SYS_PORTS_ChangeN 0x9d00cefc           0x14          20   
.text.SYS_PORTS_GlobalC 0x9d00cf10           0x14          20   
.text.SYS_PORTS_ChangeN 0x9d00cf24           0x14          20   
.text.SYS_PORTS_ChangeN 0x9d00cf38           0x14          20   
.text.jsmn_init         0x9d00cf4c           0x14          20   
.text.SYS_INT_Initializ 0x9d00cf60           0x14          20   
.text.xPortGetFreeHeapS 0x9d00cf74           0x14          20   
.text.xQueueIsQueueFull 0x9d00cf88           0x14          20   
.text.vTaskSuspendAll   0x9d00cf9c           0x14          20   
.text.vTaskSetTimeOutSt 0x9d00cfb0           0x14          20   
.text.DRV_OC0_FaultHasO 0x9d00cfc4           0x10          16   
.text.DRV_OC1_FaultHasO 0x9d00cfd4           0x10          16   
.text.DRV_OC2_FaultHasO 0x9d00cfe4           0x10          16   
.text.DRV_OC3_FaultHasO 0x9d00cff4           0x10          16   
.text.DRV_TMR0_CounterC 0x9d00d004           0x10          16   
.text.DRV_TMR1_CounterC 0x9d00d014           0x10          16   
.text.DRV_TMR2_CounterC 0x9d00d024           0x10          16   
.text.DRV_TMR3_CounterC 0x9d00d034           0x10          16   
.text.DRV_USART0_ErrorG 0x9d00d044           0x10          16   
.text.SYS_CLK_Secondary 0x9d00d054           0x10          16   
.text.SYS_DEVCON_Reinit 0x9d00d064           0x10          16   
.rodata                 0x9d00d074           0x10          16  Read-only const 
.text.pcTaskGetName     0x9d00d084           0x10          16   
.text.vTaskMissedYield  0x9d00d094           0x10          16   
.text.SYS_CLK_SystemFre 0x9d00d0a4            0xc          12   
.text.SYS_CLK_Periphera 0x9d00d0b0            0xc          12   
.rodata                 0x9d00d0bc           0x18          24  Read-only const 
.text.OSAL_Name         0x9d00d0d4            0xc          12   
.text.uxQueueMessagesWa 0x9d00d0e0            0xc          12   
.text.xQueueIsQueueEmpt 0x9d00d0ec            0xc          12   
.text.xTaskGetTickCount 0x9d00d0f8            0xc          12   
.text.xTaskGetTickCount 0x9d00d104            0xc          12   
.text.uxTaskGetNumberOf 0x9d00d110            0xc          12   
.text.xTaskGetCurrentTa 0x9d00d11c            0xc          12   
.text.DRV_OC_CompareVal 0x9d00d128            0x8           8   
.text.DRV_OC_CompareVal 0x9d00d130            0x8           8   
.text.DRV_TMR1_CounterF 0x9d00d138            0x8           8   
.text.DRV_TMR2_CounterF 0x9d00d140            0x8           8   
.text.DRV_TMR_Status    0x9d00d148            0x8           8   
.text.DRV_TMR_Tasks     0x9d00d150            0x8           8   
.text.DRV_TMR_AlarmRegi 0x9d00d158            0x8           8   
.text.DRV_TMR_AlarmDisa 0x9d00d160            0x8           8   
.text.DRV_TMR_AlarmEnab 0x9d00d168            0x8           8   
.text.DRV_TMR_AlarmPeri 0x9d00d170            0x8           8   
.text.DRV_TMR_AlarmPeri 0x9d00d178            0x8           8   
.text.DRV_TMR_AlarmDere 0x9d00d180            0x8           8   
.text.DRV_TMR_AlarmHasE 0x9d00d188            0x8           8   
.text.DRV_TMR_Operation 0x9d00d190            0x8           8   
.text.DRV_TMR_GateModeS 0x9d00d198            0x8           8   
.text.DRV_TMR_GateModeC 0x9d00d1a0            0x8           8   
.text.DRV_USART0_Status 0x9d00d1a8            0x8           8   
.text.DRV_USART0_Open   0x9d00d1b0            0x8           8   
.text.DRV_USART0_Close  0x9d00d1b8            0x8           8   
.text.DRV_USART0_Client 0x9d00d1c0            0x8           8   
.text.DRV_USART0_Receiv 0x9d00d1c8            0x8           8   
.text.DRV_USART0_Transm 0x9d00d1d0            0x8           8   
.text.SYS_CLK_Reference 0x9d00d1d8            0x8           8   
.text.SYS_DEVCON_Deinit 0x9d00d1e0            0x8           8   
.text.SYS_DEVCON_Status 0x9d00d1e8            0x8           8   
.text.SYS_DEVCON_Tasks  0x9d00d1f0            0x8           8   
.text.SYS_PORTS_Latched 0x9d00d1f8            0x8           8   
.text.SYS_PORTS_Interru 0x9d00d200            0x8           8   
.text.SYS_PORTS_PinLatc 0x9d00d208            0x8           8   
.text.SYS_PORTS_PinPull 0x9d00d210            0x8           8   
.text.SYS_PORTS_PinPull 0x9d00d218            0x8           8   
.text.SYS_PORTS_PinPull 0x9d00d220            0x8           8   
.text.SYS_PORTS_PinPull 0x9d00d228            0x8           8   
.text.SYS_PORTS_Interru 0x9d00d230            0x8           8   
.text.SYS_PORTS_RemapIn 0x9d00d238            0x8           8   
.text.SYS_PORTS_RemapOu 0x9d00d240            0x8           8   
.text._SYS_Tasks        0x9d00d248            0x8           8   
.text.OSAL_Initialize   0x9d00d250            0x8           8   
.text.vPortFree         0x9d00d258            0x8           8   
.text.vPortInitialiseBl 0x9d00d260            0x8           8   
.text.vPortEndScheduler 0x9d00d268            0x8           8   
.text.vListInitialiseIt 0x9d00d270            0x8           8   
.rodata                 0x9d00d278           0x10          16  Read-only const 
.text.xTimerGetTimerDae 0x9d00d288            0x8           8   
.text.xTimerGetPeriod   0x9d00d290            0x8           8   
.text.xTimerGetExpiryTi 0x9d00d298            0x8           8   
.text.pcTimerGetName    0x9d00d2a0            0x8           8   
.text._on_reset         0x9d00d2a8            0x8           8   
.text._on_bootstrap     0x9d00d2b0            0x8           8   
.rodata                 0x9d00d2b8            0x4           4  Read-only const 
      Total kseg0_program_mem used  :      0xd2bc       53948  10.3% of 0x80000

kseg0 Boot-Memory Usage
section                    address  length [bytes]      (dec)  Description
-------                 ----------  -------------------------  -----------
         Total kseg0_boot_mem used  :           0           0  <1% of 0x970

Exception-Memory Usage 
section                    address  length [bytes]      (dec)  Description
-------                 ----------  -------------------------  -----------
.app_excpt              0x9fc01180           0x10          16  General-Exception 
.vector_0               0x9fc01200            0x8           8  Interrupt Vector 0 
.vector_1               0x9fc01220            0x8           8  Interrupt Vector 1 
.vector_2               0x9fc01240            0x8           8  Interrupt Vector 2 
.vector_3               0x9fc01260            0x8           8  Interrupt Vector 3 
.vector_4               0x9fc01280            0x8           8  Interrupt Vector 4 
.vector_5               0x9fc012a0            0x8           8  Interrupt Vector 5 
.vector_6               0x9fc012c0            0x8           8  Interrupt Vector 6 
.vector_7               0x9fc012e0            0x8           8  Interrupt Vector 7 
.vector_8               0x9fc01300           0x10          16  Interrupt Vector 8 
.vector_9               0x9fc01320            0x8           8  Interrupt Vector 9 
.vector_10              0x9fc01340            0x8           8  Interrupt Vector 10 
.vector_11              0x9fc01360            0x8           8  Interrupt Vector 11 
.vector_12              0x9fc01380           0x10          16  Interrupt Vector 12 
.vector_13              0x9fc013a0            0x8           8  Interrupt Vector 13 
.vector_14              0x9fc013c0            0x8           8  Interrupt Vector 14 
.vector_15              0x9fc013e0           0x10          16  Interrupt Vector 15 
.vector_16              0x9fc01400           0x10          16  Interrupt Vector 16 
.vector_17              0x9fc01420            0x8           8  Interrupt Vector 17 
.vector_18              0x9fc01440            0x8           8  Interrupt Vector 18 
.vector_19              0x9fc01460           0x10          16  Interrupt Vector 19 
.vector_20              0x9fc01480           0x10          16  Interrupt Vector 20 
.vector_21              0x9fc014a0            0x8           8  Interrupt Vector 21 
.vector_22              0x9fc014c0            0x8           8  Interrupt Vector 22 
.vector_23              0x9fc014e0            0x8           8  Interrupt Vector 23 
.vector_24              0x9fc01500           0x10          16  Interrupt Vector 24 
.vector_25              0x9fc01520            0x8           8  Interrupt Vector 25 
.vector_26              0x9fc01540            0x8           8  Interrupt Vector 26 
.vector_27              0x9fc01560            0x8           8  Interrupt Vector 27 
.vector_28              0x9fc01580            0x8           8  Interrupt Vector 28 
.vector_29              0x9fc015a0            0x8           8  Interrupt Vector 29 
.vector_30              0x9fc015c0            0x8           8  Interrupt Vector 30 
.vector_31              0x9fc015e0            0x8           8  Interrupt Vector 31 
.vector_32              0x9fc01600            0x8           8  Interrupt Vector 32 
.vector_33              0x9fc01620            0x8           8  Interrupt Vector 33 
.vector_34              0x9fc01640            0x8           8  Interrupt Vector 34 
.vector_35              0x9fc01660            0x8           8  Interrupt Vector 35 
.vector_36              0x9fc01680            0x8           8  Interrupt Vector 36 
.vector_37              0x9fc016a0            0x8           8  Interrupt Vector 37 
.vector_38              0x9fc016c0            0x8           8  Interrupt Vector 38 
.vector_39              0x9fc016e0            0x8           8  Interrupt Vector 39 
.vector_40              0x9fc01700            0x8           8  Interrupt Vector 40 
.vector_41              0x9fc01720            0x8           8  Interrupt Vector 41 
.vector_42              0x9fc01740            0x8           8  Interrupt Vector 42 
.vector_43              0x9fc01760            0x8           8  Interrupt Vector 43 
.vector_44              0x9fc01780            0x8           8  Interrupt Vector 44 
.vector_45              0x9fc017a0            0x8           8  Interrupt Vector 45 
.vector_46              0x9fc017c0            0x8           8  Interrupt Vector 46 
.vector_47              0x9fc017e0            0x8           8  Interrupt Vector 47 
.vector_48              0x9fc01800            0x8           8  Interrupt Vector 48 
.vector_49              0x9fc01820            0x8           8  Interrupt Vector 49 
.vector_50              0x9fc01840            0x8           8  Interrupt Vector 50 
.vector_51              0x9fc01860            0x8           8  Interrupt Vector 51 
          Total exception_mem used  :       0x1e8         488  11.9% of 0x1000

kseg1 Boot-Memory Usage
section                    address  length [bytes]      (dec)  Description
-------                 ----------  -------------------------  -----------
.reset                  0xbfc00000          0x208         520  Reset handler 
.bev_excpt              0xbfc00380           0x10          16  BEV-Exception 
         Total kseg1_boot_mem used  :       0x218         536  45.9% of 0x490
        --------------------------------------------------------------------------
         Total Program Memory used  :      0xd6bc       54972  10.3% of 0x81e00
        --------------------------------------------------------------------------


kseg1 Data-Memory Usage
section                    address  length [bytes]      (dec)  Description
-------                 ----------  -------------------------  -----------
.sdata                  0xa0000000            0x8           8  Small init data 
.sbss                   0xa0000008           0xb4         180  Small uninit data 
.bss                    0xa00000bc           0x14          20  Uninitialized data 
.bss                    0xa00000d0        0x19640      104000  Uninitialized data 
.bss                    0xa0019710           0xc8         200  Uninitialized data 
.data                   0xa00197d8           0xec         236  Initialized data 
.bss                    0xa00198c4           0x6c         108  Uninitialized data 
.bss                    0xa0019930            0xc          12  Uninitialized data 
         Total kseg1_data_mem used  :     0x1993c      104764  79.9% of 0x20000
        --------------------------------------------------------------------------
            Total Data Memory used  :     0x1993c      104764  79.9% of 0x20000
        --------------------------------------------------------------------------


Dynamic Data-Memory Reservation
section                    address  length [bytes]      (dec)  Description
-------                 ----------  -------------------------  -----------
heap                    0xa0019940           0x10          16  Reserved for heap 
stack                   0xa0019968         0x6688       26248  Reserved for stack 

        --------------------------------------------------------------------------

Discarded input sections

 .reginfo       0x00000000       0x18 c:/program files (x86)/microchip/xc32/v1.44/bin/bin/../../lib/gcc/pic32mx/4.8.3/../../../../pic32mx/lib\debug-exception-return.o
 .reginfo       0x00000000       0x18 build/default/production/_ext/1361460060/drv_adc_static.o
 .reginfo       0x00000000       0x18 build/default/production/_ext/1047219354/drv_oc_mapping.o
 .reginfo       0x00000000       0x18 build/default/production/_ext/1047219354/drv_oc_static.o
 .reginfo       0x00000000       0x18 build/default/production/_ext/1407244131/drv_tmr_static.o
 .reginfo       0x00000000       0x18 build/default/production/_ext/1407244131/drv_tmr_mapping.o
 .reginfo       0x00000000       0x18 build/default/production/_ext/327000265/drv_usart_mapping.o
 .reginfo       0x00000000       0x18 build/default/production/_ext/327000265/drv_usart_static.o
 .reginfo       0x00000000       0x18 build/default/production/_ext/327000265/drv_usart_static_byte_model.o
 .reginfo       0x00000000       0x18 build/default/production/_ext/639803181/sys_clk_pic32mx.o
 .reginfo       0x00000000       0x18 build/default/production/_ext/340578644/sys_devcon.o
 .reginfo       0x00000000       0x18 build/default/production/_ext/340578644/sys_devcon_pic32mx.o
 .reginfo       0x00000000       0x18 build/default/production/_ext/822048611/sys_ports_static.o
 .reginfo       0x00000000       0x18 build/default/production/_ext/1688732426/system_init.o
 .reginfo       0x00000000       0x18 build/default/production/_ext/1688732426/system_interrupt.o
 .reginfo       0x00000000       0x18 build/default/production/_ext/1688732426/system_exceptions.o
 .reginfo       0x00000000       0x18 build/default/production/_ext/1688732426/system_tasks.o
 .reginfo       0x00000000       0x18 build/default/production/_ext/1688732426/system_interrupt_a.o
 .reginfo       0x00000000       0x18 build/default/production/_ext/1688732426/rtos_hooks.o
 .reginfo       0x00000000       0x18 build/default/production/_ext/1360937237/WiFiReceive.o
 .reginfo       0x00000000       0x18 build/default/production/_ext/1360937237/WiFiTransmit.o
 .reginfo       0x00000000       0x18 build/default/production/_ext/1360937237/motor_encoder_thread.o
 .reginfo       0x00000000       0x18 build/default/production/_ext/1360937237/Control.o
 .reginfo       0x00000000       0x18 build/default/production/_ext/1360937237/main.o
 .reginfo       0x00000000       0x18 build/default/production/_ext/1360937237/jsmn.o
 .reginfo       0x00000000       0x18 build/default/production/_ext/1360937237/statemachine.o
 .reginfo       0x00000000       0x18 build/default/production/_ext/24337685/osal_freertos.o
 .reginfo       0x00000000       0x18 build/default/production/_ext/122796885/sys_int_pic32.o
 .reginfo       0x00000000       0x18 build/default/production/_ext/1856876499/heap_1.o
 .reginfo       0x00000000       0x18 build/default/production/_ext/12131622/port.o
 .reginfo       0x00000000       0x18 build/default/production/_ext/12131622/port_asm.o
 .reginfo       0x00000000       0x18 build/default/production/_ext/1128951024/croutine.o
 .reginfo       0x00000000       0x18 build/default/production/_ext/1128951024/list.o
 .reginfo       0x00000000       0x18 build/default/production/_ext/1128951024/queue.o
 .reginfo       0x00000000       0x18 build/default/production/_ext/1128951024/tasks.o
 .reginfo       0x00000000       0x18 build/default/production/_ext/1128951024/timers.o
 .reginfo       0x00000000       0x18 build/default/production/_ext/1128951024/event_groups.o
 .reginfo       0x00000000       0x18 c:/program files (x86)/microchip/xc32/v1.44/bin/bin/../../lib/gcc/pic32mx/4.8.3/../../../../pic32mx/lib/./proc/32MX795F512L\default_isr_vectors.o
 .discard       0x00000000       0xd0 c:/program files (x86)/microchip/xc32/v1.44/bin/bin/../../lib/gcc/pic32mx/4.8.3/../../../../pic32mx/lib/./proc/32MX795F512L\default_isr_vectors.o
 .reginfo       0x00000000       0x18 c:/program files (x86)/microchip/xc32/v1.44/bin/bin/../../lib/gcc/pic32mx/4.8.3/../../../../pic32mx/lib\pic32_software_reset.o
 .reginfo       0x00000000       0x18 c:/program files (x86)/microchip/xc32/v1.44/bin/bin/../../lib/gcc/pic32mx/4.8.3/../../../../pic32mx/lib/./proc/32MX795F512L\processor.o
 .reginfo       0x00000000       0x18 c:/program files (x86)/microchip/xc32/v1.44/bin/bin/../../lib/gcc/pic32mx/4.8.3/../../../../pic32mx/lib\libpic32.a(memcpy.o)
 .reginfo       0x00000000       0x18 c:/program files (x86)/microchip/xc32/v1.44/bin/bin/../../lib/gcc/pic32mx/4.8.3/../../../../pic32mx/lib\libpic32.a(memset.o)
 .reginfo       0x00000000       0x18 c:/program files (x86)/microchip/xc32/v1.44/bin/bin/../../lib/gcc/pic32mx/4.8.3/../../../../pic32mx/lib\libpic32.a(strlen.o)
 .reginfo       0x00000000       0x18 c:/program files (x86)/microchip/xc32/v1.44/bin/bin/../../lib/gcc/pic32mx/4.8.3/../../../../pic32mx/lib\libpic32.a(default-bootstrap-exception-handler.o)
 .reginfo       0x00000000       0x18 c:/program files (x86)/microchip/xc32/v1.44/bin/bin/../../lib/gcc/pic32mx/4.8.3/../../../../pic32mx/lib\libpic32.a(default-on-reset.o)
 .reginfo       0x00000000       0x18 c:/program files (x86)/microchip/xc32/v1.44/bin/bin/../../lib/gcc/pic32mx/4.8.3/../../../../pic32mx/lib\libpic32.a(default-on-bootstrap.o)
 .reginfo       0x00000000       0x18 c:/program files (x86)/microchip/xc32/v1.44/bin/bin/../../lib/gcc/pic32mx/4.8.3/../../../../pic32mx/lib\libpic32.a(default-nmi-handler.o)
 .reginfo       0x00000000       0x18 c:/program files (x86)/microchip/xc32/v1.44/bin/bin/../../lib/gcc/pic32mx/4.8.3/../../../../pic32mx/lib\libpic32.a(general-exception.o)
 .reginfo       0x00000000       0x18 c:/program files (x86)/microchip/xc32/v1.44/bin/bin/../../lib/gcc/pic32mx/4.8.3/../../../../pic32mx/lib\libpic32.a(vector0.o)
 .reginfo       0x00000000       0x18 c:/program files (x86)/microchip/xc32/v1.44/bin/bin/../../lib/gcc/pic32mx/4.8.3/../../../../pic32mx/lib\libpic32.a(vector2.o)
 .reginfo       0x00000000       0x18 c:/program files (x86)/microchip/xc32/v1.44/bin/bin/../../lib/gcc/pic32mx/4.8.3/../../../../pic32mx/lib\libpic32.a(vector3.o)
 .reginfo       0x00000000       0x18 c:/program files (x86)/microchip/xc32/v1.44/bin/bin/../../lib/gcc/pic32mx/4.8.3/../../../../pic32mx/lib\libpic32.a(vector5.o)
 .reginfo       0x00000000       0x18 c:/program files (x86)/microchip/xc32/v1.44/bin/bin/../../lib/gcc/pic32mx/4.8.3/../../../../pic32mx/lib\libpic32.a(vector6.o)
 .reginfo       0x00000000       0x18 c:/program files (x86)/microchip/xc32/v1.44/bin/bin/../../lib/gcc/pic32mx/4.8.3/../../../../pic32mx/lib\libpic32.a(vector7.o)
 .reginfo       0x00000000       0x18 c:/program files (x86)/microchip/xc32/v1.44/bin/bin/../../lib/gcc/pic32mx/4.8.3/../../../../pic32mx/lib\libpic32.a(vector9.o)
 .reginfo       0x00000000       0x18 c:/program files (x86)/microchip/xc32/v1.44/bin/bin/../../lib/gcc/pic32mx/4.8.3/../../../../pic32mx/lib\libpic32.a(vector10.o)
 .reginfo       0x00000000       0x18 c:/program files (x86)/microchip/xc32/v1.44/bin/bin/../../lib/gcc/pic32mx/4.8.3/../../../../pic32mx/lib\libpic32.a(vector11.o)
 .reginfo       0x00000000       0x18 c:/program files (x86)/microchip/xc32/v1.44/bin/bin/../../lib/gcc/pic32mx/4.8.3/../../../../pic32mx/lib\libpic32.a(vector13.o)
 .reginfo       0x00000000       0x18 c:/program files (x86)/microchip/xc32/v1.44/bin/bin/../../lib/gcc/pic32mx/4.8.3/../../../../pic32mx/lib\libpic32.a(vector14.o)
 .reginfo       0x00000000       0x18 c:/program files (x86)/microchip/xc32/v1.44/bin/bin/../../lib/gcc/pic32mx/4.8.3/../../../../pic32mx/lib\libpic32.a(vector17.o)
 .reginfo       0x00000000       0x18 c:/program files (x86)/microchip/xc32/v1.44/bin/bin/../../lib/gcc/pic32mx/4.8.3/../../../../pic32mx/lib\libpic32.a(vector18.o)
 .reginfo       0x00000000       0x18 c:/program files (x86)/microchip/xc32/v1.44/bin/bin/../../lib/gcc/pic32mx/4.8.3/../../../../pic32mx/lib\libpic32.a(vector21.o)
 .reginfo       0x00000000       0x18 c:/program files (x86)/microchip/xc32/v1.44/bin/bin/../../lib/gcc/pic32mx/4.8.3/../../../../pic32mx/lib\libpic32.a(vector22.o)
 .reginfo       0x00000000       0x18 c:/program files (x86)/microchip/xc32/v1.44/bin/bin/../../lib/gcc/pic32mx/4.8.3/../../../../pic32mx/lib\libpic32.a(vector23.o)
 .reginfo       0x00000000       0x18 c:/program files (x86)/microchip/xc32/v1.44/bin/bin/../../lib/gcc/pic32mx/4.8.3/../../../../pic32mx/lib\libpic32.a(vector25.o)
 .reginfo       0x00000000       0x18 c:/program files (x86)/microchip/xc32/v1.44/bin/bin/../../lib/gcc/pic32mx/4.8.3/../../../../pic32mx/lib\libpic32.a(vector26.o)
 .reginfo       0x00000000       0x18 c:/program files (x86)/microchip/xc32/v1.44/bin/bin/../../lib/gcc/pic32mx/4.8.3/../../../../pic32mx/lib\libpic32.a(vector27.o)
 .reginfo       0x00000000       0x18 c:/program files (x86)/microchip/xc32/v1.44/bin/bin/../../lib/gcc/pic32mx/4.8.3/../../../../pic32mx/lib\libpic32.a(vector28.o)
 .reginfo       0x00000000       0x18 c:/program files (x86)/microchip/xc32/v1.44/bin/bin/../../lib/gcc/pic32mx/4.8.3/../../../../pic32mx/lib\libpic32.a(vector29.o)
 .reginfo       0x00000000       0x18 c:/program files (x86)/microchip/xc32/v1.44/bin/bin/../../lib/gcc/pic32mx/4.8.3/../../../../pic32mx/lib\libpic32.a(vector30.o)
 .reginfo       0x00000000       0x18 c:/program files (x86)/microchip/xc32/v1.44/bin/bin/../../lib/gcc/pic32mx/4.8.3/../../../../pic32mx/lib\libpic32.a(vector31.o)
 .reginfo       0x00000000       0x18 c:/program files (x86)/microchip/xc32/v1.44/bin/bin/../../lib/gcc/pic32mx/4.8.3/../../../../pic32mx/lib\libpic32.a(vector32.o)
 .reginfo       0x00000000       0x18 c:/program files (x86)/microchip/xc32/v1.44/bin/bin/../../lib/gcc/pic32mx/4.8.3/../../../../pic32mx/lib\libpic32.a(vector33.o)
 .reginfo       0x00000000       0x18 c:/program files (x86)/microchip/xc32/v1.44/bin/bin/../../lib/gcc/pic32mx/4.8.3/../../../../pic32mx/lib\libpic32.a(vector34.o)
 .reginfo       0x00000000       0x18 c:/program files (x86)/microchip/xc32/v1.44/bin/bin/../../lib/gcc/pic32mx/4.8.3/../../../../pic32mx/lib\libpic32.a(vector35.o)
 .reginfo       0x00000000       0x18 c:/program files (x86)/microchip/xc32/v1.44/bin/bin/../../lib/gcc/pic32mx/4.8.3/../../../../pic32mx/lib\libpic32.a(vector36.o)
 .reginfo       0x00000000       0x18 c:/program files (x86)/microchip/xc32/v1.44/bin/bin/../../lib/gcc/pic32mx/4.8.3/../../../../pic32mx/lib\libpic32.a(vector37.o)
 .reginfo       0x00000000       0x18 c:/program files (x86)/microchip/xc32/v1.44/bin/bin/../../lib/gcc/pic32mx/4.8.3/../../../../pic32mx/lib\libpic32.a(vector38.o)
 .reginfo       0x00000000       0x18 c:/program files (x86)/microchip/xc32/v1.44/bin/bin/../../lib/gcc/pic32mx/4.8.3/../../../../pic32mx/lib\libpic32.a(vector39.o)
 .reginfo       0x00000000       0x18 c:/program files (x86)/microchip/xc32/v1.44/bin/bin/../../lib/gcc/pic32mx/4.8.3/../../../../pic32mx/lib\libpic32.a(vector40.o)
 .reginfo       0x00000000       0x18 c:/program files (x86)/microchip/xc32/v1.44/bin/bin/../../lib/gcc/pic32mx/4.8.3/../../../../pic32mx/lib\libpic32.a(vector41.o)
 .reginfo       0x00000000       0x18 c:/program files (x86)/microchip/xc32/v1.44/bin/bin/../../lib/gcc/pic32mx/4.8.3/../../../../pic32mx/lib\libpic32.a(vector42.o)
 .reginfo       0x00000000       0x18 c:/program files (x86)/microchip/xc32/v1.44/bin/bin/../../lib/gcc/pic32mx/4.8.3/../../../../pic32mx/lib\libpic32.a(vector43.o)
 .reginfo       0x00000000       0x18 c:/program files (x86)/microchip/xc32/v1.44/bin/bin/../../lib/gcc/pic32mx/4.8.3/../../../../pic32mx/lib\libpic32.a(vector44.o)
 .reginfo       0x00000000       0x18 c:/program files (x86)/microchip/xc32/v1.44/bin/bin/../../lib/gcc/pic32mx/4.8.3/../../../../pic32mx/lib\libpic32.a(vector45.o)
 .reginfo       0x00000000       0x18 c:/program files (x86)/microchip/xc32/v1.44/bin/bin/../../lib/gcc/pic32mx/4.8.3/../../../../pic32mx/lib\libpic32.a(vector46.o)
 .reginfo       0x00000000       0x18 c:/program files (x86)/microchip/xc32/v1.44/bin/bin/../../lib/gcc/pic32mx/4.8.3/../../../../pic32mx/lib\libpic32.a(vector47.o)
 .reginfo       0x00000000       0x18 c:/program files (x86)/microchip/xc32/v1.44/bin/bin/../../lib/gcc/pic32mx/4.8.3/../../../../pic32mx/lib\libpic32.a(vector48.o)
 .reginfo       0x00000000       0x18 c:/program files (x86)/microchip/xc32/v1.44/bin/bin/../../lib/gcc/pic32mx/4.8.3/../../../../pic32mx/lib\libpic32.a(vector49.o)
 .reginfo       0x00000000       0x18 c:/program files (x86)/microchip/xc32/v1.44/bin/bin/../../lib/gcc/pic32mx/4.8.3/../../../../pic32mx/lib\libpic32.a(vector50.o)
 .reginfo       0x00000000       0x18 c:/program files (x86)/microchip/xc32/v1.44/bin/bin/../../lib/gcc/pic32mx/4.8.3/../../../../pic32mx/lib\libpic32.a(vector51.o)
 .reginfo       0x00000000       0x18 c:/program files (x86)/microchip/xc32/v1.44/bin/bin/../../lib/gcc/pic32mx/4.8.3/../../../../pic32mx/lib\libpic32.a(defaultinterrupt.o)
 .reginfo       0x00000000       0x18 c:/program files (x86)/microchip/xc32/v1.44/bin/bin/../../lib/gcc/pic32mx/4.8.3/../../../../pic32mx/lib\libc.a(atoi.o)
 .reginfo       0x00000000       0x18 c:/program files (x86)/microchip/xc32/v1.44/bin/bin/../../lib/gcc/pic32mx/4.8.3/../../../../pic32mx/lib\libc.a(ctype.o)
 .reginfo       0x00000000       0x18 c:/program files (x86)/microchip/xc32/v1.44/bin/bin/../../lib/gcc/pic32mx/4.8.3/../../../../pic32mx/lib\libc.a(strncmp.o)
 .reginfo       0x00000000       0x18 c:/program files (x86)/microchip/xc32/v1.44/bin/bin/../../lib/gcc/pic32mx/4.8.3/../../../../pic32mx/lib\libc.a(sprintf_cdnopuxX.eo)
 .reginfo       0x00000000       0x18 c:/program files (x86)/microchip/xc32/v1.44/bin/bin/../../lib/gcc/pic32mx/4.8.3/../../../../pic32mx/lib\libc.a(doprnt_cdnopuxX.eo)
 .reginfo       0x00000000       0x18 c:/program files (x86)/microchip/xc32/v1.44/bin/bin/../../lib/gcc/pic32mx/4.8.3/../../../../pic32mx/lib\libc.a(_fputc_simple.o)
 .reginfo       0x00000000       0x18 c:/program files (x86)/microchip/xc32/v1.44/bin/bin/../../lib/gcc/pic32mx/4.8.3/../../../../pic32mx/lib\libc.a(_iob.o)
 .reginfo       0x00000000       0x18 c:/program files (x86)/microchip/xc32/v1.44/bin/bin/../../lib/gcc/pic32mx/4.8.3/../../../../pic32mx/lib\libc.a(_flsbuf_simple.o)
 .reginfo       0x00000000       0x18 c:/program files (x86)/microchip/xc32/v1.44/bin/bin/../../lib/gcc/pic32mx/4.8.3/../../../../pic32mx/lib\libm.a(fp32div.o)
 .reginfo       0x00000000       0x18 c:/program files (x86)/microchip/xc32/v1.44/bin/bin/../../lib/gcc/pic32mx/4.8.3/../../../../pic32mx/lib\libm.a(fp32mul.o)
 .reginfo       0x00000000       0x18 c:/program files (x86)/microchip/xc32/v1.44/bin/bin/../../lib/gcc/pic32mx/4.8.3/../../../../pic32mx/lib\libm.a(fp32subadd.o)
 .reginfo       0x00000000       0x18 c:/program files (x86)/microchip/xc32/v1.44/bin/bin/../../lib/gcc/pic32mx/4.8.3/../../../../pic32mx/lib\libm.a(fpcmp.o)
 .reginfo       0x00000000       0x18 c:/program files (x86)/microchip/xc32/v1.44/bin/bin/../../lib/gcc/pic32mx/4.8.3/../../../../pic32mx/lib\libm.a(fptoli.o)
 .reginfo       0x00000000       0x18 c:/program files (x86)/microchip/xc32/v1.44/bin/bin/../../lib/gcc/pic32mx/4.8.3/../../../../pic32mx/lib\libm.a(sitofp.o)
 .reginfo       0x00000000       0x18 c:/program files (x86)/microchip/xc32/v1.44/bin/bin/../../lib/gcc/pic32mx/4.8.3\libgcc.a(_udivdi3.o)
 .reginfo       0x00000000       0x18 c:/program files (x86)/microchip/xc32/v1.44/bin/bin/../../lib/gcc/pic32mx/4.8.3\libgcc.a(_umoddi3.o)
 .reginfo       0x00000000       0x18 c:/program files (x86)/microchip/xc32/v1.44/bin/bin/../../lib/gcc/pic32mx/4.8.3/../../../../pic32mx/lib\libpic32.a(write.o)
 .reginfo       0x00000000       0x18 c:/program files (x86)/microchip/xc32/v1.44/bin/bin/../../lib/gcc/pic32mx/4.8.3/../../../../pic32mx/lib\libpic32.a(_mon_putc.o)
 .reginfo       0x00000000       0x18 c:/program files (x86)/microchip/xc32/v1.44/bin/bin/../../lib/gcc/pic32mx/4.8.3/../../../../pic32mx/lib\libpic32.a(xc32_uart.o)

Memory Configuration

Name             Origin             Length             Attributes
kseg0_program_mem 0x9d000000         0x00080000         xr
kseg0_boot_mem   0x9fc00490         0x00000970
exception_mem    0x9fc01000         0x00001000
kseg1_boot_mem   0xbfc00000         0x00000490
debug_exec_mem   0xbfc02000         0x00000ff0
config3          0xbfc02ff0         0x00000004
config2          0xbfc02ff4         0x00000004
config1          0xbfc02ff8         0x00000004
config0          0xbfc02ffc         0x00000004
kseg1_data_mem   0xa0000000         0x00020000         w !x
sfrs             0xbf800000         0x00100000
configsfrs       0xbfc02ff0         0x00000010
*default*        0x00000000         0xffffffff

Linker script and memory map

LOAD c:/program files (x86)/microchip/xc32/v1.44/bin/bin/../../lib/gcc/pic32mx/4.8.3/../../../../pic32mx/lib/./proc/32MX795F512L/crt0_mips32r2.o
LOAD c:/program files (x86)/microchip/xc32/v1.44/bin/bin/../../lib/gcc/pic32mx/4.8.3/../../../../pic32mx/lib\debug-exception-return.o
LOAD build/default/production/_ext/1361460060/drv_adc_static.o
LOAD build/default/production/_ext/1047219354/drv_oc_mapping.o
LOAD build/default/production/_ext/1047219354/drv_oc_static.o
LOAD build/default/production/_ext/1407244131/drv_tmr_static.o
LOAD build/default/production/_ext/1407244131/drv_tmr_mapping.o
LOAD build/default/production/_ext/327000265/drv_usart_mapping.o
LOAD build/default/production/_ext/327000265/drv_usart_static.o
LOAD build/default/production/_ext/327000265/drv_usart_static_byte_model.o
LOAD build/default/production/_ext/639803181/sys_clk_pic32mx.o
LOAD build/default/production/_ext/340578644/sys_devcon.o
LOAD build/default/production/_ext/340578644/sys_devcon_pic32mx.o
LOAD build/default/production/_ext/822048611/sys_ports_static.o
LOAD build/default/production/_ext/1688732426/system_init.o
LOAD build/default/production/_ext/1688732426/system_interrupt.o
LOAD build/default/production/_ext/1688732426/system_exceptions.o
LOAD build/default/production/_ext/1688732426/system_tasks.o
LOAD build/default/production/_ext/1688732426/system_interrupt_a.o
LOAD build/default/production/_ext/1688732426/rtos_hooks.o
LOAD build/default/production/_ext/1360937237/WiFiReceive.o
LOAD build/default/production/_ext/1360937237/WiFiTransmit.o
LOAD build/default/production/_ext/1360937237/motor_encoder_thread.o
LOAD build/default/production/_ext/1360937237/Control.o
LOAD build/default/production/_ext/1360937237/main.o
LOAD build/default/production/_ext/1360937237/jsmn.o
LOAD build/default/production/_ext/1360937237/statemachine.o
LOAD build/default/production/_ext/24337685/osal_freertos.o
LOAD build/default/production/_ext/122796885/sys_int_pic32.o
LOAD build/default/production/_ext/1856876499/heap_1.o
LOAD build/default/production/_ext/12131622/port.o
LOAD build/default/production/_ext/12131622/port_asm.o
LOAD build/default/production/_ext/1128951024/croutine.o
LOAD build/default/production/_ext/1128951024/list.o
LOAD build/default/production/_ext/1128951024/queue.o
LOAD build/default/production/_ext/1128951024/tasks.o
LOAD build/default/production/_ext/1128951024/timers.o
LOAD build/default/production/_ext/1128951024/event_groups.o
LOAD ..\..\..\..\bin\framework\peripheral\PIC32MX795F512L_peripherals.a
                0x00000001                __MPLAB_BUILD = 0x1
LOAD c:/program files (x86)/microchip/xc32/v1.44/bin/bin/../../lib/gcc/pic32mx/4.8.3/../../../../pic32mx/lib/./proc/32MX795F512L\default_isr_vectors.o
LOAD c:/program files (x86)/microchip/xc32/v1.44/bin/bin/../../lib/gcc/pic32mx/4.8.3/../../../../pic32mx/lib\pic32_software_reset.o
                0x00000400                PROVIDE (_min_stack_size, 0x400)
LOAD c:/program files (x86)/microchip/xc32/v1.44/bin/bin/../../lib/gcc/pic32mx/4.8.3/../../../../pic32mx/lib/./proc/32MX795F512L\processor.o
START GROUP
LOAD libmchp_peripheral.a
END GROUP
START GROUP
LOAD libmchp_peripheral_32MX795F512L.a
END GROUP
                0x00000001                PROVIDE (_vector_spacing, 0x1)
                0x9fc01000                PROVIDE (_ebase_address, 0x9fc01000)
                0xbfc00000                _RESET_ADDR = 0xbfc00000
                0xbfc00380                _BEV_EXCPT_ADDR = 0xbfc00380
                0xbfc00480                _DBG_EXCPT_ADDR = 0xbfc00480
                0xbfc02000                _DBG_CODE_ADDR = 0xbfc02000
                0x00000ff0                _DBG_CODE_SIZE = 0xff0
                0x9fc01180                _GEN_EXCPT_ADDR = (_ebase_address + 0x180)

.config_BFC02FF0
                0xbfc02ff0        0x4
 *(.config_BFC02FF0)
 .config_BFC02FF0
                0xbfc02ff0        0x4 build/default/production/_ext/1688732426/system_init.o

.config_BFC02FF4
                0xbfc02ff4        0x4
 *(.config_BFC02FF4)
 .config_BFC02FF4
                0xbfc02ff4        0x4 build/default/production/_ext/1688732426/system_init.o

.config_BFC02FF8
                0xbfc02ff8        0x4
 *(.config_BFC02FF8)
 .config_BFC02FF8
                0xbfc02ff8        0x4 build/default/production/_ext/1688732426/system_init.o

.config_BFC02FFC
                0xbfc02ffc        0x4
 *(.config_BFC02FFC)
 .config_BFC02FFC
                0xbfc02ffc        0x4 build/default/production/_ext/1688732426/system_init.o
                0xbfc02000                PROVIDE (_DBG_CODE_ADDR, 0xbfc02000)
                0x00000ff0                PROVIDE (_DBG_CODE_SIZE, 0xff0)

.reset          0xbfc00000      0x208
 *(.reset)
 .reset         0xbfc00000        0x8 c:/program files (x86)/microchip/xc32/v1.44/bin/bin/../../lib/gcc/pic32mx/4.8.3/../../../../pic32mx/lib/./proc/32MX795F512L/crt0_mips32r2.o
                0xbfc00000                _reset
 *(.reset.startup)
 .reset.startup
                0xbfc00008      0x200 c:/program files (x86)/microchip/xc32/v1.44/bin/bin/../../lib/gcc/pic32mx/4.8.3/../../../../pic32mx/lib/./proc/32MX795F512L/crt0_mips32r2.o
                0xbfc00008                _startup

.bev_excpt      0xbfc00380       0x10
 *(.bev_handler)
 .bev_handler   0xbfc00380       0x10 c:/program files (x86)/microchip/xc32/v1.44/bin/bin/../../lib/gcc/pic32mx/4.8.3/../../../../pic32mx/lib/./proc/32MX795F512L/crt0_mips32r2.o

.dbg_excpt      0xbfc00480        0x0
                0xbfc00480                . = (. + DEFINED (_DEBUGGER)?0x8:0x0)

.dbg_code       0xbfc02000        0x0
                0xbfc02000                . = (. + DEFINED (_DEBUGGER)?_DBG_CODE_SIZE:0x0)

.app_excpt      0x9fc01180       0x10
 *(.gen_handler)
 .gen_handler   0x9fc01180       0x10 c:/program files (x86)/microchip/xc32/v1.44/bin/bin/../../lib/gcc/pic32mx/4.8.3/../../../../pic32mx/lib/./proc/32MX795F512L/crt0_mips32r2.o

.vector_0       0x9fc01200        0x8
 *(.vector_0)
 .vector_0      0x9fc01200        0x8 c:/program files (x86)/microchip/xc32/v1.44/bin/bin/../../lib/gcc/pic32mx/4.8.3/../../../../pic32mx/lib\libpic32.a(vector0.o)
                0x9fc01200                __vector_dispatch_0
                0x00000001                ASSERT (((_vector_spacing == 0x0) || (SIZEOF (.vector_0) <= (_vector_spacing << 0x5))), function at exception vector 0 too large)

.vector_1       0x9fc01220        0x8
 *(.vector_1)
 .vector_1      0x9fc01220        0x8 build/default/production/_ext/12131622/port.o
                0x9fc01220                __vector_dispatch_1
                0x00000001                ASSERT (((_vector_spacing == 0x0) || (SIZEOF (.vector_1) <= (_vector_spacing << 0x5))), function at exception vector 1 too large)

.vector_2       0x9fc01240        0x8
 *(.vector_2)
 .vector_2      0x9fc01240        0x8 c:/program files (x86)/microchip/xc32/v1.44/bin/bin/../../lib/gcc/pic32mx/4.8.3/../../../../pic32mx/lib\libpic32.a(vector2.o)
                0x9fc01240                __vector_dispatch_2
                0x00000001                ASSERT (((_vector_spacing == 0x0) || (SIZEOF (.vector_2) <= (_vector_spacing << 0x5))), function at exception vector 2 too large)

.vector_3       0x9fc01260        0x8
 *(.vector_3)
 .vector_3      0x9fc01260        0x8 c:/program files (x86)/microchip/xc32/v1.44/bin/bin/../../lib/gcc/pic32mx/4.8.3/../../../../pic32mx/lib\libpic32.a(vector3.o)
                0x9fc01260                __vector_dispatch_3
                0x00000001                ASSERT (((_vector_spacing == 0x0) || (SIZEOF (.vector_3) <= (_vector_spacing << 0x5))), function at exception vector 3 too large)

.vector_4       0x9fc01280        0x8
 *(.vector_4)
 .vector_4      0x9fc01280        0x8 build/default/production/_ext/12131622/port.o
                0x9fc01280                __vector_dispatch_4
                0x00000001                ASSERT (((_vector_spacing == 0x0) || (SIZEOF (.vector_4) <= (_vector_spacing << 0x5))), function at exception vector 4 too large)

.vector_5       0x9fc012a0        0x8
 *(.vector_5)
 .vector_5      0x9fc012a0        0x8 c:/program files (x86)/microchip/xc32/v1.44/bin/bin/../../lib/gcc/pic32mx/4.8.3/../../../../pic32mx/lib\libpic32.a(vector5.o)
                0x9fc012a0                __vector_dispatch_5
                0x00000001                ASSERT (((_vector_spacing == 0x0) || (SIZEOF (.vector_5) <= (_vector_spacing << 0x5))), function at exception vector 5 too large)

.vector_6       0x9fc012c0        0x8
 *(.vector_6)
 .vector_6      0x9fc012c0        0x8 c:/program files (x86)/microchip/xc32/v1.44/bin/bin/../../lib/gcc/pic32mx/4.8.3/../../../../pic32mx/lib\libpic32.a(vector6.o)
                0x9fc012c0                __vector_dispatch_6
                0x00000001                ASSERT (((_vector_spacing == 0x0) || (SIZEOF (.vector_6) <= (_vector_spacing << 0x5))), function at exception vector 6 too large)

.vector_7       0x9fc012e0        0x8
 *(.vector_7)
 .vector_7      0x9fc012e0        0x8 c:/program files (x86)/microchip/xc32/v1.44/bin/bin/../../lib/gcc/pic32mx/4.8.3/../../../../pic32mx/lib\libpic32.a(vector7.o)
                0x9fc012e0                __vector_dispatch_7
                0x00000001                ASSERT (((_vector_spacing == 0x0) || (SIZEOF (.vector_7) <= (_vector_spacing << 0x5))), function at exception vector 7 too large)

.vector_8       0x9fc01300       0x10
 *(.vector_8)
 .vector_8      0x9fc01300       0x10 build/default/production/_ext/1688732426/system_interrupt_a.o
                0x9fc01300                __vector_dispatch_8
                0x00000001                ASSERT (((_vector_spacing == 0x0) || (SIZEOF (.vector_8) <= (_vector_spacing << 0x5))), function at exception vector 8 too large)

.vector_9       0x9fc01320        0x8
 *(.vector_9)
 .vector_9      0x9fc01320        0x8 c:/program files (x86)/microchip/xc32/v1.44/bin/bin/../../lib/gcc/pic32mx/4.8.3/../../../../pic32mx/lib\libpic32.a(vector9.o)
                0x9fc01320                __vector_dispatch_9
                0x00000001                ASSERT (((_vector_spacing == 0x0) || (SIZEOF (.vector_9) <= (_vector_spacing << 0x5))), function at exception vector 9 too large)

.vector_10      0x9fc01340        0x8
 *(.vector_10)
 .vector_10     0x9fc01340        0x8 c:/program files (x86)/microchip/xc32/v1.44/bin/bin/../../lib/gcc/pic32mx/4.8.3/../../../../pic32mx/lib\libpic32.a(vector10.o)
                0x9fc01340                __vector_dispatch_10
                0x00000001                ASSERT (((_vector_spacing == 0x0) || (SIZEOF (.vector_10) <= (_vector_spacing << 0x5))), function at exception vector 10 too large)

.vector_11      0x9fc01360        0x8
 *(.vector_11)
 .vector_11     0x9fc01360        0x8 c:/program files (x86)/microchip/xc32/v1.44/bin/bin/../../lib/gcc/pic32mx/4.8.3/../../../../pic32mx/lib\libpic32.a(vector11.o)
                0x9fc01360                __vector_dispatch_11
                0x00000001                ASSERT (((_vector_spacing == 0x0) || (SIZEOF (.vector_11) <= (_vector_spacing << 0x5))), function at exception vector 11 too large)

.vector_12      0x9fc01380       0x10
 *(.vector_12)
 .vector_12     0x9fc01380       0x10 build/default/production/_ext/1688732426/system_interrupt_a.o
                0x9fc01380                __vector_dispatch_12
                0x00000001                ASSERT (((_vector_spacing == 0x0) || (SIZEOF (.vector_12) <= (_vector_spacing << 0x5))), function at exception vector 12 too large)

.vector_13      0x9fc013a0        0x8
 *(.vector_13)
 .vector_13     0x9fc013a0        0x8 c:/program files (x86)/microchip/xc32/v1.44/bin/bin/../../lib/gcc/pic32mx/4.8.3/../../../../pic32mx/lib\libpic32.a(vector13.o)
                0x9fc013a0                __vector_dispatch_13
                0x00000001                ASSERT (((_vector_spacing == 0x0) || (SIZEOF (.vector_13) <= (_vector_spacing << 0x5))), function at exception vector 13 too large)

.vector_14      0x9fc013c0        0x8
 *(.vector_14)
 .vector_14     0x9fc013c0        0x8 c:/program files (x86)/microchip/xc32/v1.44/bin/bin/../../lib/gcc/pic32mx/4.8.3/../../../../pic32mx/lib\libpic32.a(vector14.o)
                0x9fc013c0                __vector_dispatch_14
                0x00000001                ASSERT (((_vector_spacing == 0x0) || (SIZEOF (.vector_14) <= (_vector_spacing << 0x5))), function at exception vector 14 too large)

.vector_15      0x9fc013e0       0x10
 *(.vector_15)
 .vector_15     0x9fc013e0       0x10 build/default/production/_ext/1688732426/system_interrupt_a.o
                0x9fc013e0                __vector_dispatch_15
                0x00000001                ASSERT (((_vector_spacing == 0x0) || (SIZEOF (.vector_15) <= (_vector_spacing << 0x5))), function at exception vector 15 too large)

.vector_16      0x9fc01400       0x10
 *(.vector_16)
 .vector_16     0x9fc01400       0x10 build/default/production/_ext/1688732426/system_interrupt_a.o
                0x9fc01400                __vector_dispatch_16
                0x00000001                ASSERT (((_vector_spacing == 0x0) || (SIZEOF (.vector_16) <= (_vector_spacing << 0x5))), function at exception vector 16 too large)

.vector_17      0x9fc01420        0x8
 *(.vector_17)
 .vector_17     0x9fc01420        0x8 c:/program files (x86)/microchip/xc32/v1.44/bin/bin/../../lib/gcc/pic32mx/4.8.3/../../../../pic32mx/lib\libpic32.a(vector17.o)
                0x9fc01420                __vector_dispatch_17
                0x00000001                ASSERT (((_vector_spacing == 0x0) || (SIZEOF (.vector_17) <= (_vector_spacing << 0x5))), function at exception vector 17 too large)

.vector_18      0x9fc01440        0x8
 *(.vector_18)
 .vector_18     0x9fc01440        0x8 c:/program files (x86)/microchip/xc32/v1.44/bin/bin/../../lib/gcc/pic32mx/4.8.3/../../../../pic32mx/lib\libpic32.a(vector18.o)
                0x9fc01440                __vector_dispatch_18
                0x00000001                ASSERT (((_vector_spacing == 0x0) || (SIZEOF (.vector_18) <= (_vector_spacing << 0x5))), function at exception vector 18 too large)

.vector_19      0x9fc01460       0x10
 *(.vector_19)
 .vector_19     0x9fc01460       0x10 build/default/production/_ext/1688732426/system_interrupt_a.o
                0x9fc01460                __vector_dispatch_19
                0x00000001                ASSERT (((_vector_spacing == 0x0) || (SIZEOF (.vector_19) <= (_vector_spacing << 0x5))), function at exception vector 19 too large)

.vector_20      0x9fc01480       0x10
 *(.vector_20)
 .vector_20     0x9fc01480       0x10 build/default/production/_ext/1688732426/system_interrupt_a.o
                0x9fc01480                __vector_dispatch_20
                0x00000001                ASSERT (((_vector_spacing == 0x0) || (SIZEOF (.vector_20) <= (_vector_spacing << 0x5))), function at exception vector 20 too large)

.vector_21      0x9fc014a0        0x8
 *(.vector_21)
 .vector_21     0x9fc014a0        0x8 c:/program files (x86)/microchip/xc32/v1.44/bin/bin/../../lib/gcc/pic32mx/4.8.3/../../../../pic32mx/lib\libpic32.a(vector21.o)
                0x9fc014a0                __vector_dispatch_21
                0x00000001                ASSERT (((_vector_spacing == 0x0) || (SIZEOF (.vector_21) <= (_vector_spacing << 0x5))), function at exception vector 21 too large)

.vector_22      0x9fc014c0        0x8
 *(.vector_22)
 .vector_22     0x9fc014c0        0x8 c:/program files (x86)/microchip/xc32/v1.44/bin/bin/../../lib/gcc/pic32mx/4.8.3/../../../../pic32mx/lib\libpic32.a(vector22.o)
                0x9fc014c0                __vector_dispatch_22
                0x00000001                ASSERT (((_vector_spacing == 0x0) || (SIZEOF (.vector_22) <= (_vector_spacing << 0x5))), function at exception vector 22 too large)

.vector_23      0x9fc014e0        0x8
 *(.vector_23)
 .vector_23     0x9fc014e0        0x8 c:/program files (x86)/microchip/xc32/v1.44/bin/bin/../../lib/gcc/pic32mx/4.8.3/../../../../pic32mx/lib\libpic32.a(vector23.o)
                0x9fc014e0                __vector_dispatch_23
                0x00000001                ASSERT (((_vector_spacing == 0x0) || (SIZEOF (.vector_23) <= (_vector_spacing << 0x5))), function at exception vector 23 too large)

.vector_24      0x9fc01500       0x10
 *(.vector_24)
 .vector_24     0x9fc01500       0x10 build/default/production/_ext/1688732426/system_interrupt_a.o
                0x9fc01500                __vector_dispatch_24
                0x00000001                ASSERT (((_vector_spacing == 0x0) || (SIZEOF (.vector_24) <= (_vector_spacing << 0x5))), function at exception vector 24 too large)

.vector_25      0x9fc01520        0x8
 *(.vector_25)
 .vector_25     0x9fc01520        0x8 c:/program files (x86)/microchip/xc32/v1.44/bin/bin/../../lib/gcc/pic32mx/4.8.3/../../../../pic32mx/lib\libpic32.a(vector25.o)
                0x9fc01520                __vector_dispatch_25
                0x00000001                ASSERT (((_vector_spacing == 0x0) || (SIZEOF (.vector_25) <= (_vector_spacing << 0x5))), function at exception vector 25 too large)

.vector_26      0x9fc01540        0x8
 *(.vector_26)
 .vector_26     0x9fc01540        0x8 c:/program files (x86)/microchip/xc32/v1.44/bin/bin/../../lib/gcc/pic32mx/4.8.3/../../../../pic32mx/lib\libpic32.a(vector26.o)
                0x9fc01540                __vector_dispatch_26
                0x00000001                ASSERT (((_vector_spacing == 0x0) || (SIZEOF (.vector_26) <= (_vector_spacing << 0x5))), function at exception vector 26 too large)

.vector_27      0x9fc01560        0x8
 *(.vector_27)
 .vector_27     0x9fc01560        0x8 c:/program files (x86)/microchip/xc32/v1.44/bin/bin/../../lib/gcc/pic32mx/4.8.3/../../../../pic32mx/lib\libpic32.a(vector27.o)
                0x9fc01560                __vector_dispatch_27
                0x00000001                ASSERT (((_vector_spacing == 0x0) || (SIZEOF (.vector_27) <= (_vector_spacing << 0x5))), function at exception vector 27 too large)

.vector_28      0x9fc01580        0x8
 *(.vector_28)
 .vector_28     0x9fc01580        0x8 c:/program files (x86)/microchip/xc32/v1.44/bin/bin/../../lib/gcc/pic32mx/4.8.3/../../../../pic32mx/lib\libpic32.a(vector28.o)
                0x9fc01580                __vector_dispatch_28
                0x00000001                ASSERT (((_vector_spacing == 0x0) || (SIZEOF (.vector_28) <= (_vector_spacing << 0x5))), function at exception vector 28 too large)

.vector_29      0x9fc015a0        0x8
 *(.vector_29)
 .vector_29     0x9fc015a0        0x8 c:/program files (x86)/microchip/xc32/v1.44/bin/bin/../../lib/gcc/pic32mx/4.8.3/../../../../pic32mx/lib\libpic32.a(vector29.o)
                0x9fc015a0                __vector_dispatch_29
                0x00000001                ASSERT (((_vector_spacing == 0x0) || (SIZEOF (.vector_29) <= (_vector_spacing << 0x5))), function at exception vector 29 too large)

.vector_30      0x9fc015c0        0x8
 *(.vector_30)
 .vector_30     0x9fc015c0        0x8 c:/program files (x86)/microchip/xc32/v1.44/bin/bin/../../lib/gcc/pic32mx/4.8.3/../../../../pic32mx/lib\libpic32.a(vector30.o)
                0x9fc015c0                __vector_dispatch_30
                0x00000001                ASSERT (((_vector_spacing == 0x0) || (SIZEOF (.vector_30) <= (_vector_spacing << 0x5))), function at exception vector 30 too large)

.vector_31      0x9fc015e0        0x8
 *(.vector_31)
 .vector_31     0x9fc015e0        0x8 c:/program files (x86)/microchip/xc32/v1.44/bin/bin/../../lib/gcc/pic32mx/4.8.3/../../../../pic32mx/lib\libpic32.a(vector31.o)
                0x9fc015e0                __vector_dispatch_31
                0x00000001                ASSERT (((_vector_spacing == 0x0) || (SIZEOF (.vector_31) <= (_vector_spacing << 0x5))), function at exception vector 31 too large)

.vector_32      0x9fc01600        0x8
 *(.vector_32)
 .vector_32     0x9fc01600        0x8 c:/program files (x86)/microchip/xc32/v1.44/bin/bin/../../lib/gcc/pic32mx/4.8.3/../../../../pic32mx/lib\libpic32.a(vector32.o)
                0x9fc01600                __vector_dispatch_32
                0x00000001                ASSERT (((_vector_spacing == 0x0) || (SIZEOF (.vector_32) <= (_vector_spacing << 0x5))), function at exception vector 32 too large)

.vector_33      0x9fc01620        0x8
 *(.vector_33)
 .vector_33     0x9fc01620        0x8 c:/program files (x86)/microchip/xc32/v1.44/bin/bin/../../lib/gcc/pic32mx/4.8.3/../../../../pic32mx/lib\libpic32.a(vector33.o)
                0x9fc01620                __vector_dispatch_33
                0x00000001                ASSERT (((_vector_spacing == 0x0) || (SIZEOF (.vector_33) <= (_vector_spacing << 0x5))), function at exception vector 33 too large)

.vector_34      0x9fc01640        0x8
 *(.vector_34)
 .vector_34     0x9fc01640        0x8 c:/program files (x86)/microchip/xc32/v1.44/bin/bin/../../lib/gcc/pic32mx/4.8.3/../../../../pic32mx/lib\libpic32.a(vector34.o)
                0x9fc01640                __vector_dispatch_34
                0x00000001                ASSERT (((_vector_spacing == 0x0) || (SIZEOF (.vector_34) <= (_vector_spacing << 0x5))), function at exception vector 34 too large)

.vector_35      0x9fc01660        0x8
 *(.vector_35)
 .vector_35     0x9fc01660        0x8 c:/program files (x86)/microchip/xc32/v1.44/bin/bin/../../lib/gcc/pic32mx/4.8.3/../../../../pic32mx/lib\libpic32.a(vector35.o)
                0x9fc01660                __vector_dispatch_35
                0x00000001                ASSERT (((_vector_spacing == 0x0) || (SIZEOF (.vector_35) <= (_vector_spacing << 0x5))), function at exception vector 35 too large)

.vector_36      0x9fc01680        0x8
 *(.vector_36)
 .vector_36     0x9fc01680        0x8 c:/program files (x86)/microchip/xc32/v1.44/bin/bin/../../lib/gcc/pic32mx/4.8.3/../../../../pic32mx/lib\libpic32.a(vector36.o)
                0x9fc01680                __vector_dispatch_36
                0x00000001                ASSERT (((_vector_spacing == 0x0) || (SIZEOF (.vector_36) <= (_vector_spacing << 0x5))), function at exception vector 36 too large)

.vector_37      0x9fc016a0        0x8
 *(.vector_37)
 .vector_37     0x9fc016a0        0x8 c:/program files (x86)/microchip/xc32/v1.44/bin/bin/../../lib/gcc/pic32mx/4.8.3/../../../../pic32mx/lib\libpic32.a(vector37.o)
                0x9fc016a0                __vector_dispatch_37
                0x00000001                ASSERT (((_vector_spacing == 0x0) || (SIZEOF (.vector_37) <= (_vector_spacing << 0x5))), function at exception vector 37 too large)

.vector_38      0x9fc016c0        0x8
 *(.vector_38)
 .vector_38     0x9fc016c0        0x8 c:/program files (x86)/microchip/xc32/v1.44/bin/bin/../../lib/gcc/pic32mx/4.8.3/../../../../pic32mx/lib\libpic32.a(vector38.o)
                0x9fc016c0                __vector_dispatch_38
                0x00000001                ASSERT (((_vector_spacing == 0x0) || (SIZEOF (.vector_38) <= (_vector_spacing << 0x5))), function at exception vector 38 too large)

.vector_39      0x9fc016e0        0x8
 *(.vector_39)
 .vector_39     0x9fc016e0        0x8 c:/program files (x86)/microchip/xc32/v1.44/bin/bin/../../lib/gcc/pic32mx/4.8.3/../../../../pic32mx/lib\libpic32.a(vector39.o)
                0x9fc016e0                __vector_dispatch_39
                0x00000001                ASSERT (((_vector_spacing == 0x0) || (SIZEOF (.vector_39) <= (_vector_spacing << 0x5))), function at exception vector 39 too large)

.vector_40      0x9fc01700        0x8
 *(.vector_40)
 .vector_40     0x9fc01700        0x8 c:/program files (x86)/microchip/xc32/v1.44/bin/bin/../../lib/gcc/pic32mx/4.8.3/../../../../pic32mx/lib\libpic32.a(vector40.o)
                0x9fc01700                __vector_dispatch_40
                0x00000001                ASSERT (((_vector_spacing == 0x0) || (SIZEOF (.vector_40) <= (_vector_spacing << 0x5))), function at exception vector 40 too large)

.vector_41      0x9fc01720        0x8
 *(.vector_41)
 .vector_41     0x9fc01720        0x8 c:/program files (x86)/microchip/xc32/v1.44/bin/bin/../../lib/gcc/pic32mx/4.8.3/../../../../pic32mx/lib\libpic32.a(vector41.o)
                0x9fc01720                __vector_dispatch_41
                0x00000001                ASSERT (((_vector_spacing == 0x0) || (SIZEOF (.vector_41) <= (_vector_spacing << 0x5))), function at exception vector 41 too large)

.vector_42      0x9fc01740        0x8
 *(.vector_42)
 .vector_42     0x9fc01740        0x8 c:/program files (x86)/microchip/xc32/v1.44/bin/bin/../../lib/gcc/pic32mx/4.8.3/../../../../pic32mx/lib\libpic32.a(vector42.o)
                0x9fc01740                __vector_dispatch_42
                0x00000001                ASSERT (((_vector_spacing == 0x0) || (SIZEOF (.vector_42) <= (_vector_spacing << 0x5))), function at exception vector 42 too large)

.vector_43      0x9fc01760        0x8
 *(.vector_43)
 .vector_43     0x9fc01760        0x8 c:/program files (x86)/microchip/xc32/v1.44/bin/bin/../../lib/gcc/pic32mx/4.8.3/../../../../pic32mx/lib\libpic32.a(vector43.o)
                0x9fc01760                __vector_dispatch_43
                0x00000001                ASSERT (((_vector_spacing == 0x0) || (SIZEOF (.vector_43) <= (_vector_spacing << 0x5))), function at exception vector 43 too large)

.vector_44      0x9fc01780        0x8
 *(.vector_44)
 .vector_44     0x9fc01780        0x8 c:/program files (x86)/microchip/xc32/v1.44/bin/bin/../../lib/gcc/pic32mx/4.8.3/../../../../pic32mx/lib\libpic32.a(vector44.o)
                0x9fc01780                __vector_dispatch_44
                0x00000001                ASSERT (((_vector_spacing == 0x0) || (SIZEOF (.vector_44) <= (_vector_spacing << 0x5))), function at exception vector 44 too large)

.vector_45      0x9fc017a0        0x8
 *(.vector_45)
 .vector_45     0x9fc017a0        0x8 c:/program files (x86)/microchip/xc32/v1.44/bin/bin/../../lib/gcc/pic32mx/4.8.3/../../../../pic32mx/lib\libpic32.a(vector45.o)
                0x9fc017a0                __vector_dispatch_45
                0x00000001                ASSERT (((_vector_spacing == 0x0) || (SIZEOF (.vector_45) <= (_vector_spacing << 0x5))), function at exception vector 45 too large)

.vector_46      0x9fc017c0        0x8
 *(.vector_46)
 .vector_46     0x9fc017c0        0x8 c:/program files (x86)/microchip/xc32/v1.44/bin/bin/../../lib/gcc/pic32mx/4.8.3/../../../../pic32mx/lib\libpic32.a(vector46.o)
                0x9fc017c0                __vector_dispatch_46
                0x00000001                ASSERT (((_vector_spacing == 0x0) || (SIZEOF (.vector_46) <= (_vector_spacing << 0x5))), function at exception vector 46 too large)

.vector_47      0x9fc017e0        0x8
 *(.vector_47)
 .vector_47     0x9fc017e0        0x8 c:/program files (x86)/microchip/xc32/v1.44/bin/bin/../../lib/gcc/pic32mx/4.8.3/../../../../pic32mx/lib\libpic32.a(vector47.o)
                0x9fc017e0                __vector_dispatch_47
                0x00000001                ASSERT (((_vector_spacing == 0x0) || (SIZEOF (.vector_47) <= (_vector_spacing << 0x5))), function at exception vector 47 too large)

.vector_48      0x9fc01800        0x8
 *(.vector_48)
 .vector_48     0x9fc01800        0x8 c:/program files (x86)/microchip/xc32/v1.44/bin/bin/../../lib/gcc/pic32mx/4.8.3/../../../../pic32mx/lib\libpic32.a(vector48.o)
                0x9fc01800                __vector_dispatch_48
                0x00000001                ASSERT (((_vector_spacing == 0x0) || (SIZEOF (.vector_48) <= (_vector_spacing << 0x5))), function at exception vector 48 too large)

.vector_49      0x9fc01820        0x8
 *(.vector_49)
 .vector_49     0x9fc01820        0x8 c:/program files (x86)/microchip/xc32/v1.44/bin/bin/../../lib/gcc/pic32mx/4.8.3/../../../../pic32mx/lib\libpic32.a(vector49.o)
                0x9fc01820                __vector_dispatch_49
                0x00000001                ASSERT (((_vector_spacing == 0x0) || (SIZEOF (.vector_49) <= (_vector_spacing << 0x5))), function at exception vector 49 too large)

.vector_50      0x9fc01840        0x8
 *(.vector_50)
 .vector_50     0x9fc01840        0x8 c:/program files (x86)/microchip/xc32/v1.44/bin/bin/../../lib/gcc/pic32mx/4.8.3/../../../../pic32mx/lib\libpic32.a(vector50.o)
                0x9fc01840                __vector_dispatch_50
                0x00000001                ASSERT (((_vector_spacing == 0x0) || (SIZEOF (.vector_50) <= (_vector_spacing << 0x5))), function at exception vector 50 too large)

.vector_51      0x9fc01860        0x8
 *(.vector_51)
 .vector_51     0x9fc01860        0x8 c:/program files (x86)/microchip/xc32/v1.44/bin/bin/../../lib/gcc/pic32mx/4.8.3/../../../../pic32mx/lib\libpic32.a(vector51.o)
                0x9fc01860                __vector_dispatch_51
                0x00000001                ASSERT (((_vector_spacing == 0x0) || (SIZEOF (.vector_51) <= (_vector_spacing << 0x5))), function at exception vector 51 too large)

.vector_52      0x9fc01880        0x0
 *(.vector_52)
                0x00000001                ASSERT (((_vector_spacing == 0x0) || (SIZEOF (.vector_52) <= (_vector_spacing << 0x5))), function at exception vector 52 too large)

.vector_53      0x9fc018a0        0x0
 *(.vector_53)
                0x00000001                ASSERT (((_vector_spacing == 0x0) || (SIZEOF (.vector_53) <= (_vector_spacing << 0x5))), function at exception vector 53 too large)

.vector_54      0x9fc018c0        0x0
 *(.vector_54)
                0x00000001                ASSERT (((_vector_spacing == 0x0) || (SIZEOF (.vector_54) <= (_vector_spacing << 0x5))), function at exception vector 54 too large)

.vector_55      0x9fc018e0        0x0
 *(.vector_55)
                0x00000001                ASSERT (((_vector_spacing == 0x0) || (SIZEOF (.vector_55) <= (_vector_spacing << 0x5))), function at exception vector 55 too large)

.vector_56      0x9fc01900        0x0
 *(.vector_56)
                0x00000001                ASSERT (((_vector_spacing == 0x0) || (SIZEOF (.vector_56) <= (_vector_spacing << 0x5))), function at exception vector 56 too large)

.vector_57      0x9fc01920        0x0
 *(.vector_57)
                0x00000001                ASSERT (((_vector_spacing == 0x0) || (SIZEOF (.vector_57) <= (_vector_spacing << 0x5))), function at exception vector 57 too large)

.vector_58      0x9fc01940        0x0
 *(.vector_58)
                0x00000001                ASSERT (((_vector_spacing == 0x0) || (SIZEOF (.vector_58) <= (_vector_spacing << 0x5))), function at exception vector 58 too large)

.vector_59      0x9fc01960        0x0
 *(.vector_59)
                0x00000001                ASSERT (((_vector_spacing == 0x0) || (SIZEOF (.vector_59) <= (_vector_spacing << 0x5))), function at exception vector 59 too large)

.vector_60      0x9fc01980        0x0
 *(.vector_60)
                0x00000001                ASSERT (((_vector_spacing == 0x0) || (SIZEOF (.vector_60) <= (_vector_spacing << 0x5))), function at exception vector 60 too large)

.vector_61      0x9fc019a0        0x0
 *(.vector_61)
                0x00000001                ASSERT (((_vector_spacing == 0x0) || (SIZEOF (.vector_61) <= (_vector_spacing << 0x5))), function at exception vector 61 too large)

.vector_62      0x9fc019c0        0x0
 *(.vector_62)
                0x00000001                ASSERT (((_vector_spacing == 0x0) || (SIZEOF (.vector_62) <= (_vector_spacing << 0x5))), function at exception vector 62 too large)

.vector_63      0x9fc019e0        0x0
 *(.vector_63)
                0x00000001                ASSERT (((_vector_spacing == 0x0) || (SIZEOF (.vector_63) <= (_vector_spacing << 0x5))), function at exception vector 63 too large)

.startup
 *(.startup)

.text           0x9d000000        0x0
 *(.stub .gnu.linkonce.t.*)
 *(.text.*personality*)
 *(.mips16.fn.*)
 *(.mips16.call.*)
 *(.gnu.warning)
                0x9d000000                . = ALIGN (0x4)

.init           0x9d000000        0x0
 *crti.o(.init)
 *crtbegin.o(.init)
 *(EXCLUDE_FILE(*crtn.o *crtend?.o *crtend.o) .init)
 *crtend.o(.init)
 *crtn.o(.init)
                0x9d000000                . = ALIGN (0x4)

.fini           0x9d000000        0x0
 *(.fini)
                0x9d000000                . = ALIGN (0x4)

.preinit_array  0x9d000000        0x0
                0x9d000000                PROVIDE (__preinit_array_start, .)
 *(.preinit_array)
                0x9d000000                PROVIDE (__preinit_array_end, .)
                0x9d000000                . = ALIGN (0x4)

.init_array     0x9d000000        0x0
                0x9d000000                PROVIDE (__init_array_start, .)
 *(SORT(.init_array.*))
 *(.init_array)
                0x9d000000                PROVIDE (__init_array_end, .)
                0x9d000000                . = ALIGN (0x4)

.fini_array     0x9d000000        0x0
                0x9d000000                PROVIDE (__fini_array_start, .)
 *(SORT(.fini_array.*))
 *(.fini_array)
                0x9d000000                PROVIDE (__fini_array_end, .)
                0x9d000000                . = ALIGN (0x4)

.ctors          0x9d000000        0x0
 *crtbegin.o(.ctors)
 *crtbegin?.o(.ctors)
 *(EXCLUDE_FILE(*crtend?.o *crtend.o) .ctors)
 *(SORT(.ctors.*))
 *(.ctors)
                0x9d000000                . = ALIGN (0x4)

.dtors          0x9d000000        0x0
 *crtbegin.o(.dtors)
 *crtbegin?.o(.dtors)
 *(EXCLUDE_FILE(*crtend?.o *crtend.o) .dtors)
 *(SORT(.dtors.*))
 *(.dtors)
                0x9d000000                . = ALIGN (0x4)

.rodata         0x9d000000        0x0
 *(.gnu.linkonce.r.*)
 *(.rodata1)
                0x9d000000                . = ALIGN (0x4)

.sdata2         0x9fc00490        0x0
 *(.sdata2 .sdata2.* .gnu.linkonce.s2.*)
                0x9fc00490                . = ALIGN (0x4)

.sbss2          0x9fc00490        0x0
 *(.sbss2 .sbss2.* .gnu.linkonce.sb2.*)
                0x9fc00490                . = ALIGN (0x4)

.eh_frame_hdr
 *(.eh_frame_hdr)
                0x9fc00490                . = ALIGN (0x4)

.eh_frame
 *(.eh_frame)
                0x9fc00490                . = ALIGN (0x4)

.gcc_except_table
 *(.gcc_except_table .gcc_except_table.*)
                0x9fc00490                . = ALIGN (0x4)

.dbg_data       0xa0000000        0x0
                0xa0000000                . = (. + DEFINED (_DEBUGGER)?0x200:0x0)

.jcr            0xa0000000        0x0
 *(.jcr)
                0xa0000000                . = ALIGN (0x4)

.eh_frame
 *(.eh_frame)
                0xa0000000                . = ALIGN (0x4)

.gcc_except_table
 *(.gcc_except_table .gcc_except_table.*)
                0xa0000000                . = ALIGN (0x4)

.persist        0xa0000000        0x0
                0xa0000000                _persist_begin = .
 *(.persist .persist.*)
 *(.pbss .pbss.*)
                0xa0000000                . = ALIGN (0x4)
                0xa0000000                _persist_end = .

.data           0xa0000000        0x0
 *(.gnu.linkonce.d.*)
 *(.data1)
                0xa0000000                . = ALIGN (0x4)
                0xa0000000                . = .
                0xa0007ff0                _gp = (ALIGN (0x10) + 0x7ff0)

.got            0xa0000000        0x0
 *(.got.plt)
 *(.got)
                0xa0000000                . = ALIGN (0x4)

.sdata          0xa0000000        0x8
                0xa0000000                _sdata_begin = .
 *(.sdata .sdata.* .gnu.linkonce.s.*)
 .sdata         0xa0000000        0x4 build/default/production/_ext/12131622/port.o
                0xa0000000                uxInterruptNesting
 .sdata         0xa0000004        0x4 c:/program files (x86)/microchip/xc32/v1.44/bin/bin/../../lib/gcc/pic32mx/4.8.3/../../../../pic32mx/lib\libpic32.a(xc32_uart.o)
                0xa0000004                __XC_UART
                0xa0000008                . = ALIGN (0x4)
                0xa0000008                _sdata_end = .

.lit8
 *(.lit8)

.lit4
 *(.lit4)
                0xa0000008                . = ALIGN (0x4)
                0xa0000008                _data_end = .
                0xa0000008                _bss_begin = .

.sbss           0xa0000008       0xb4
                0xa0000008                _sbss_begin = .
 *(.dynsbss)
 *(.sbss .sbss.* .gnu.linkonce.sb.*)
 .sbss          0xa0000008        0x4 build/default/production/_ext/1407244131/drv_tmr_static.o
 .sbss          0xa000000c        0x4 build/default/production/_ext/1688732426/system_interrupt.o
 .sbss          0xa0000010        0xc build/default/production/_ext/1688732426/system_exceptions.o
 .sbss          0xa000001c        0x4 build/default/production/_ext/1360937237/WiFiTransmit.o
                0xa000001c                is_wifi_connected
                0xa000001e                picsequence
 .sbss          0xa0000020        0x8 build/default/production/_ext/1360937237/Control.o
 .sbss          0xa0000028        0x8 build/default/production/_ext/1360937237/statemachine.o
 .sbss          0xa0000030        0x8 build/default/production/_ext/1856876499/heap_1.o
 .sbss          0xa0000038        0x4 build/default/production/_ext/12131622/port.o
                0xa0000038                uxSavedTaskStackPointer
 .sbss          0xa000003c       0x3c build/default/production/_ext/1128951024/tasks.o
                0xa0000074                pxCurrentTCB
 .sbss          0xa0000078       0x14 build/default/production/_ext/1128951024/timers.o
 *(.scommon)
 .scommon       0xa000008c        0x4 build/default/production/_ext/1047219354/drv_oc_mapping.o
                0xa000008c                Encoder_Q
 .scommon       0xa0000090        0x0 build/default/production/_ext/327000265/drv_usart_mapping.o
 .scommon       0xa0000090        0x8 build/default/production/_ext/327000265/drv_usart_static.o
                0xa0000090                gDrvUSART0Obj
 .scommon       0xa0000098        0x0 build/default/production/_ext/327000265/drv_usart_static_byte_model.o
 .scommon       0xa0000098        0x0 build/default/production/_ext/639803181/sys_clk_pic32mx.o
 .scommon       0xa0000098        0x8 build/default/production/_ext/340578644/sys_devcon.o
                0xa0000098                sysDevconObj
 .scommon       0xa00000a0        0x0 build/default/production/_ext/1688732426/system_init.o
 .scommon       0xa00000a0        0x0 build/default/production/_ext/1688732426/system_interrupt.o
 .scommon       0xa00000a0        0x0 build/default/production/_ext/1688732426/system_exceptions.o
 .scommon       0xa00000a0        0x0 build/default/production/_ext/1688732426/system_tasks.o
 .scommon       0xa00000a0        0xc build/default/production/_ext/1360937237/WiFiReceive.o
                0xa00000a0                myUART
                0xa00000a4                usartreceivequeue
                0xa00000a8                wifireceiveData
 .scommon       0xa00000ac        0x8 build/default/production/_ext/1360937237/WiFiTransmit.o
                0xa00000ac                wifitransmitqueue
                0xa00000b0                usarttransmitqueue
 .scommon       0xa00000b4        0x0 build/default/production/_ext/1360937237/motor_encoder_thread.o
 .scommon       0xa00000b4        0x8 build/default/production/_ext/1360937237/Control.o
                0xa00000b4                receive_q
                0xa00000b8                controltimer
                0xa00000bc                _sbss_end = .
                0xa00000bc                . = ALIGN (0x4)

.bss            0xa00000bc       0x14
 *(.dynbss)
 *(COMMON)
 COMMON         0xa00000bc       0x14 build/default/production/_ext/1688732426/system_init.o
                0xa00000bc                sysObj
                0xa00000d0                . = ALIGN ((. != 0x0)?0x4:0x1)
                0xa00000d0                . = ALIGN (0x4)
                0xa00000d0                _end = .
                0xa00000d0                _bss_end = .
                0x00020000                _bmxdudba_address = 0x20000
                0x00020000                _bmxdupba_address = 0x20000

/DISCARD/
 *(.pdr)
 *(.rel.dyn)
 *(.note.GNU-stack)
 *(.note.GNU-stack)
 *(.gnu_debuglink)
 *(.gnu.lto_*)
 *(.discard)

.gptab.sdata
 *(.gptab.data)
 *(.gptab.sdata)

.gptab.sbss
 *(.gptab.bss)
 *(.gptab.sbss)

.mdebug.abi32   0xa00000d0        0x0
 *(.mdebug.abi32)
 .mdebug.abi32  0xa00000d0        0x0 build/default/production/_ext/1361460060/drv_adc_static.o
 .mdebug.abi32  0xa00000d0        0x0 build/default/production/_ext/1047219354/drv_oc_mapping.o
 .mdebug.abi32  0xa00000d0        0x0 build/default/production/_ext/1047219354/drv_oc_static.o
 .mdebug.abi32  0xa00000d0        0x0 build/default/production/_ext/1407244131/drv_tmr_static.o
 .mdebug.abi32  0xa00000d0        0x0 build/default/production/_ext/1407244131/drv_tmr_mapping.o
 .mdebug.abi32  0xa00000d0        0x0 build/default/production/_ext/327000265/drv_usart_mapping.o
 .mdebug.abi32  0xa00000d0        0x0 build/default/production/_ext/327000265/drv_usart_static.o
 .mdebug.abi32  0xa00000d0        0x0 build/default/production/_ext/327000265/drv_usart_static_byte_model.o
 .mdebug.abi32  0xa00000d0        0x0 build/default/production/_ext/639803181/sys_clk_pic32mx.o
 .mdebug.abi32  0xa00000d0        0x0 build/default/production/_ext/340578644/sys_devcon.o
 .mdebug.abi32  0xa00000d0        0x0 build/default/production/_ext/340578644/sys_devcon_pic32mx.o
 .mdebug.abi32  0xa00000d0        0x0 build/default/production/_ext/822048611/sys_ports_static.o
 .mdebug.abi32  0xa00000d0        0x0 build/default/production/_ext/1688732426/system_init.o
 .mdebug.abi32  0xa00000d0        0x0 build/default/production/_ext/1688732426/system_interrupt.o
 .mdebug.abi32  0xa00000d0        0x0 build/default/production/_ext/1688732426/system_exceptions.o
 .mdebug.abi32  0xa00000d0        0x0 build/default/production/_ext/1688732426/system_tasks.o
 .mdebug.abi32  0xa00000d0        0x0 build/default/production/_ext/1688732426/rtos_hooks.o
 .mdebug.abi32  0xa00000d0        0x0 build/default/production/_ext/1360937237/WiFiReceive.o
 .mdebug.abi32  0xa00000d0        0x0 build/default/production/_ext/1360937237/WiFiTransmit.o
 .mdebug.abi32  0xa00000d0        0x0 build/default/production/_ext/1360937237/motor_encoder_thread.o
 .mdebug.abi32  0xa00000d0        0x0 build/default/production/_ext/1360937237/Control.o
 .mdebug.abi32  0xa00000d0        0x0 build/default/production/_ext/1360937237/main.o
 .mdebug.abi32  0xa00000d0        0x0 build/default/production/_ext/1360937237/jsmn.o
 .mdebug.abi32  0xa00000d0        0x0 build/default/production/_ext/1360937237/statemachine.o
 .mdebug.abi32  0xa00000d0        0x0 build/default/production/_ext/24337685/osal_freertos.o
 .mdebug.abi32  0xa00000d0        0x0 build/default/production/_ext/122796885/sys_int_pic32.o
 .mdebug.abi32  0xa00000d0        0x0 build/default/production/_ext/1856876499/heap_1.o
 .mdebug.abi32  0xa00000d0        0x0 build/default/production/_ext/12131622/port.o
 .mdebug.abi32  0xa00000d0        0x0 build/default/production/_ext/1128951024/croutine.o
 .mdebug.abi32  0xa00000d0        0x0 build/default/production/_ext/1128951024/list.o
 .mdebug.abi32  0xa00000d0        0x0 build/default/production/_ext/1128951024/queue.o
 .mdebug.abi32  0xa00000d0        0x0 build/default/production/_ext/1128951024/tasks.o
 .mdebug.abi32  0xa00000d0        0x0 build/default/production/_ext/1128951024/timers.o
 .mdebug.abi32  0xa00000d0        0x0 build/default/production/_ext/1128951024/event_groups.o
 .mdebug.abi32  0xa00000d0        0x0 c:/program files (x86)/microchip/xc32/v1.44/bin/bin/../../lib/gcc/pic32mx/4.8.3/../../../../pic32mx/lib\libpic32.a(default-bootstrap-exception-handler.o)
 .mdebug.abi32  0xa00000d0        0x0 c:/program files (x86)/microchip/xc32/v1.44/bin/bin/../../lib/gcc/pic32mx/4.8.3/../../../../pic32mx/lib\libpic32.a(default-on-reset.o)
 .mdebug.abi32  0xa00000d0        0x0 c:/program files (x86)/microchip/xc32/v1.44/bin/bin/../../lib/gcc/pic32mx/4.8.3/../../../../pic32mx/lib\libpic32.a(default-on-bootstrap.o)
 .mdebug.abi32  0xa00000d0        0x0 c:/program files (x86)/microchip/xc32/v1.44/bin/bin/../../lib/gcc/pic32mx/4.8.3/../../../../pic32mx/lib\libpic32.a(defaultinterrupt.o)
 .mdebug.abi32  0xa00000d0        0x0 c:/program files (x86)/microchip/xc32/v1.44/bin/bin/../../lib/gcc/pic32mx/4.8.3/../../../../pic32mx/lib\libc.a(atoi.o)
 .mdebug.abi32  0xa00000d0        0x0 c:/program files (x86)/microchip/xc32/v1.44/bin/bin/../../lib/gcc/pic32mx/4.8.3/../../../../pic32mx/lib\libc.a(ctype.o)
 .mdebug.abi32  0xa00000d0        0x0 c:/program files (x86)/microchip/xc32/v1.44/bin/bin/../../lib/gcc/pic32mx/4.8.3/../../../../pic32mx/lib\libc.a(strncmp.o)
 .mdebug.abi32  0xa00000d0        0x0 c:/program files (x86)/microchip/xc32/v1.44/bin/bin/../../lib/gcc/pic32mx/4.8.3/../../../../pic32mx/lib\libc.a(sprintf_cdnopuxX.eo)
 .mdebug.abi32  0xa00000d0        0x0 c:/program files (x86)/microchip/xc32/v1.44/bin/bin/../../lib/gcc/pic32mx/4.8.3/../../../../pic32mx/lib\libc.a(doprnt_cdnopuxX.eo)
 .mdebug.abi32  0xa00000d0        0x0 c:/program files (x86)/microchip/xc32/v1.44/bin/bin/../../lib/gcc/pic32mx/4.8.3/../../../../pic32mx/lib\libc.a(_fputc_simple.o)
 .mdebug.abi32  0xa00000d0        0x0 c:/program files (x86)/microchip/xc32/v1.44/bin/bin/../../lib/gcc/pic32mx/4.8.3/../../../../pic32mx/lib\libc.a(_iob.o)
 .mdebug.abi32  0xa00000d0        0x0 c:/program files (x86)/microchip/xc32/v1.44/bin/bin/../../lib/gcc/pic32mx/4.8.3/../../../../pic32mx/lib\libc.a(_flsbuf_simple.o)
 .mdebug.abi32  0xa00000d0        0x0 c:/program files (x86)/microchip/xc32/v1.44/bin/bin/../../lib/gcc/pic32mx/4.8.3\libgcc.a(_udivdi3.o)
 .mdebug.abi32  0xa00000d0        0x0 c:/program files (x86)/microchip/xc32/v1.44/bin/bin/../../lib/gcc/pic32mx/4.8.3\libgcc.a(_umoddi3.o)
 .mdebug.abi32  0xa00000d0        0x0 c:/program files (x86)/microchip/xc32/v1.44/bin/bin/../../lib/gcc/pic32mx/4.8.3/../../../../pic32mx/lib\libpic32.a(write.o)
 .mdebug.abi32  0xa00000d0        0x0 c:/program files (x86)/microchip/xc32/v1.44/bin/bin/../../lib/gcc/pic32mx/4.8.3/../../../../pic32mx/lib\libpic32.a(_mon_putc.o)
 .mdebug.abi32  0xa00000d0        0x0 c:/program files (x86)/microchip/xc32/v1.44/bin/bin/../../lib/gcc/pic32mx/4.8.3/../../../../pic32mx/lib\libpic32.a(xc32_uart.o)

.mdebug.abiN32
 *(.mdebug.abiN32)

.mdebug.abi64
 *(.mdebug.abi64)

.mdebug.abiO64
 *(.mdebug.abiO64)

.mdebug.eabi32
 *(.mdebug.eabi32)

.mdebug.eabi64
 *(.mdebug.eabi64)

.gcc_compiled_long32
 *(.gcc_compiled_long32)

.gcc_compiled_long64
 *(.gcc_compiled_long64)

.stab
 *(.stab)

.stabstr
 *(.stabstr)

.stab.excl
 *(.stab.excl)

.stab.exclstr
 *(.stab.exclstr)

.stab.index
 *(.stab.index)

.stab.indexstr
 *(.stab.indexstr)

.comment        0x00000000       0xbb
 *(.comment)
 .comment       0x00000000       0x3c build/default/production/_ext/1361460060/drv_adc_static.o
                                 0x3d (size before relaxing)
 .comment       0x00000000       0x3d build/default/production/_ext/1047219354/drv_oc_mapping.o
 .comment       0x00000000       0x3d build/default/production/_ext/1047219354/drv_oc_static.o
 .comment       0x00000000       0x3d build/default/production/_ext/1407244131/drv_tmr_static.o
 .comment       0x00000000       0x3d build/default/production/_ext/1407244131/drv_tmr_mapping.o
 .comment       0x00000000       0x3d build/default/production/_ext/327000265/drv_usart_mapping.o
 .comment       0x00000000       0x3d build/default/production/_ext/327000265/drv_usart_static.o
 .comment       0x00000000       0x3d build/default/production/_ext/327000265/drv_usart_static_byte_model.o
 .comment       0x00000000       0x3d build/default/production/_ext/639803181/sys_clk_pic32mx.o
 .comment       0x00000000       0x3d build/default/production/_ext/340578644/sys_devcon.o
 .comment       0x00000000       0x3d build/default/production/_ext/340578644/sys_devcon_pic32mx.o
 .comment       0x00000000       0x3d build/default/production/_ext/822048611/sys_ports_static.o
 .comment       0x00000000       0x3d build/default/production/_ext/1688732426/system_init.o
 .comment       0x00000000       0x3d build/default/production/_ext/1688732426/system_interrupt.o
 .comment       0x00000000       0x3d build/default/production/_ext/1688732426/system_exceptions.o
 .comment       0x00000000       0x3d build/default/production/_ext/1688732426/system_tasks.o
 .comment       0x00000000       0x3d build/default/production/_ext/1688732426/rtos_hooks.o
 .comment       0x00000000       0x3d build/default/production/_ext/1360937237/WiFiReceive.o
 .comment       0x00000000       0x3d build/default/production/_ext/1360937237/WiFiTransmit.o
 .comment       0x00000000       0x3d build/default/production/_ext/1360937237/motor_encoder_thread.o
 .comment       0x00000000       0x3d build/default/production/_ext/1360937237/Control.o
 .comment       0x00000000       0x3d build/default/production/_ext/1360937237/main.o
 .comment       0x00000000       0x3d build/default/production/_ext/1360937237/jsmn.o
 .comment       0x00000000       0x3d build/default/production/_ext/1360937237/statemachine.o
 .comment       0x00000000       0x3d build/default/production/_ext/24337685/osal_freertos.o
 .comment       0x00000000       0x3d build/default/production/_ext/122796885/sys_int_pic32.o
 .comment       0x00000000       0x3d build/default/production/_ext/1856876499/heap_1.o
 .comment       0x00000000       0x3d build/default/production/_ext/12131622/port.o
 .comment       0x00000000       0x3d build/default/production/_ext/1128951024/croutine.o
 .comment       0x00000000       0x3d build/default/production/_ext/1128951024/list.o
 .comment       0x00000000       0x3d build/default/production/_ext/1128951024/queue.o
 .comment       0x00000000       0x3d build/default/production/_ext/1128951024/tasks.o
 .comment       0x00000000       0x3d build/default/production/_ext/1128951024/timers.o
 .comment       0x00000000       0x3d build/default/production/_ext/1128951024/event_groups.o
 .comment       0x0000003c       0x18 c:/program files (x86)/microchip/xc32/v1.44/bin/bin/../../lib/gcc/pic32mx/4.8.3/../../../../pic32mx/lib\libpic32.a(memset.o)
                                 0x19 (size before relaxing)
 .comment       0x00000054       0x19 c:/program files (x86)/microchip/xc32/v1.44/bin/bin/../../lib/gcc/pic32mx/4.8.3/../../../../pic32mx/lib\libpic32.a(strlen.o)
                                 0x1a (size before relaxing)
 .comment       0x00000000       0x3d c:/program files (x86)/microchip/xc32/v1.44/bin/bin/../../lib/gcc/pic32mx/4.8.3/../../../../pic32mx/lib\libpic32.a(default-bootstrap-exception-handler.o)
 .comment       0x00000000       0x3d c:/program files (x86)/microchip/xc32/v1.44/bin/bin/../../lib/gcc/pic32mx/4.8.3/../../../../pic32mx/lib\libpic32.a(default-on-reset.o)
 .comment       0x00000000       0x3d c:/program files (x86)/microchip/xc32/v1.44/bin/bin/../../lib/gcc/pic32mx/4.8.3/../../../../pic32mx/lib\libpic32.a(default-on-bootstrap.o)
 .comment       0x00000000       0x3d c:/program files (x86)/microchip/xc32/v1.44/bin/bin/../../lib/gcc/pic32mx/4.8.3/../../../../pic32mx/lib\libpic32.a(defaultinterrupt.o)
 .comment       0x00000000       0x3d c:/program files (x86)/microchip/xc32/v1.44/bin/bin/../../lib/gcc/pic32mx/4.8.3/../../../../pic32mx/lib\libc.a(atoi.o)
 .comment       0x0000006d       0x4e c:/program files (x86)/microchip/xc32/v1.44/bin/bin/../../lib/gcc/pic32mx/4.8.3/../../../../pic32mx/lib\libc.a(ctype.o)
                                 0x8b (size before relaxing)
 .comment       0x00000000       0x3d c:/program files (x86)/microchip/xc32/v1.44/bin/bin/../../lib/gcc/pic32mx/4.8.3/../../../../pic32mx/lib\libc.a(strncmp.o)
 .comment       0x00000000       0x3d c:/program files (x86)/microchip/xc32/v1.44/bin/bin/../../lib/gcc/pic32mx/4.8.3/../../../../pic32mx/lib\libc.a(sprintf_cdnopuxX.eo)
 .comment       0x00000000       0x3d c:/program files (x86)/microchip/xc32/v1.44/bin/bin/../../lib/gcc/pic32mx/4.8.3/../../../../pic32mx/lib\libc.a(doprnt_cdnopuxX.eo)
 .comment       0x00000000       0x3d c:/program files (x86)/microchip/xc32/v1.44/bin/bin/../../lib/gcc/pic32mx/4.8.3/../../../../pic32mx/lib\libc.a(_fputc_simple.o)
 .comment       0x00000000       0x3d c:/program files (x86)/microchip/xc32/v1.44/bin/bin/../../lib/gcc/pic32mx/4.8.3/../../../../pic32mx/lib\libc.a(_iob.o)
 .comment       0x00000000       0x3d c:/program files (x86)/microchip/xc32/v1.44/bin/bin/../../lib/gcc/pic32mx/4.8.3/../../../../pic32mx/lib\libc.a(_flsbuf_simple.o)
 .comment       0x00000000       0x3d c:/program files (x86)/microchip/xc32/v1.44/bin/bin/../../lib/gcc/pic32mx/4.8.3\libgcc.a(_udivdi3.o)
 .comment       0x00000000       0x3d c:/program files (x86)/microchip/xc32/v1.44/bin/bin/../../lib/gcc/pic32mx/4.8.3\libgcc.a(_umoddi3.o)
 .comment       0x00000000       0x3d c:/program files (x86)/microchip/xc32/v1.44/bin/bin/../../lib/gcc/pic32mx/4.8.3/../../../../pic32mx/lib\libpic32.a(write.o)
 .comment       0x00000000       0x3d c:/program files (x86)/microchip/xc32/v1.44/bin/bin/../../lib/gcc/pic32mx/4.8.3/../../../../pic32mx/lib\libpic32.a(_mon_putc.o)
 .comment       0x00000000       0x3d c:/program files (x86)/microchip/xc32/v1.44/bin/bin/../../lib/gcc/pic32mx/4.8.3/../../../../pic32mx/lib\libpic32.a(xc32_uart.o)

.debug
 *(.debug)

.line
 *(.line)

.debug_srcinfo
 *(.debug_srcinfo)

.debug_sfnames
 *(.debug_sfnames)

.debug_aranges  0x00000000     0x12b8
 *(.debug_aranges)
 .debug_aranges
                0x00000000       0x78 build/default/production/_ext/1361460060/drv_adc_static.o
 .debug_aranges
                0x00000078       0x50 build/default/production/_ext/1047219354/drv_oc_mapping.o
 .debug_aranges
                0x000000c8       0xf8 build/default/production/_ext/1047219354/drv_oc_static.o
 .debug_aranges
                0x000001c0      0x200 build/default/production/_ext/1407244131/drv_tmr_static.o
 .debug_aranges
                0x000003c0       0xe8 build/default/production/_ext/1407244131/drv_tmr_mapping.o
 .debug_aranges
                0x000004a8       0xb0 build/default/production/_ext/327000265/drv_usart_mapping.o
 .debug_aranges
                0x00000558       0x88 build/default/production/_ext/327000265/drv_usart_static.o
 .debug_aranges
                0x000005e0       0x48 build/default/production/_ext/327000265/drv_usart_static_byte_model.o
 .debug_aranges
                0x00000628       0x50 build/default/production/_ext/639803181/sys_clk_pic32mx.o
 .debug_aranges
                0x00000678       0x78 build/default/production/_ext/340578644/sys_devcon.o
 .debug_aranges
                0x000006f0       0x20 build/default/production/_ext/340578644/sys_devcon_pic32mx.o
 .debug_aranges
                0x00000710      0x148 build/default/production/_ext/822048611/sys_ports_static.o
 .debug_aranges
                0x00000858       0x20 build/default/production/_ext/1688732426/system_init.o
 .debug_aranges
                0x00000878       0x50 build/default/production/_ext/1688732426/system_interrupt.o
 .debug_aranges
                0x000008c8       0x20 build/default/production/_ext/1688732426/system_exceptions.o
 .debug_aranges
                0x000008e8       0x48 build/default/production/_ext/1688732426/system_tasks.o
 .debug_aranges
                0x00000930       0x88 build/default/production/_ext/1688732426/system_interrupt_a.o
 .debug_aranges
                0x000009b8       0x28 build/default/production/_ext/1688732426/rtos_hooks.o
 .debug_aranges
                0x000009e0       0x60 build/default/production/_ext/1360937237/WiFiReceive.o
 .debug_aranges
                0x00000a40       0x50 build/default/production/_ext/1360937237/WiFiTransmit.o
 .debug_aranges
                0x00000a90       0x80 build/default/production/_ext/1360937237/motor_encoder_thread.o
 .debug_aranges
                0x00000b10       0x30 build/default/production/_ext/1360937237/Control.o
 .debug_aranges
                0x00000b40       0x20 build/default/production/_ext/1360937237/main.o
 .debug_aranges
                0x00000b60       0x28 build/default/production/_ext/1360937237/jsmn.o
 .debug_aranges
                0x00000b88       0x70 build/default/production/_ext/1360937237/statemachine.o
 .debug_aranges
                0x00000bf8       0x88 build/default/production/_ext/24337685/osal_freertos.o
 .debug_aranges
                0x00000c80       0x48 build/default/production/_ext/122796885/sys_int_pic32.o
 .debug_aranges
                0x00000cc8       0x38 build/default/production/_ext/1856876499/heap_1.o
 .debug_aranges
                0x00000d00       0x58 build/default/production/_ext/12131622/port.o
 .debug_aranges
                0x00000d58       0x20 build/default/production/_ext/12131622/port_asm.o
 .debug_aranges
                0x00000d78       0x18 build/default/production/_ext/1128951024/croutine.o
 .debug_aranges
                0x00000d90       0x40 build/default/production/_ext/1128951024/list.o
 .debug_aranges
                0x00000dd0       0xb8 build/default/production/_ext/1128951024/queue.o
 .debug_aranges
                0x00000e88      0x188 build/default/production/_ext/1128951024/tasks.o
 .debug_aranges
                0x00001010       0x88 build/default/production/_ext/1128951024/timers.o
 .debug_aranges
                0x00001098       0x60 build/default/production/_ext/1128951024/event_groups.o
 .debug_aranges
                0x000010f8       0x20 c:/program files (x86)/microchip/xc32/v1.44/bin/bin/../../lib/gcc/pic32mx/4.8.3/../../../../pic32mx/lib\libpic32.a(default-bootstrap-exception-handler.o)
 .debug_aranges
                0x00001118       0x20 c:/program files (x86)/microchip/xc32/v1.44/bin/bin/../../lib/gcc/pic32mx/4.8.3/../../../../pic32mx/lib\libpic32.a(default-on-reset.o)
 .debug_aranges
                0x00001138       0x20 c:/program files (x86)/microchip/xc32/v1.44/bin/bin/../../lib/gcc/pic32mx/4.8.3/../../../../pic32mx/lib\libpic32.a(default-on-bootstrap.o)
 .debug_aranges
                0x00001158       0x20 c:/program files (x86)/microchip/xc32/v1.44/bin/bin/../../lib/gcc/pic32mx/4.8.3/../../../../pic32mx/lib\libpic32.a(defaultinterrupt.o)
 .debug_aranges
                0x00001178       0x20 c:/program files (x86)/microchip/xc32/v1.44/bin/bin/../../lib/gcc/pic32mx/4.8.3/../../../../pic32mx/lib\libc.a(atoi.o)
 .debug_aranges
                0x00001198       0x20 c:/program files (x86)/microchip/xc32/v1.44/bin/bin/../../lib/gcc/pic32mx/4.8.3/../../../../pic32mx/lib\libc.a(strncmp.o)
 .debug_aranges
                0x000011b8       0x20 c:/program files (x86)/microchip/xc32/v1.44/bin/bin/../../lib/gcc/pic32mx/4.8.3/../../../../pic32mx/lib\libc.a(sprintf_cdnopuxX.eo)
 .debug_aranges
                0x000011d8       0x20 c:/program files (x86)/microchip/xc32/v1.44/bin/bin/../../lib/gcc/pic32mx/4.8.3/../../../../pic32mx/lib\libc.a(doprnt_cdnopuxX.eo)
 .debug_aranges
                0x000011f8       0x20 c:/program files (x86)/microchip/xc32/v1.44/bin/bin/../../lib/gcc/pic32mx/4.8.3/../../../../pic32mx/lib\libc.a(_fputc_simple.o)
 .debug_aranges
                0x00001218       0x20 c:/program files (x86)/microchip/xc32/v1.44/bin/bin/../../lib/gcc/pic32mx/4.8.3/../../../../pic32mx/lib\libc.a(_flsbuf_simple.o)
 .debug_aranges
                0x00001238       0x20 c:/program files (x86)/microchip/xc32/v1.44/bin/bin/../../lib/gcc/pic32mx/4.8.3\libgcc.a(_udivdi3.o)
 .debug_aranges
                0x00001258       0x20 c:/program files (x86)/microchip/xc32/v1.44/bin/bin/../../lib/gcc/pic32mx/4.8.3\libgcc.a(_umoddi3.o)
 .debug_aranges
                0x00001278       0x20 c:/program files (x86)/microchip/xc32/v1.44/bin/bin/../../lib/gcc/pic32mx/4.8.3/../../../../pic32mx/lib\libpic32.a(write.o)
 .debug_aranges
                0x00001298       0x20 c:/program files (x86)/microchip/xc32/v1.44/bin/bin/../../lib/gcc/pic32mx/4.8.3/../../../../pic32mx/lib\libpic32.a(_mon_putc.o)

.debug_pubnames
 *(.debug_pubnames)

.debug_info     0x00000000    0x3f8dd
 *(.debug_info .gnu.linkonce.wi.*)
 .debug_info    0x00000000     0x2f65 build/default/production/_ext/1361460060/drv_adc_static.o
 .debug_info    0x00002f65     0x19be build/default/production/_ext/1047219354/drv_oc_mapping.o
 .debug_info    0x00004923     0x1c12 build/default/production/_ext/1047219354/drv_oc_static.o
 .debug_info    0x00006535     0x651b build/default/production/_ext/1407244131/drv_tmr_static.o
 .debug_info    0x0000ca50     0x2011 build/default/production/_ext/1407244131/drv_tmr_mapping.o
 .debug_info    0x0000ea61     0x2359 build/default/production/_ext/327000265/drv_usart_mapping.o
 .debug_info    0x00010dba     0x475d build/default/production/_ext/327000265/drv_usart_static.o
 .debug_info    0x00015517     0x2af6 build/default/production/_ext/327000265/drv_usart_static_byte_model.o
 .debug_info    0x0001800d     0x1e66 build/default/production/_ext/639803181/sys_clk_pic32mx.o
 .debug_info    0x00019e73     0x161b build/default/production/_ext/340578644/sys_devcon.o
 .debug_info    0x0001b48e     0x1760 build/default/production/_ext/340578644/sys_devcon_pic32mx.o
 .debug_info    0x0001cbee     0x40e8 build/default/production/_ext/822048611/sys_ports_static.o
 .debug_info    0x00020cd6     0x3027 build/default/production/_ext/1688732426/system_init.o
 .debug_info    0x00023cfd     0x23b1 build/default/production/_ext/1688732426/system_interrupt.o
 .debug_info    0x000260ae     0x1340 build/default/production/_ext/1688732426/system_exceptions.o
 .debug_info    0x000273ee     0x160f build/default/production/_ext/1688732426/system_tasks.o
 .debug_info    0x000289fd       0x8f build/default/production/_ext/1688732426/system_interrupt_a.o
 .debug_info    0x00028a8c      0x245 build/default/production/_ext/1688732426/rtos_hooks.o
 .debug_info    0x00028cd1     0x28dd build/default/production/_ext/1360937237/WiFiReceive.o
 .debug_info    0x0002b5ae     0x318f build/default/production/_ext/1360937237/WiFiTransmit.o
 .debug_info    0x0002e73d     0x2516 build/default/production/_ext/1360937237/motor_encoder_thread.o
 .debug_info    0x00030c53     0x1921 build/default/production/_ext/1360937237/Control.o
 .debug_info    0x00032574      0x19d build/default/production/_ext/1360937237/main.o
 .debug_info    0x00032711      0x734 build/default/production/_ext/1360937237/jsmn.o
 .debug_info    0x00032e45     0x10f2 build/default/production/_ext/1360937237/statemachine.o
 .debug_info    0x00033f37      0xa38 build/default/production/_ext/24337685/osal_freertos.o
 .debug_info    0x0003496f     0x1420 build/default/production/_ext/122796885/sys_int_pic32.o
 .debug_info    0x00035d8f      0x368 build/default/production/_ext/1856876499/heap_1.o
 .debug_info    0x000360f7     0x1191 build/default/production/_ext/12131622/port.o
 .debug_info    0x00037288       0xb0 build/default/production/_ext/12131622/port_asm.o
 .debug_info    0x00037338      0x162 build/default/production/_ext/1128951024/croutine.o
 .debug_info    0x0003749a      0x45e build/default/production/_ext/1128951024/list.o
 .debug_info    0x000378f8     0x1a07 build/default/production/_ext/1128951024/queue.o
 .debug_info    0x000392ff     0x2a13 build/default/production/_ext/1128951024/tasks.o
 .debug_info    0x0003bd12     0x15b8 build/default/production/_ext/1128951024/timers.o
 .debug_info    0x0003d2ca      0xd35 build/default/production/_ext/1128951024/event_groups.o
 .debug_info    0x0003dfff       0xf5 c:/program files (x86)/microchip/xc32/v1.44/bin/bin/../../lib/gcc/pic32mx/4.8.3/../../../../pic32mx/lib\libpic32.a(default-bootstrap-exception-handler.o)
 .debug_info    0x0003e0f4       0xce c:/program files (x86)/microchip/xc32/v1.44/bin/bin/../../lib/gcc/pic32mx/4.8.3/../../../../pic32mx/lib\libpic32.a(default-on-reset.o)
 .debug_info    0x0003e1c2       0xd6 c:/program files (x86)/microchip/xc32/v1.44/bin/bin/../../lib/gcc/pic32mx/4.8.3/../../../../pic32mx/lib\libpic32.a(default-on-bootstrap.o)
 .debug_info    0x0003e298       0xe8 c:/program files (x86)/microchip/xc32/v1.44/bin/bin/../../lib/gcc/pic32mx/4.8.3/../../../../pic32mx/lib\libpic32.a(defaultinterrupt.o)
 .debug_info    0x0003e380       0xc2 c:/program files (x86)/microchip/xc32/v1.44/bin/bin/../../lib/gcc/pic32mx/4.8.3/../../../../pic32mx/lib\libc.a(atoi.o)
 .debug_info    0x0003e442       0xc8 c:/program files (x86)/microchip/xc32/v1.44/bin/bin/../../lib/gcc/pic32mx/4.8.3/../../../../pic32mx/lib\libc.a(strncmp.o)
 .debug_info    0x0003e50a       0xd2 c:/program files (x86)/microchip/xc32/v1.44/bin/bin/../../lib/gcc/pic32mx/4.8.3/../../../../pic32mx/lib\libc.a(sprintf_cdnopuxX.eo)
 .debug_info    0x0003e5dc       0xd3 c:/program files (x86)/microchip/xc32/v1.44/bin/bin/../../lib/gcc/pic32mx/4.8.3/../../../../pic32mx/lib\libc.a(doprnt_cdnopuxX.eo)
 .debug_info    0x0003e6af       0xc4 c:/program files (x86)/microchip/xc32/v1.44/bin/bin/../../lib/gcc/pic32mx/4.8.3/../../../../pic32mx/lib\libc.a(_fputc_simple.o)
 .debug_info    0x0003e773       0xc7 c:/program files (x86)/microchip/xc32/v1.44/bin/bin/../../lib/gcc/pic32mx/4.8.3/../../../../pic32mx/lib\libc.a(_flsbuf_simple.o)
 .debug_info    0x0003e83a      0x76f c:/program files (x86)/microchip/xc32/v1.44/bin/bin/../../lib/gcc/pic32mx/4.8.3\libgcc.a(_udivdi3.o)
 .debug_info    0x0003efa9      0x7ac c:/program files (x86)/microchip/xc32/v1.44/bin/bin/../../lib/gcc/pic32mx/4.8.3\libgcc.a(_umoddi3.o)
 .debug_info    0x0003f755       0xc0 c:/program files (x86)/microchip/xc32/v1.44/bin/bin/../../lib/gcc/pic32mx/4.8.3/../../../../pic32mx/lib\libpic32.a(write.o)
 .debug_info    0x0003f815       0xc8 c:/program files (x86)/microchip/xc32/v1.44/bin/bin/../../lib/gcc/pic32mx/4.8.3/../../../../pic32mx/lib\libpic32.a(_mon_putc.o)

.debug_abbrev   0x00000000     0x52a1
 *(.debug_abbrev)
 .debug_abbrev  0x00000000      0x266 build/default/production/_ext/1361460060/drv_adc_static.o
 .debug_abbrev  0x00000266      0x1d6 build/default/production/_ext/1047219354/drv_oc_mapping.o
 .debug_abbrev  0x0000043c      0x1c2 build/default/production/_ext/1047219354/drv_oc_static.o
 .debug_abbrev  0x000005fe      0x402 build/default/production/_ext/1407244131/drv_tmr_static.o
 .debug_abbrev  0x00000a00      0x2ff build/default/production/_ext/1407244131/drv_tmr_mapping.o
 .debug_abbrev  0x00000cff      0x243 build/default/production/_ext/327000265/drv_usart_mapping.o
 .debug_abbrev  0x00000f42      0x403 build/default/production/_ext/327000265/drv_usart_static.o
 .debug_abbrev  0x00001345      0x30e build/default/production/_ext/327000265/drv_usart_static_byte_model.o
 .debug_abbrev  0x00001653      0x283 build/default/production/_ext/639803181/sys_clk_pic32mx.o
 .debug_abbrev  0x000018d6      0x27b build/default/production/_ext/340578644/sys_devcon.o
 .debug_abbrev  0x00001b51      0x20f build/default/production/_ext/340578644/sys_devcon_pic32mx.o
 .debug_abbrev  0x00001d60      0x279 build/default/production/_ext/822048611/sys_ports_static.o
 .debug_abbrev  0x00001fd9      0x299 build/default/production/_ext/1688732426/system_init.o
 .debug_abbrev  0x00002272      0x22f build/default/production/_ext/1688732426/system_interrupt.o
 .debug_abbrev  0x000024a1      0x114 build/default/production/_ext/1688732426/system_exceptions.o
 .debug_abbrev  0x000025b5      0x18e build/default/production/_ext/1688732426/system_tasks.o
 .debug_abbrev  0x00002743       0x12 build/default/production/_ext/1688732426/system_interrupt_a.o
 .debug_abbrev  0x00002755       0x97 build/default/production/_ext/1688732426/rtos_hooks.o
 .debug_abbrev  0x000027ec      0x349 build/default/production/_ext/1360937237/WiFiReceive.o
 .debug_abbrev  0x00002b35      0x361 build/default/production/_ext/1360937237/WiFiTransmit.o
 .debug_abbrev  0x00002e96      0x334 build/default/production/_ext/1360937237/motor_encoder_thread.o
 .debug_abbrev  0x000031ca      0x20e build/default/production/_ext/1360937237/Control.o
 .debug_abbrev  0x000033d8       0x93 build/default/production/_ext/1360937237/main.o
 .debug_abbrev  0x0000346b      0x201 build/default/production/_ext/1360937237/jsmn.o
 .debug_abbrev  0x0000366c      0x210 build/default/production/_ext/1360937237/statemachine.o
 .debug_abbrev  0x0000387c      0x1fe build/default/production/_ext/24337685/osal_freertos.o
 .debug_abbrev  0x00003a7a      0x237 build/default/production/_ext/122796885/sys_int_pic32.o
 .debug_abbrev  0x00003cb1      0x13f build/default/production/_ext/1856876499/heap_1.o
 .debug_abbrev  0x00003df0      0x2cf build/default/production/_ext/12131622/port.o
 .debug_abbrev  0x000040bf       0x14 build/default/production/_ext/12131622/port_asm.o
 .debug_abbrev  0x000040d3       0x1b build/default/production/_ext/1128951024/croutine.o
 .debug_abbrev  0x000040ee       0xf1 build/default/production/_ext/1128951024/list.o
 .debug_abbrev  0x000041df      0x2f4 build/default/production/_ext/1128951024/queue.o
 .debug_abbrev  0x000044d3      0x394 build/default/production/_ext/1128951024/tasks.o
 .debug_abbrev  0x00004867      0x341 build/default/production/_ext/1128951024/timers.o
 .debug_abbrev  0x00004ba8      0x29a build/default/production/_ext/1128951024/event_groups.o
 .debug_abbrev  0x00004e42       0x28 c:/program files (x86)/microchip/xc32/v1.44/bin/bin/../../lib/gcc/pic32mx/4.8.3/../../../../pic32mx/lib\libpic32.a(default-bootstrap-exception-handler.o)
 .debug_abbrev  0x00004e6a       0x28 c:/program files (x86)/microchip/xc32/v1.44/bin/bin/../../lib/gcc/pic32mx/4.8.3/../../../../pic32mx/lib\libpic32.a(default-on-reset.o)
 .debug_abbrev  0x00004e92       0x28 c:/program files (x86)/microchip/xc32/v1.44/bin/bin/../../lib/gcc/pic32mx/4.8.3/../../../../pic32mx/lib\libpic32.a(default-on-bootstrap.o)
 .debug_abbrev  0x00004eba       0x28 c:/program files (x86)/microchip/xc32/v1.44/bin/bin/../../lib/gcc/pic32mx/4.8.3/../../../../pic32mx/lib\libpic32.a(defaultinterrupt.o)
 .debug_abbrev  0x00004ee2       0x28 c:/program files (x86)/microchip/xc32/v1.44/bin/bin/../../lib/gcc/pic32mx/4.8.3/../../../../pic32mx/lib\libc.a(atoi.o)
 .debug_abbrev  0x00004f0a       0x28 c:/program files (x86)/microchip/xc32/v1.44/bin/bin/../../lib/gcc/pic32mx/4.8.3/../../../../pic32mx/lib\libc.a(strncmp.o)
 .debug_abbrev  0x00004f32       0x28 c:/program files (x86)/microchip/xc32/v1.44/bin/bin/../../lib/gcc/pic32mx/4.8.3/../../../../pic32mx/lib\libc.a(sprintf_cdnopuxX.eo)
 .debug_abbrev  0x00004f5a       0x28 c:/program files (x86)/microchip/xc32/v1.44/bin/bin/../../lib/gcc/pic32mx/4.8.3/../../../../pic32mx/lib\libc.a(doprnt_cdnopuxX.eo)
 .debug_abbrev  0x00004f82       0x28 c:/program files (x86)/microchip/xc32/v1.44/bin/bin/../../lib/gcc/pic32mx/4.8.3/../../../../pic32mx/lib\libc.a(_fputc_simple.o)
 .debug_abbrev  0x00004faa       0x28 c:/program files (x86)/microchip/xc32/v1.44/bin/bin/../../lib/gcc/pic32mx/4.8.3/../../../../pic32mx/lib\libc.a(_flsbuf_simple.o)
 .debug_abbrev  0x00004fd2      0x138 c:/program files (x86)/microchip/xc32/v1.44/bin/bin/../../lib/gcc/pic32mx/4.8.3\libgcc.a(_udivdi3.o)
 .debug_abbrev  0x0000510a      0x147 c:/program files (x86)/microchip/xc32/v1.44/bin/bin/../../lib/gcc/pic32mx/4.8.3\libgcc.a(_umoddi3.o)
 .debug_abbrev  0x00005251       0x28 c:/program files (x86)/microchip/xc32/v1.44/bin/bin/../../lib/gcc/pic32mx/4.8.3/../../../../pic32mx/lib\libpic32.a(write.o)
 .debug_abbrev  0x00005279       0x28 c:/program files (x86)/microchip/xc32/v1.44/bin/bin/../../lib/gcc/pic32mx/4.8.3/../../../../pic32mx/lib\libpic32.a(_mon_putc.o)

.debug_line     0x00000000     0xa8bb
 *(.debug_line)
 .debug_line    0x00000000      0x658 build/default/production/_ext/1361460060/drv_adc_static.o
 .debug_line    0x00000658      0x42d build/default/production/_ext/1047219354/drv_oc_mapping.o
 .debug_line    0x00000a85      0x556 build/default/production/_ext/1047219354/drv_oc_static.o
 .debug_line    0x00000fdb      0xc7c build/default/production/_ext/1407244131/drv_tmr_static.o
 .debug_line    0x00001c57      0x59b build/default/production/_ext/1407244131/drv_tmr_mapping.o
 .debug_line    0x000021f2      0x598 build/default/production/_ext/327000265/drv_usart_mapping.o
 .debug_line    0x0000278a      0x924 build/default/production/_ext/327000265/drv_usart_static.o
 .debug_line    0x000030ae      0x5b0 build/default/production/_ext/327000265/drv_usart_static_byte_model.o
 .debug_line    0x0000365e      0x5b6 build/default/production/_ext/639803181/sys_clk_pic32mx.o
 .debug_line    0x00003c14      0x659 build/default/production/_ext/340578644/sys_devcon.o
 .debug_line    0x0000426d      0x47d build/default/production/_ext/340578644/sys_devcon_pic32mx.o
 .debug_line    0x000046ea      0x75b build/default/production/_ext/822048611/sys_ports_static.o
 .debug_line    0x00004e45      0x778 build/default/production/_ext/1688732426/system_init.o
 .debug_line    0x000055bd      0x44d build/default/production/_ext/1688732426/system_interrupt.o
 .debug_line    0x00005a0a      0x26b build/default/production/_ext/1688732426/system_exceptions.o
 .debug_line    0x00005c75      0x3c6 build/default/production/_ext/1688732426/system_tasks.o
 .debug_line    0x0000603b      0x178 build/default/production/_ext/1688732426/system_interrupt_a.o
 .debug_line    0x000061b3      0x139 build/default/production/_ext/1688732426/rtos_hooks.o
 .debug_line    0x000062ec      0x600 build/default/production/_ext/1360937237/WiFiReceive.o
 .debug_line    0x000068ec      0x62a build/default/production/_ext/1360937237/WiFiTransmit.o
 .debug_line    0x00006f16      0x690 build/default/production/_ext/1360937237/motor_encoder_thread.o
 .debug_line    0x000075a6      0x3ca build/default/production/_ext/1360937237/Control.o
 .debug_line    0x00007970       0xae build/default/production/_ext/1360937237/main.o
 .debug_line    0x00007a1e      0x1fa build/default/production/_ext/1360937237/jsmn.o
 .debug_line    0x00007c18      0x374 build/default/production/_ext/1360937237/statemachine.o
 .debug_line    0x00007f8c      0x2e4 build/default/production/_ext/24337685/osal_freertos.o
 .debug_line    0x00008270      0x2d1 build/default/production/_ext/122796885/sys_int_pic32.o
 .debug_line    0x00008541      0x216 build/default/production/_ext/1856876499/heap_1.o
 .debug_line    0x00008757      0x23a build/default/production/_ext/12131622/port.o
 .debug_line    0x00008991      0x102 build/default/production/_ext/12131622/port_asm.o
 .debug_line    0x00008a93       0x1d build/default/production/_ext/1128951024/croutine.o
 .debug_line    0x00008ab0      0x1dc build/default/production/_ext/1128951024/list.o
 .debug_line    0x00008c8c      0x4b0 build/default/production/_ext/1128951024/queue.o
 .debug_line    0x0000913c      0x7f6 build/default/production/_ext/1128951024/tasks.o
 .debug_line    0x00009932      0x3ca build/default/production/_ext/1128951024/timers.o
 .debug_line    0x00009cfc      0x325 build/default/production/_ext/1128951024/event_groups.o
 .debug_line    0x0000a021       0xa7 c:/program files (x86)/microchip/xc32/v1.44/bin/bin/../../lib/gcc/pic32mx/4.8.3/../../../../pic32mx/lib\libpic32.a(default-bootstrap-exception-handler.o)
 .debug_line    0x0000a0c8       0x94 c:/program files (x86)/microchip/xc32/v1.44/bin/bin/../../lib/gcc/pic32mx/4.8.3/../../../../pic32mx/lib\libpic32.a(default-on-reset.o)
 .debug_line    0x0000a15c       0x98 c:/program files (x86)/microchip/xc32/v1.44/bin/bin/../../lib/gcc/pic32mx/4.8.3/../../../../pic32mx/lib\libpic32.a(default-on-bootstrap.o)
 .debug_line    0x0000a1f4       0xa6 c:/program files (x86)/microchip/xc32/v1.44/bin/bin/../../lib/gcc/pic32mx/4.8.3/../../../../pic32mx/lib\libpic32.a(defaultinterrupt.o)
 .debug_line    0x0000a29a       0x7e c:/program files (x86)/microchip/xc32/v1.44/bin/bin/../../lib/gcc/pic32mx/4.8.3/../../../../pic32mx/lib\libc.a(atoi.o)
 .debug_line    0x0000a318        0x0 c:/program files (x86)/microchip/xc32/v1.44/bin/bin/../../lib/gcc/pic32mx/4.8.3/../../../../pic32mx/lib\libc.a(ctype.o)
 .debug_line    0x0000a318       0x81 c:/program files (x86)/microchip/xc32/v1.44/bin/bin/../../lib/gcc/pic32mx/4.8.3/../../../../pic32mx/lib\libc.a(strncmp.o)
 .debug_line    0x0000a399       0x81 c:/program files (x86)/microchip/xc32/v1.44/bin/bin/../../lib/gcc/pic32mx/4.8.3/../../../../pic32mx/lib\libc.a(sprintf_cdnopuxX.eo)
 .debug_line    0x0000a41a       0x80 c:/program files (x86)/microchip/xc32/v1.44/bin/bin/../../lib/gcc/pic32mx/4.8.3/../../../../pic32mx/lib\libc.a(doprnt_cdnopuxX.eo)
 .debug_line    0x0000a49a       0x7f c:/program files (x86)/microchip/xc32/v1.44/bin/bin/../../lib/gcc/pic32mx/4.8.3/../../../../pic32mx/lib\libc.a(_fputc_simple.o)
 .debug_line    0x0000a519        0x0 c:/program files (x86)/microchip/xc32/v1.44/bin/bin/../../lib/gcc/pic32mx/4.8.3/../../../../pic32mx/lib\libc.a(_iob.o)
 .debug_line    0x0000a519       0x80 c:/program files (x86)/microchip/xc32/v1.44/bin/bin/../../lib/gcc/pic32mx/4.8.3/../../../../pic32mx/lib\libc.a(_flsbuf_simple.o)
 .debug_line    0x0000a599       0xfd c:/program files (x86)/microchip/xc32/v1.44/bin/bin/../../lib/gcc/pic32mx/4.8.3\libgcc.a(_udivdi3.o)
 .debug_line    0x0000a696      0x10f c:/program files (x86)/microchip/xc32/v1.44/bin/bin/../../lib/gcc/pic32mx/4.8.3\libgcc.a(_umoddi3.o)
 .debug_line    0x0000a7a5       0x89 c:/program files (x86)/microchip/xc32/v1.44/bin/bin/../../lib/gcc/pic32mx/4.8.3/../../../../pic32mx/lib\libpic32.a(write.o)
 .debug_line    0x0000a82e       0x8d c:/program files (x86)/microchip/xc32/v1.44/bin/bin/../../lib/gcc/pic32mx/4.8.3/../../../../pic32mx/lib\libpic32.a(_mon_putc.o)
 .debug_line    0x0000a8bb        0x0 c:/program files (x86)/microchip/xc32/v1.44/bin/bin/../../lib/gcc/pic32mx/4.8.3/../../../../pic32mx/lib\libpic32.a(xc32_uart.o)

.debug_frame    0x00000000     0x271c
 *(.debug_frame)
 .debug_frame   0x00000000       0xd0 build/default/production/_ext/1361460060/drv_adc_static.o
 .debug_frame   0x000000d0       0xa8 build/default/production/_ext/1047219354/drv_oc_mapping.o
 .debug_frame   0x00000178      0x1d0 build/default/production/_ext/1047219354/drv_oc_static.o
 .debug_frame   0x00000348      0x420 build/default/production/_ext/1407244131/drv_tmr_static.o
 .debug_frame   0x00000768      0x218 build/default/production/_ext/1407244131/drv_tmr_mapping.o
 .debug_frame   0x00000980      0x258 build/default/production/_ext/327000265/drv_usart_mapping.o
 .debug_frame   0x00000bd8      0x120 build/default/production/_ext/327000265/drv_usart_static.o
 .debug_frame   0x00000cf8       0x80 build/default/production/_ext/327000265/drv_usart_static_byte_model.o
 .debug_frame   0x00000d78       0xa0 build/default/production/_ext/639803181/sys_clk_pic32mx.o
 .debug_frame   0x00000e18       0xe8 build/default/production/_ext/340578644/sys_devcon.o
 .debug_frame   0x00000f00       0x28 build/default/production/_ext/340578644/sys_devcon_pic32mx.o
 .debug_frame   0x00000f28      0x270 build/default/production/_ext/822048611/sys_ports_static.o
 .debug_frame   0x00001198       0x2c build/default/production/_ext/1688732426/system_init.o
 .debug_frame   0x000011c4       0xa0 build/default/production/_ext/1688732426/system_interrupt.o
 .debug_frame   0x00001264       0x28 build/default/production/_ext/1688732426/system_exceptions.o
 .debug_frame   0x0000128c       0x98 build/default/production/_ext/1688732426/system_tasks.o
 .debug_frame   0x00001324       0x40 build/default/production/_ext/1688732426/rtos_hooks.o
 .debug_frame   0x00001364      0x104 build/default/production/_ext/1360937237/WiFiReceive.o
 .debug_frame   0x00001468       0xb8 build/default/production/_ext/1360937237/WiFiTransmit.o
 .debug_frame   0x00001520      0x154 build/default/production/_ext/1360937237/motor_encoder_thread.o
 .debug_frame   0x00001674       0x60 build/default/production/_ext/1360937237/Control.o
 .debug_frame   0x000016d4       0x28 build/default/production/_ext/1360937237/main.o
 .debug_frame   0x000016fc       0x48 build/default/production/_ext/1360937237/jsmn.o
 .debug_frame   0x00001744      0x138 build/default/production/_ext/1360937237/statemachine.o
 .debug_frame   0x0000187c      0x150 build/default/production/_ext/24337685/osal_freertos.o
 .debug_frame   0x000019cc       0x90 build/default/production/_ext/122796885/sys_int_pic32.o
 .debug_frame   0x00001a5c       0x5c build/default/production/_ext/1856876499/heap_1.o
 .debug_frame   0x00001ab8       0xc0 build/default/production/_ext/12131622/port.o
 .debug_frame   0x00001b78       0x60 build/default/production/_ext/1128951024/list.o
 .debug_frame   0x00001bd8      0x234 build/default/production/_ext/1128951024/queue.o
 .debug_frame   0x00001e0c      0x484 build/default/production/_ext/1128951024/tasks.o
 .debug_frame   0x00002290      0x164 build/default/production/_ext/1128951024/timers.o
 .debug_frame   0x000023f4      0x108 build/default/production/_ext/1128951024/event_groups.o
 .debug_frame   0x000024fc       0x2c c:/program files (x86)/microchip/xc32/v1.44/bin/bin/../../lib/gcc/pic32mx/4.8.3/../../../../pic32mx/lib\libpic32.a(default-bootstrap-exception-handler.o)
 .debug_frame   0x00002528       0x20 c:/program files (x86)/microchip/xc32/v1.44/bin/bin/../../lib/gcc/pic32mx/4.8.3/../../../../pic32mx/lib\libpic32.a(default-on-reset.o)
 .debug_frame   0x00002548       0x20 c:/program files (x86)/microchip/xc32/v1.44/bin/bin/../../lib/gcc/pic32mx/4.8.3/../../../../pic32mx/lib\libpic32.a(default-on-bootstrap.o)
 .debug_frame   0x00002568       0x20 c:/program files (x86)/microchip/xc32/v1.44/bin/bin/../../lib/gcc/pic32mx/4.8.3/../../../../pic32mx/lib\libpic32.a(defaultinterrupt.o)
 .debug_frame   0x00002588       0x20 c:/program files (x86)/microchip/xc32/v1.44/bin/bin/../../lib/gcc/pic32mx/4.8.3/../../../../pic32mx/lib\libc.a(atoi.o)
 .debug_frame   0x000025a8       0x20 c:/program files (x86)/microchip/xc32/v1.44/bin/bin/../../lib/gcc/pic32mx/4.8.3/../../../../pic32mx/lib\libc.a(strncmp.o)
 .debug_frame   0x000025c8       0x28 c:/program files (x86)/microchip/xc32/v1.44/bin/bin/../../lib/gcc/pic32mx/4.8.3/../../../../pic32mx/lib\libc.a(sprintf_cdnopuxX.eo)
 .debug_frame   0x000025f0       0x38 c:/program files (x86)/microchip/xc32/v1.44/bin/bin/../../lib/gcc/pic32mx/4.8.3/../../../../pic32mx/lib\libc.a(doprnt_cdnopuxX.eo)
 .debug_frame   0x00002628       0x2c c:/program files (x86)/microchip/xc32/v1.44/bin/bin/../../lib/gcc/pic32mx/4.8.3/../../../../pic32mx/lib\libc.a(_fputc_simple.o)
 .debug_frame   0x00002654       0x28 c:/program files (x86)/microchip/xc32/v1.44/bin/bin/../../lib/gcc/pic32mx/4.8.3/../../../../pic32mx/lib\libc.a(_flsbuf_simple.o)
 .debug_frame   0x0000267c       0x20 c:/program files (x86)/microchip/xc32/v1.44/bin/bin/../../lib/gcc/pic32mx/4.8.3\libgcc.a(_udivdi3.o)
 .debug_frame   0x0000269c       0x20 c:/program files (x86)/microchip/xc32/v1.44/bin/bin/../../lib/gcc/pic32mx/4.8.3\libgcc.a(_umoddi3.o)
 .debug_frame   0x000026bc       0x38 c:/program files (x86)/microchip/xc32/v1.44/bin/bin/../../lib/gcc/pic32mx/4.8.3/../../../../pic32mx/lib\libpic32.a(write.o)
 .debug_frame   0x000026f4       0x28 c:/program files (x86)/microchip/xc32/v1.44/bin/bin/../../lib/gcc/pic32mx/4.8.3/../../../../pic32mx/lib\libpic32.a(_mon_putc.o)

.debug_str      0x00000000      0x92d
 *(.debug_str)
 .debug_str     0x00000000       0x69 build/default/production/_ext/1361460060/drv_adc_static.o
 .debug_str     0x00000069       0x13 build/default/production/_ext/1047219354/drv_oc_mapping.o
 .debug_str     0x0000007c       0x1f build/default/production/_ext/1047219354/drv_oc_static.o
 .debug_str     0x0000009b       0xa5 build/default/production/_ext/1407244131/drv_tmr_static.o
 .debug_str     0x00000140        0xe build/default/production/_ext/1407244131/drv_tmr_mapping.o
 .debug_str     0x0000014e       0x23 build/default/production/_ext/327000265/drv_usart_mapping.o
 .debug_str     0x00000171       0xe8 build/default/production/_ext/327000265/drv_usart_static.o
 .debug_str     0x00000259       0x18 build/default/production/_ext/327000265/drv_usart_static_byte_model.o
 .debug_str     0x00000271       0x39 build/default/production/_ext/639803181/sys_clk_pic32mx.o
 .debug_str     0x000002aa       0x16 build/default/production/_ext/340578644/sys_devcon.o
 .debug_str     0x000002c0        0x6 build/default/production/_ext/340578644/sys_devcon_pic32mx.o
 .debug_str     0x000002c6       0x55 build/default/production/_ext/822048611/sys_ports_static.o
 .debug_str     0x0000031b       0x2b build/default/production/_ext/1688732426/system_init.o
 .debug_str     0x00000346        0xd build/default/production/_ext/1688732426/system_interrupt.o
 .debug_str     0x00000353        0x0 build/default/production/_ext/1688732426/system_exceptions.o
 .debug_str     0x00000353        0x0 build/default/production/_ext/1688732426/system_tasks.o
 .debug_str     0x00000353        0x9 build/default/production/_ext/1688732426/rtos_hooks.o
 .debug_str     0x0000035c       0x24 build/default/production/_ext/1360937237/WiFiReceive.o
 .debug_str     0x00000380        0xd build/default/production/_ext/1360937237/WiFiTransmit.o
 .debug_str     0x0000038d       0x16 build/default/production/_ext/1360937237/motor_encoder_thread.o
 .debug_str     0x000003a3        0x0 build/default/production/_ext/1360937237/Control.o
 .debug_str     0x000003a3        0x0 build/default/production/_ext/1360937237/main.o
 .debug_str     0x000003a3       0x25 build/default/production/_ext/1360937237/jsmn.o
 .debug_str     0x000003c8       0x1a build/default/production/_ext/1360937237/statemachine.o
 .debug_str     0x000003e2       0x40 build/default/production/_ext/24337685/osal_freertos.o
 .debug_str     0x00000422       0x1d build/default/production/_ext/122796885/sys_int_pic32.o
 .debug_str     0x0000043f       0x1d build/default/production/_ext/1856876499/heap_1.o
 .debug_str     0x0000045c       0x37 build/default/production/_ext/12131622/port.o
 .debug_str     0x00000493        0x0 build/default/production/_ext/1128951024/croutine.o
 .debug_str     0x00000493       0x2b build/default/production/_ext/1128951024/list.o
 .debug_str     0x000004be      0x131 build/default/production/_ext/1128951024/queue.o
 .debug_str     0x000005ef      0x186 build/default/production/_ext/1128951024/tasks.o
 .debug_str     0x00000775       0xd2 build/default/production/_ext/1128951024/timers.o
 .debug_str     0x00000847       0xe6 build/default/production/_ext/1128951024/event_groups.o
 .debug_str     0x0000092d        0x0 c:/program files (x86)/microchip/xc32/v1.44/bin/bin/../../lib/gcc/pic32mx/4.8.3/../../../../pic32mx/lib\libpic32.a(default-bootstrap-exception-handler.o)
 .debug_str     0x0000092d        0x0 c:/program files (x86)/microchip/xc32/v1.44/bin/bin/../../lib/gcc/pic32mx/4.8.3/../../../../pic32mx/lib\libpic32.a(default-on-reset.o)
 .debug_str     0x0000092d        0x0 c:/program files (x86)/microchip/xc32/v1.44/bin/bin/../../lib/gcc/pic32mx/4.8.3/../../../../pic32mx/lib\libpic32.a(default-on-bootstrap.o)
 .debug_str     0x0000092d        0x0 c:/program files (x86)/microchip/xc32/v1.44/bin/bin/../../lib/gcc/pic32mx/4.8.3/../../../../pic32mx/lib\libpic32.a(defaultinterrupt.o)
 .debug_str     0x0000092d        0x0 c:/program files (x86)/microchip/xc32/v1.44/bin/bin/../../lib/gcc/pic32mx/4.8.3/../../../../pic32mx/lib\libc.a(atoi.o)
 .debug_str     0x0000092d        0x0 c:/program files (x86)/microchip/xc32/v1.44/bin/bin/../../lib/gcc/pic32mx/4.8.3/../../../../pic32mx/lib\libc.a(ctype.o)
 .debug_str     0x0000092d        0x0 c:/program files (x86)/microchip/xc32/v1.44/bin/bin/../../lib/gcc/pic32mx/4.8.3/../../../../pic32mx/lib\libc.a(strncmp.o)
 .debug_str     0x0000092d        0x0 c:/program files (x86)/microchip/xc32/v1.44/bin/bin/../../lib/gcc/pic32mx/4.8.3/../../../../pic32mx/lib\libc.a(sprintf_cdnopuxX.eo)
 .debug_str     0x0000092d        0x0 c:/program files (x86)/microchip/xc32/v1.44/bin/bin/../../lib/gcc/pic32mx/4.8.3/../../../../pic32mx/lib\libc.a(doprnt_cdnopuxX.eo)
 .debug_str     0x0000092d        0x0 c:/program files (x86)/microchip/xc32/v1.44/bin/bin/../../lib/gcc/pic32mx/4.8.3/../../../../pic32mx/lib\libc.a(_fputc_simple.o)
 .debug_str     0x0000092d        0x0 c:/program files (x86)/microchip/xc32/v1.44/bin/bin/../../lib/gcc/pic32mx/4.8.3/../../../../pic32mx/lib\libc.a(_iob.o)
 .debug_str     0x0000092d        0x0 c:/program files (x86)/microchip/xc32/v1.44/bin/bin/../../lib/gcc/pic32mx/4.8.3/../../../../pic32mx/lib\libc.a(_flsbuf_simple.o)
 .debug_str     0x0000092d        0x0 c:/program files (x86)/microchip/xc32/v1.44/bin/bin/../../lib/gcc/pic32mx/4.8.3\libgcc.a(_udivdi3.o)
 .debug_str     0x0000092d        0x0 c:/program files (x86)/microchip/xc32/v1.44/bin/bin/../../lib/gcc/pic32mx/4.8.3\libgcc.a(_umoddi3.o)
 .debug_str     0x0000092d        0x0 c:/program files (x86)/microchip/xc32/v1.44/bin/bin/../../lib/gcc/pic32mx/4.8.3/../../../../pic32mx/lib\libpic32.a(write.o)
 .debug_str     0x0000092d        0x0 c:/program files (x86)/microchip/xc32/v1.44/bin/bin/../../lib/gcc/pic32mx/4.8.3/../../../../pic32mx/lib\libpic32.a(_mon_putc.o)
 .debug_str     0x0000092d        0x0 c:/program files (x86)/microchip/xc32/v1.44/bin/bin/../../lib/gcc/pic32mx/4.8.3/../../../../pic32mx/lib\libpic32.a(xc32_uart.o)

.debug_loc      0x00000000     0x9439
 *(.debug_loc)
 .debug_loc     0x00000000       0x42 build/default/production/_ext/1361460060/drv_adc_static.o
 .debug_loc     0x00000042      0x44f build/default/production/_ext/1047219354/drv_oc_mapping.o
 .debug_loc     0x00000491       0x84 build/default/production/_ext/1047219354/drv_oc_static.o
 .debug_loc     0x00000515      0x9df build/default/production/_ext/1407244131/drv_tmr_static.o
 .debug_loc     0x00000ef4      0x755 build/default/production/_ext/1407244131/drv_tmr_mapping.o
 .debug_loc     0x00001649      0x739 build/default/production/_ext/327000265/drv_usart_mapping.o
 .debug_loc     0x00001d82      0x63a build/default/production/_ext/327000265/drv_usart_static.o
 .debug_loc     0x000023bc       0x5f build/default/production/_ext/327000265/drv_usart_static_byte_model.o
 .debug_loc     0x0000241b       0x49 build/default/production/_ext/639803181/sys_clk_pic32mx.o
 .debug_loc     0x00002464       0xf0 build/default/production/_ext/340578644/sys_devcon.o
 .debug_loc     0x00002554       0xda build/default/production/_ext/340578644/sys_devcon_pic32mx.o
 .debug_loc     0x0000262e      0x74e build/default/production/_ext/822048611/sys_ports_static.o
 .debug_loc     0x00002d7c       0x21 build/default/production/_ext/1688732426/system_init.o
 .debug_loc     0x00002d9d       0x50 build/default/production/_ext/1688732426/system_interrupt.o
 .debug_loc     0x00002ded       0x4a build/default/production/_ext/1688732426/rtos_hooks.o
 .debug_loc     0x00002e37      0x31b build/default/production/_ext/1360937237/WiFiReceive.o
 .debug_loc     0x00003152      0x17b build/default/production/_ext/1360937237/WiFiTransmit.o
 .debug_loc     0x000032cd      0x404 build/default/production/_ext/1360937237/motor_encoder_thread.o
 .debug_loc     0x000036d1       0x57 build/default/production/_ext/1360937237/Control.o
 .debug_loc     0x00003728      0x59d build/default/production/_ext/1360937237/jsmn.o
 .debug_loc     0x00003cc5      0x685 build/default/production/_ext/1360937237/statemachine.o
 .debug_loc     0x0000434a      0x3e6 build/default/production/_ext/24337685/osal_freertos.o
 .debug_loc     0x00004730       0x7c build/default/production/_ext/122796885/sys_int_pic32.o
 .debug_loc     0x000047ac       0x49 build/default/production/_ext/1856876499/heap_1.o
 .debug_loc     0x000047f5       0xf5 build/default/production/_ext/12131622/port.o
 .debug_loc     0x000048ea       0x31 build/default/production/_ext/1128951024/list.o
 .debug_loc     0x0000491b      0xf55 build/default/production/_ext/1128951024/queue.o
 .debug_loc     0x00005870     0x1581 build/default/production/_ext/1128951024/tasks.o
 .debug_loc     0x00006df1      0x833 build/default/production/_ext/1128951024/timers.o
 .debug_loc     0x00007624      0x8ea build/default/production/_ext/1128951024/event_groups.o
 .debug_loc     0x00007f0e       0x2c c:/program files (x86)/microchip/xc32/v1.44/bin/bin/../../lib/gcc/pic32mx/4.8.3/../../../../pic32mx/lib\libpic32.a(default-bootstrap-exception-handler.o)
 .debug_loc     0x00007f3a      0xa6a c:/program files (x86)/microchip/xc32/v1.44/bin/bin/../../lib/gcc/pic32mx/4.8.3\libgcc.a(_udivdi3.o)
 .debug_loc     0x000089a4      0xa3d c:/program files (x86)/microchip/xc32/v1.44/bin/bin/../../lib/gcc/pic32mx/4.8.3\libgcc.a(_umoddi3.o)
 .debug_loc     0x000093e1       0x38 c:/program files (x86)/microchip/xc32/v1.44/bin/bin/../../lib/gcc/pic32mx/4.8.3/../../../../pic32mx/lib\libpic32.a(write.o)
 .debug_loc     0x00009419       0x20 c:/program files (x86)/microchip/xc32/v1.44/bin/bin/../../lib/gcc/pic32mx/4.8.3/../../../../pic32mx/lib\libpic32.a(_mon_putc.o)

.debug_macinfo
 *(.debug_macinfo)

.debug_weaknames
 *(.debug_weaknames)

.debug_funcnames
 *(.debug_funcnames)

.debug_typenames
 *(.debug_typenames)

.debug_varnames
 *(.debug_varnames)

.debug_pubtypes
 *(.debug_pubtypes)

.debug_ranges   0x00000000     0x1578
 *(.debug_ranges)
 .debug_ranges  0x00000000       0x68 build/default/production/_ext/1361460060/drv_adc_static.o
 .debug_ranges  0x00000068       0x40 build/default/production/_ext/1047219354/drv_oc_mapping.o
 .debug_ranges  0x000000a8       0xe8 build/default/production/_ext/1047219354/drv_oc_static.o
 .debug_ranges  0x00000190      0x1f0 build/default/production/_ext/1407244131/drv_tmr_static.o
 .debug_ranges  0x00000380       0xd8 build/default/production/_ext/1407244131/drv_tmr_mapping.o
 .debug_ranges  0x00000458       0xa0 build/default/production/_ext/327000265/drv_usart_mapping.o
 .debug_ranges  0x000004f8       0xa8 build/default/production/_ext/327000265/drv_usart_static.o
 .debug_ranges  0x000005a0       0x38 build/default/production/_ext/327000265/drv_usart_static_byte_model.o
 .debug_ranges  0x000005d8       0x40 build/default/production/_ext/639803181/sys_clk_pic32mx.o
 .debug_ranges  0x00000618       0x68 build/default/production/_ext/340578644/sys_devcon.o
 .debug_ranges  0x00000680       0x10 build/default/production/_ext/340578644/sys_devcon_pic32mx.o
 .debug_ranges  0x00000690      0x138 build/default/production/_ext/822048611/sys_ports_static.o
 .debug_ranges  0x000007c8       0x10 build/default/production/_ext/1688732426/system_init.o
 .debug_ranges  0x000007d8       0x40 build/default/production/_ext/1688732426/system_interrupt.o
 .debug_ranges  0x00000818       0x10 build/default/production/_ext/1688732426/system_exceptions.o
 .debug_ranges  0x00000828       0x38 build/default/production/_ext/1688732426/system_tasks.o
 .debug_ranges  0x00000860       0x80 build/default/production/_ext/1688732426/system_interrupt_a.o
 .debug_ranges  0x000008e0       0x18 build/default/production/_ext/1688732426/rtos_hooks.o
 .debug_ranges  0x000008f8       0x88 build/default/production/_ext/1360937237/WiFiReceive.o
 .debug_ranges  0x00000980       0x70 build/default/production/_ext/1360937237/WiFiTransmit.o
 .debug_ranges  0x000009f0       0x70 build/default/production/_ext/1360937237/motor_encoder_thread.o
 .debug_ranges  0x00000a60       0xb8 build/default/production/_ext/1360937237/Control.o
 .debug_ranges  0x00000b18       0x10 build/default/production/_ext/1360937237/main.o
 .debug_ranges  0x00000b28      0x1a8 build/default/production/_ext/1360937237/jsmn.o
 .debug_ranges  0x00000cd0       0x60 build/default/production/_ext/1360937237/statemachine.o
 .debug_ranges  0x00000d30       0x78 build/default/production/_ext/24337685/osal_freertos.o
 .debug_ranges  0x00000da8       0x50 build/default/production/_ext/122796885/sys_int_pic32.o
 .debug_ranges  0x00000df8       0x28 build/default/production/_ext/1856876499/heap_1.o
 .debug_ranges  0x00000e20       0x48 build/default/production/_ext/12131622/port.o
 .debug_ranges  0x00000e68       0x30 build/default/production/_ext/1128951024/list.o
 .debug_ranges  0x00000e98      0x138 build/default/production/_ext/1128951024/queue.o
 .debug_ranges  0x00000fd0      0x1c0 build/default/production/_ext/1128951024/tasks.o
 .debug_ranges  0x00001190      0x120 build/default/production/_ext/1128951024/timers.o
 .debug_ranges  0x000012b0       0x98 build/default/production/_ext/1128951024/event_groups.o
 .debug_ranges  0x00001348       0x10 c:/program files (x86)/microchip/xc32/v1.44/bin/bin/../../lib/gcc/pic32mx/4.8.3/../../../../pic32mx/lib\libpic32.a(default-bootstrap-exception-handler.o)
 .debug_ranges  0x00001358       0x10 c:/program files (x86)/microchip/xc32/v1.44/bin/bin/../../lib/gcc/pic32mx/4.8.3/../../../../pic32mx/lib\libpic32.a(default-on-reset.o)
 .debug_ranges  0x00001368       0x10 c:/program files (x86)/microchip/xc32/v1.44/bin/bin/../../lib/gcc/pic32mx/4.8.3/../../../../pic32mx/lib\libpic32.a(default-on-bootstrap.o)
 .debug_ranges  0x00001378       0x10 c:/program files (x86)/microchip/xc32/v1.44/bin/bin/../../lib/gcc/pic32mx/4.8.3/../../../../pic32mx/lib\libpic32.a(defaultinterrupt.o)
 .debug_ranges  0x00001388       0x10 c:/program files (x86)/microchip/xc32/v1.44/bin/bin/../../lib/gcc/pic32mx/4.8.3/../../../../pic32mx/lib\libc.a(atoi.o)
 .debug_ranges  0x00001398       0x10 c:/program files (x86)/microchip/xc32/v1.44/bin/bin/../../lib/gcc/pic32mx/4.8.3/../../../../pic32mx/lib\libc.a(strncmp.o)
 .debug_ranges  0x000013a8       0x10 c:/program files (x86)/microchip/xc32/v1.44/bin/bin/../../lib/gcc/pic32mx/4.8.3/../../../../pic32mx/lib\libc.a(sprintf_cdnopuxX.eo)
 .debug_ranges  0x000013b8       0x10 c:/program files (x86)/microchip/xc32/v1.44/bin/bin/../../lib/gcc/pic32mx/4.8.3/../../../../pic32mx/lib\libc.a(doprnt_cdnopuxX.eo)
 .debug_ranges  0x000013c8       0x10 c:/program files (x86)/microchip/xc32/v1.44/bin/bin/../../lib/gcc/pic32mx/4.8.3/../../../../pic32mx/lib\libc.a(_fputc_simple.o)
 .debug_ranges  0x000013d8       0x10 c:/program files (x86)/microchip/xc32/v1.44/bin/bin/../../lib/gcc/pic32mx/4.8.3/../../../../pic32mx/lib\libc.a(_flsbuf_simple.o)
 .debug_ranges  0x000013e8       0x98 c:/program files (x86)/microchip/xc32/v1.44/bin/bin/../../lib/gcc/pic32mx/4.8.3\libgcc.a(_udivdi3.o)
 .debug_ranges  0x00001480       0xd8 c:/program files (x86)/microchip/xc32/v1.44/bin/bin/../../lib/gcc/pic32mx/4.8.3\libgcc.a(_umoddi3.o)
 .debug_ranges  0x00001558       0x10 c:/program files (x86)/microchip/xc32/v1.44/bin/bin/../../lib/gcc/pic32mx/4.8.3/../../../../pic32mx/lib\libpic32.a(write.o)
 .debug_ranges  0x00001568       0x10 c:/program files (x86)/microchip/xc32/v1.44/bin/bin/../../lib/gcc/pic32mx/4.8.3/../../../../pic32mx/lib\libpic32.a(_mon_putc.o)

.gnu.attributes
                0x00000000       0x10
 *(.gnu.attributes)
 .gnu.attributes
                0x00000000       0x10 build/default/production/_ext/1361460060/drv_adc_static.o
 .gnu.attributes
                0x00000010       0x10 build/default/production/_ext/1047219354/drv_oc_mapping.o
 .gnu.attributes
                0x00000020       0x10 build/default/production/_ext/1047219354/drv_oc_static.o
 .gnu.attributes
                0x00000030       0x10 build/default/production/_ext/1407244131/drv_tmr_static.o
 .gnu.attributes
                0x00000040       0x10 build/default/production/_ext/1407244131/drv_tmr_mapping.o
 .gnu.attributes
                0x00000050       0x10 build/default/production/_ext/327000265/drv_usart_mapping.o
 .gnu.attributes
                0x00000060       0x10 build/default/production/_ext/327000265/drv_usart_static.o
 .gnu.attributes
                0x00000070       0x10 build/default/production/_ext/327000265/drv_usart_static_byte_model.o
 .gnu.attributes
                0x00000080       0x10 build/default/production/_ext/639803181/sys_clk_pic32mx.o
 .gnu.attributes
                0x00000090       0x10 build/default/production/_ext/340578644/sys_devcon.o
 .gnu.attributes
                0x000000a0       0x10 build/default/production/_ext/340578644/sys_devcon_pic32mx.o
 .gnu.attributes
                0x000000b0       0x10 build/default/production/_ext/822048611/sys_ports_static.o
 .gnu.attributes
                0x000000c0       0x10 build/default/production/_ext/1688732426/system_init.o
 .gnu.attributes
                0x000000d0       0x10 build/default/production/_ext/1688732426/system_interrupt.o
 .gnu.attributes
                0x000000e0       0x10 build/default/production/_ext/1688732426/system_exceptions.o
 .gnu.attributes
                0x000000f0       0x10 build/default/production/_ext/1688732426/system_tasks.o
 .gnu.attributes
                0x00000100       0x10 build/default/production/_ext/1688732426/rtos_hooks.o
 .gnu.attributes
                0x00000110       0x10 build/default/production/_ext/1360937237/WiFiReceive.o
 .gnu.attributes
                0x00000120       0x10 build/default/production/_ext/1360937237/WiFiTransmit.o
 .gnu.attributes
                0x00000130       0x10 build/default/production/_ext/1360937237/motor_encoder_thread.o
 .gnu.attributes
                0x00000140       0x10 build/default/production/_ext/1360937237/Control.o
 .gnu.attributes
                0x00000150       0x10 build/default/production/_ext/1360937237/main.o
 .gnu.attributes
                0x00000160       0x10 build/default/production/_ext/1360937237/jsmn.o
 .gnu.attributes
                0x00000170       0x10 build/default/production/_ext/1360937237/statemachine.o
 .gnu.attributes
                0x00000180       0x10 build/default/production/_ext/24337685/osal_freertos.o
 .gnu.attributes
                0x00000190       0x10 build/default/production/_ext/122796885/sys_int_pic32.o
 .gnu.attributes
                0x000001a0       0x10 build/default/production/_ext/1856876499/heap_1.o
 .gnu.attributes
                0x000001b0       0x10 build/default/production/_ext/12131622/port.o
 .gnu.attributes
                0x000001c0       0x10 build/default/production/_ext/1128951024/croutine.o
 .gnu.attributes
                0x000001d0       0x10 build/default/production/_ext/1128951024/list.o
 .gnu.attributes
                0x000001e0       0x10 build/default/production/_ext/1128951024/queue.o
 .gnu.attributes
                0x000001f0       0x10 build/default/production/_ext/1128951024/tasks.o
 .gnu.attributes
                0x00000200       0x10 build/default/production/_ext/1128951024/timers.o
 .gnu.attributes
                0x00000210       0x10 build/default/production/_ext/1128951024/event_groups.o
 .gnu.attributes
                0x00000220       0x10 c:/program files (x86)/microchip/xc32/v1.44/bin/bin/../../lib/gcc/pic32mx/4.8.3/../../../../pic32mx/lib\libpic32.a(default-bootstrap-exception-handler.o)
 .gnu.attributes
                0x00000230       0x10 c:/program files (x86)/microchip/xc32/v1.44/bin/bin/../../lib/gcc/pic32mx/4.8.3/../../../../pic32mx/lib\libpic32.a(default-on-reset.o)
 .gnu.attributes
                0x00000240       0x10 c:/program files (x86)/microchip/xc32/v1.44/bin/bin/../../lib/gcc/pic32mx/4.8.3/../../../../pic32mx/lib\libpic32.a(default-on-bootstrap.o)
 .gnu.attributes
                0x00000250       0x10 c:/program files (x86)/microchip/xc32/v1.44/bin/bin/../../lib/gcc/pic32mx/4.8.3/../../../../pic32mx/lib\libpic32.a(defaultinterrupt.o)
 .gnu.attributes
                0x00000260       0x10 c:/program files (x86)/microchip/xc32/v1.44/bin/bin/../../lib/gcc/pic32mx/4.8.3/../../../../pic32mx/lib\libc.a(atoi.o)
 .gnu.attributes
                0x00000270       0x10 c:/program files (x86)/microchip/xc32/v1.44/bin/bin/../../lib/gcc/pic32mx/4.8.3/../../../../pic32mx/lib\libc.a(ctype.o)
 .gnu.attributes
                0x00000280       0x10 c:/program files (x86)/microchip/xc32/v1.44/bin/bin/../../lib/gcc/pic32mx/4.8.3/../../../../pic32mx/lib\libc.a(strncmp.o)
 .gnu.attributes
                0x00000290       0x10 c:/program files (x86)/microchip/xc32/v1.44/bin/bin/../../lib/gcc/pic32mx/4.8.3/../../../../pic32mx/lib\libc.a(sprintf_cdnopuxX.eo)
 .gnu.attributes
                0x000002a0       0x10 c:/program files (x86)/microchip/xc32/v1.44/bin/bin/../../lib/gcc/pic32mx/4.8.3/../../../../pic32mx/lib\libc.a(doprnt_cdnopuxX.eo)
 .gnu.attributes
                0x000002b0       0x10 c:/program files (x86)/microchip/xc32/v1.44/bin/bin/../../lib/gcc/pic32mx/4.8.3/../../../../pic32mx/lib\libc.a(_fputc_simple.o)
 .gnu.attributes
                0x000002c0       0x10 c:/program files (x86)/microchip/xc32/v1.44/bin/bin/../../lib/gcc/pic32mx/4.8.3/../../../../pic32mx/lib\libc.a(_iob.o)
 .gnu.attributes
                0x000002d0       0x10 c:/program files (x86)/microchip/xc32/v1.44/bin/bin/../../lib/gcc/pic32mx/4.8.3/../../../../pic32mx/lib\libc.a(_flsbuf_simple.o)
 .gnu.attributes
                0x000002e0       0x10 c:/program files (x86)/microchip/xc32/v1.44/bin/bin/../../lib/gcc/pic32mx/4.8.3\libgcc.a(_udivdi3.o)
 .gnu.attributes
                0x000002f0       0x10 c:/program files (x86)/microchip/xc32/v1.44/bin/bin/../../lib/gcc/pic32mx/4.8.3\libgcc.a(_umoddi3.o)
 .gnu.attributes
                0x00000300       0x10 c:/program files (x86)/microchip/xc32/v1.44/bin/bin/../../lib/gcc/pic32mx/4.8.3/../../../../pic32mx/lib\libpic32.a(write.o)
 .gnu.attributes
                0x00000310       0x10 c:/program files (x86)/microchip/xc32/v1.44/bin/bin/../../lib/gcc/pic32mx/4.8.3/../../../../pic32mx/lib\libpic32.a(_mon_putc.o)
 .gnu.attributes
                0x00000320       0x10 c:/program files (x86)/microchip/xc32/v1.44/bin/bin/../../lib/gcc/pic32mx/4.8.3/../../../../pic32mx/lib\libpic32.a(xc32_uart.o)
LOAD c:/program files (x86)/microchip/xc32/v1.44/bin/bin/../../lib/gcc/pic32mx/4.8.3\libgcc.a
START GROUP
LOAD c:/program files (x86)/microchip/xc32/v1.44/bin/bin/../../lib/gcc/pic32mx/4.8.3/../../../../pic32mx/lib\libpic32.a
LOAD c:/program files (x86)/microchip/xc32/v1.44/bin/bin/../../lib/gcc/pic32mx/4.8.3/../../../../pic32mx/lib\libdebug.a
LOAD c:/program files (x86)/microchip/xc32/v1.44/bin/bin/../../lib/gcc/pic32mx/4.8.3/../../../../pic32mx/lib\libpic32.a
LOAD c:/program files (x86)/microchip/xc32/v1.44/bin/bin/../../lib/gcc/pic32mx/4.8.3/../../../../pic32mx/lib\libc.a
LOAD c:/program files (x86)/microchip/xc32/v1.44/bin/bin/../../lib/gcc/pic32mx/4.8.3/../../../../pic32mx/lib\libc.a
LOAD c:/program files (x86)/microchip/xc32/v1.44/bin/bin/../../lib/gcc/pic32mx/4.8.3/../../../../pic32mx/lib\libm.a
LOAD c:/program files (x86)/microchip/xc32/v1.44/bin/bin/../../lib/gcc/pic32mx/4.8.3/../../../../pic32mx/lib\libe.a
LOAD c:/program files (x86)/microchip/xc32/v1.44/bin/bin/../../lib/gcc/pic32mx/4.8.3/../../../../pic32mx/lib\libdsp.a
LOAD c:/program files (x86)/microchip/xc32/v1.44/bin/bin/../../lib/gcc/pic32mx/4.8.3\libgcc.a
LOAD c:/program files (x86)/microchip/xc32/v1.44/bin/bin/../../lib/gcc/pic32mx/4.8.3/../../../../pic32mx/lib\libpic32.a
END GROUP
LOAD c:/program files (x86)/microchip/xc32/v1.44/bin/bin/../../lib/gcc/pic32mx/4.8.3\libgcc.a
OUTPUT(dist/default/production/Cipango.X.production.elf elf32-tradlittlemips)
LOAD stack
LOAD data_init

.reginfo        0x00000000       0x18
 .reginfo       0x00000000       0x18 c:/program files (x86)/microchip/xc32/v1.44/bin/bin/../../lib/gcc/pic32mx/4.8.3/../../../../pic32mx/lib/./proc/32MX795F512L/crt0_mips32r2.o

.stack          0xa0019968      0x400
 .stack         0xa0019968      0x400 stack

.bss            0xa00000d0    0x19640
 .bss           0xa00000d0    0x19000 build/default/production/_ext/1856876499/heap_1.o
 .bss           0xa00190d0      0x640 build/default/production/_ext/12131622/port.o
                0xa00190d0                xISRStack

.bss            0xa0019710       0xc8
 .bss           0xa0019710       0xc8 build/default/production/_ext/1128951024/tasks.o

.data           0xa00197d8       0xec
 .data          0xa00197d8       0xa4 c:/program files (x86)/microchip/xc32/v1.44/bin/bin/../../lib/gcc/pic32mx/4.8.3/../../../../pic32mx/lib\libc.a(_iob.o)
                0xa00197d8                _Files
                0xa00197dc                _iob
 .data          0xa001987c       0x48 build/default/production/_ext/1360937237/motor_encoder_thread.o
                0xa001987c                pid_right
                0xa00198a0                pid_left

.bss            0xa00198c4       0x6c
 .bss           0xa00198c4       0x44 c:/program files (x86)/microchip/xc32/v1.44/bin/bin/../../lib/gcc/pic32mx/4.8.3/../../../../pic32mx/lib\libc.a(_iob.o)
                0xa00198c4                _sobuf
                0xa00198e4                _sibuf
                0xa0019904                _outdone
 .bss           0xa0019908       0x28 build/default/production/_ext/1128951024/timers.o

.bss            0xa0019930        0xc
 .bss           0xa0019930        0xc build/default/production/_ext/1360937237/WiFiReceive.o
                0xa0019930                msgstat

.bss            0x00000000        0x0
 .bss           0x00000000        0x0 c:/program files (x86)/microchip/xc32/v1.44/bin/bin/../../lib/gcc/pic32mx/4.8.3/../../../../pic32mx/lib\libpic32.a(xc32_uart.o)

.data           0x00000000        0x0
 .data          0x00000000        0x0 c:/program files (x86)/microchip/xc32/v1.44/bin/bin/../../lib/gcc/pic32mx/4.8.3/../../../../pic32mx/lib\libpic32.a(xc32_uart.o)

.bss            0x00000000        0x0
 .bss           0x00000000        0x0 c:/program files (x86)/microchip/xc32/v1.44/bin/bin/../../lib/gcc/pic32mx/4.8.3/../../../../pic32mx/lib\libpic32.a(_mon_putc.o)

.data           0x00000000        0x0
 .data          0x00000000        0x0 c:/program files (x86)/microchip/xc32/v1.44/bin/bin/../../lib/gcc/pic32mx/4.8.3/../../../../pic32mx/lib\libpic32.a(_mon_putc.o)

.bss            0x00000000        0x0
 .bss           0x00000000        0x0 c:/program files (x86)/microchip/xc32/v1.44/bin/bin/../../lib/gcc/pic32mx/4.8.3/../../../../pic32mx/lib\libpic32.a(write.o)

.data           0x00000000        0x0
 .data          0x00000000        0x0 c:/program files (x86)/microchip/xc32/v1.44/bin/bin/../../lib/gcc/pic32mx/4.8.3/../../../../pic32mx/lib\libpic32.a(write.o)

.bss            0x00000000        0x0
 .bss           0x00000000        0x0 c:/program files (x86)/microchip/xc32/v1.44/bin/bin/../../lib/gcc/pic32mx/4.8.3\libgcc.a(_umoddi3.o)

.data           0x00000000        0x0
 .data          0x00000000        0x0 c:/program files (x86)/microchip/xc32/v1.44/bin/bin/../../lib/gcc/pic32mx/4.8.3\libgcc.a(_umoddi3.o)

.bss            0x00000000        0x0
 .bss           0x00000000        0x0 c:/program files (x86)/microchip/xc32/v1.44/bin/bin/../../lib/gcc/pic32mx/4.8.3\libgcc.a(_udivdi3.o)

.data           0x00000000        0x0
 .data          0x00000000        0x0 c:/program files (x86)/microchip/xc32/v1.44/bin/bin/../../lib/gcc/pic32mx/4.8.3\libgcc.a(_udivdi3.o)

.bss            0x00000000        0x0
 .bss           0x00000000        0x0 c:/program files (x86)/microchip/xc32/v1.44/bin/bin/../../lib/gcc/pic32mx/4.8.3/../../../../pic32mx/lib\libm.a(sitofp.o)

.data           0x00000000        0x0
 .data          0x00000000        0x0 c:/program files (x86)/microchip/xc32/v1.44/bin/bin/../../lib/gcc/pic32mx/4.8.3/../../../../pic32mx/lib\libm.a(sitofp.o)

.bss            0x00000000        0x0
 .bss           0x00000000        0x0 c:/program files (x86)/microchip/xc32/v1.44/bin/bin/../../lib/gcc/pic32mx/4.8.3/../../../../pic32mx/lib\libm.a(fptoli.o)

.data           0x00000000        0x0
 .data          0x00000000        0x0 c:/program files (x86)/microchip/xc32/v1.44/bin/bin/../../lib/gcc/pic32mx/4.8.3/../../../../pic32mx/lib\libm.a(fptoli.o)

.bss            0x00000000        0x0
 .bss           0x00000000        0x0 c:/program files (x86)/microchip/xc32/v1.44/bin/bin/../../lib/gcc/pic32mx/4.8.3/../../../../pic32mx/lib\libm.a(fpcmp.o)

.data           0x00000000        0x0
 .data          0x00000000        0x0 c:/program files (x86)/microchip/xc32/v1.44/bin/bin/../../lib/gcc/pic32mx/4.8.3/../../../../pic32mx/lib\libm.a(fpcmp.o)

.bss            0x00000000        0x0
 .bss           0x00000000        0x0 c:/program files (x86)/microchip/xc32/v1.44/bin/bin/../../lib/gcc/pic32mx/4.8.3/../../../../pic32mx/lib\libm.a(fp32subadd.o)

.data           0x00000000        0x0
 .data          0x00000000        0x0 c:/program files (x86)/microchip/xc32/v1.44/bin/bin/../../lib/gcc/pic32mx/4.8.3/../../../../pic32mx/lib\libm.a(fp32subadd.o)

.bss            0x00000000        0x0
 .bss           0x00000000        0x0 c:/program files (x86)/microchip/xc32/v1.44/bin/bin/../../lib/gcc/pic32mx/4.8.3/../../../../pic32mx/lib\libm.a(fp32mul.o)

.data           0x00000000        0x0
 .data          0x00000000        0x0 c:/program files (x86)/microchip/xc32/v1.44/bin/bin/../../lib/gcc/pic32mx/4.8.3/../../../../pic32mx/lib\libm.a(fp32mul.o)

.bss            0x00000000        0x0
 .bss           0x00000000        0x0 c:/program files (x86)/microchip/xc32/v1.44/bin/bin/../../lib/gcc/pic32mx/4.8.3/../../../../pic32mx/lib\libm.a(fp32div.o)

.data           0x00000000        0x0
 .data          0x00000000        0x0 c:/program files (x86)/microchip/xc32/v1.44/bin/bin/../../lib/gcc/pic32mx/4.8.3/../../../../pic32mx/lib\libm.a(fp32div.o)

.bss            0x00000000        0x0
 .bss           0x00000000        0x0 c:/program files (x86)/microchip/xc32/v1.44/bin/bin/../../lib/gcc/pic32mx/4.8.3/../../../../pic32mx/lib\libc.a(_flsbuf_simple.o)

.data           0x00000000        0x0
 .data          0x00000000        0x0 c:/program files (x86)/microchip/xc32/v1.44/bin/bin/../../lib/gcc/pic32mx/4.8.3/../../../../pic32mx/lib\libc.a(_flsbuf_simple.o)

.bss            0x00000000        0x0
 .bss           0x00000000        0x0 c:/program files (x86)/microchip/xc32/v1.44/bin/bin/../../lib/gcc/pic32mx/4.8.3/../../../../pic32mx/lib\libc.a(_fputc_simple.o)

.data           0x00000000        0x0
 .data          0x00000000        0x0 c:/program files (x86)/microchip/xc32/v1.44/bin/bin/../../lib/gcc/pic32mx/4.8.3/../../../../pic32mx/lib\libc.a(_fputc_simple.o)

.bss            0x00000000        0x0
 .bss           0x00000000        0x0 c:/program files (x86)/microchip/xc32/v1.44/bin/bin/../../lib/gcc/pic32mx/4.8.3/../../../../pic32mx/lib\libc.a(doprnt_cdnopuxX.eo)

.data           0x00000000        0x0
 .data          0x00000000        0x0 c:/program files (x86)/microchip/xc32/v1.44/bin/bin/../../lib/gcc/pic32mx/4.8.3/../../../../pic32mx/lib\libc.a(doprnt_cdnopuxX.eo)

.bss            0x00000000        0x0
 .bss           0x00000000        0x0 c:/program files (x86)/microchip/xc32/v1.44/bin/bin/../../lib/gcc/pic32mx/4.8.3/../../../../pic32mx/lib\libc.a(sprintf_cdnopuxX.eo)

.data           0x00000000        0x0
 .data          0x00000000        0x0 c:/program files (x86)/microchip/xc32/v1.44/bin/bin/../../lib/gcc/pic32mx/4.8.3/../../../../pic32mx/lib\libc.a(sprintf_cdnopuxX.eo)

.bss            0x00000000        0x0
 .bss           0x00000000        0x0 c:/program files (x86)/microchip/xc32/v1.44/bin/bin/../../lib/gcc/pic32mx/4.8.3/../../../../pic32mx/lib\libc.a(strncmp.o)

.data           0x00000000        0x0
 .data          0x00000000        0x0 c:/program files (x86)/microchip/xc32/v1.44/bin/bin/../../lib/gcc/pic32mx/4.8.3/../../../../pic32mx/lib\libc.a(strncmp.o)

.bss            0x00000000        0x0
 .bss           0x00000000        0x0 c:/program files (x86)/microchip/xc32/v1.44/bin/bin/../../lib/gcc/pic32mx/4.8.3/../../../../pic32mx/lib\libc.a(ctype.o)

.data           0x00000000        0x0
 .data          0x00000000        0x0 c:/program files (x86)/microchip/xc32/v1.44/bin/bin/../../lib/gcc/pic32mx/4.8.3/../../../../pic32mx/lib\libc.a(ctype.o)

.bss            0x00000000        0x0
 .bss           0x00000000        0x0 c:/program files (x86)/microchip/xc32/v1.44/bin/bin/../../lib/gcc/pic32mx/4.8.3/../../../../pic32mx/lib\libc.a(atoi.o)

.data           0x00000000        0x0
 .data          0x00000000        0x0 c:/program files (x86)/microchip/xc32/v1.44/bin/bin/../../lib/gcc/pic32mx/4.8.3/../../../../pic32mx/lib\libc.a(atoi.o)

.bss            0x00000000        0x0
 .bss           0x00000000        0x0 c:/program files (x86)/microchip/xc32/v1.44/bin/bin/../../lib/gcc/pic32mx/4.8.3/../../../../pic32mx/lib\libpic32.a(defaultinterrupt.o)

.data           0x00000000        0x0
 .data          0x00000000        0x0 c:/program files (x86)/microchip/xc32/v1.44/bin/bin/../../lib/gcc/pic32mx/4.8.3/../../../../pic32mx/lib\libpic32.a(defaultinterrupt.o)

.bss            0x00000000        0x0
 .bss           0x00000000        0x0 c:/program files (x86)/microchip/xc32/v1.44/bin/bin/../../lib/gcc/pic32mx/4.8.3/../../../../pic32mx/lib\libpic32.a(vector51.o)

.data           0x00000000        0x0
 .data          0x00000000        0x0 c:/program files (x86)/microchip/xc32/v1.44/bin/bin/../../lib/gcc/pic32mx/4.8.3/../../../../pic32mx/lib\libpic32.a(vector51.o)

.bss            0x00000000        0x0
 .bss           0x00000000        0x0 c:/program files (x86)/microchip/xc32/v1.44/bin/bin/../../lib/gcc/pic32mx/4.8.3/../../../../pic32mx/lib\libpic32.a(vector50.o)

.data           0x00000000        0x0
 .data          0x00000000        0x0 c:/program files (x86)/microchip/xc32/v1.44/bin/bin/../../lib/gcc/pic32mx/4.8.3/../../../../pic32mx/lib\libpic32.a(vector50.o)

.bss            0x00000000        0x0
 .bss           0x00000000        0x0 c:/program files (x86)/microchip/xc32/v1.44/bin/bin/../../lib/gcc/pic32mx/4.8.3/../../../../pic32mx/lib\libpic32.a(vector49.o)

.data           0x00000000        0x0
 .data          0x00000000        0x0 c:/program files (x86)/microchip/xc32/v1.44/bin/bin/../../lib/gcc/pic32mx/4.8.3/../../../../pic32mx/lib\libpic32.a(vector49.o)

.bss            0x00000000        0x0
 .bss           0x00000000        0x0 c:/program files (x86)/microchip/xc32/v1.44/bin/bin/../../lib/gcc/pic32mx/4.8.3/../../../../pic32mx/lib\libpic32.a(vector48.o)

.data           0x00000000        0x0
 .data          0x00000000        0x0 c:/program files (x86)/microchip/xc32/v1.44/bin/bin/../../lib/gcc/pic32mx/4.8.3/../../../../pic32mx/lib\libpic32.a(vector48.o)

.bss            0x00000000        0x0
 .bss           0x00000000        0x0 c:/program files (x86)/microchip/xc32/v1.44/bin/bin/../../lib/gcc/pic32mx/4.8.3/../../../../pic32mx/lib\libpic32.a(vector47.o)

.data           0x00000000        0x0
 .data          0x00000000        0x0 c:/program files (x86)/microchip/xc32/v1.44/bin/bin/../../lib/gcc/pic32mx/4.8.3/../../../../pic32mx/lib\libpic32.a(vector47.o)

.bss            0x00000000        0x0
 .bss           0x00000000        0x0 c:/program files (x86)/microchip/xc32/v1.44/bin/bin/../../lib/gcc/pic32mx/4.8.3/../../../../pic32mx/lib\libpic32.a(vector46.o)

.data           0x00000000        0x0
 .data          0x00000000        0x0 c:/program files (x86)/microchip/xc32/v1.44/bin/bin/../../lib/gcc/pic32mx/4.8.3/../../../../pic32mx/lib\libpic32.a(vector46.o)

.bss            0x00000000        0x0
 .bss           0x00000000        0x0 c:/program files (x86)/microchip/xc32/v1.44/bin/bin/../../lib/gcc/pic32mx/4.8.3/../../../../pic32mx/lib\libpic32.a(vector45.o)

.data           0x00000000        0x0
 .data          0x00000000        0x0 c:/program files (x86)/microchip/xc32/v1.44/bin/bin/../../lib/gcc/pic32mx/4.8.3/../../../../pic32mx/lib\libpic32.a(vector45.o)

.bss            0x00000000        0x0
 .bss           0x00000000        0x0 c:/program files (x86)/microchip/xc32/v1.44/bin/bin/../../lib/gcc/pic32mx/4.8.3/../../../../pic32mx/lib\libpic32.a(vector44.o)

.data           0x00000000        0x0
 .data          0x00000000        0x0 c:/program files (x86)/microchip/xc32/v1.44/bin/bin/../../lib/gcc/pic32mx/4.8.3/../../../../pic32mx/lib\libpic32.a(vector44.o)

.bss            0x00000000        0x0
 .bss           0x00000000        0x0 c:/program files (x86)/microchip/xc32/v1.44/bin/bin/../../lib/gcc/pic32mx/4.8.3/../../../../pic32mx/lib\libpic32.a(vector43.o)

.data           0x00000000        0x0
 .data          0x00000000        0x0 c:/program files (x86)/microchip/xc32/v1.44/bin/bin/../../lib/gcc/pic32mx/4.8.3/../../../../pic32mx/lib\libpic32.a(vector43.o)

.bss            0x00000000        0x0
 .bss           0x00000000        0x0 c:/program files (x86)/microchip/xc32/v1.44/bin/bin/../../lib/gcc/pic32mx/4.8.3/../../../../pic32mx/lib\libpic32.a(vector42.o)

.data           0x00000000        0x0
 .data          0x00000000        0x0 c:/program files (x86)/microchip/xc32/v1.44/bin/bin/../../lib/gcc/pic32mx/4.8.3/../../../../pic32mx/lib\libpic32.a(vector42.o)

.bss            0x00000000        0x0
 .bss           0x00000000        0x0 c:/program files (x86)/microchip/xc32/v1.44/bin/bin/../../lib/gcc/pic32mx/4.8.3/../../../../pic32mx/lib\libpic32.a(vector41.o)

.data           0x00000000        0x0
 .data          0x00000000        0x0 c:/program files (x86)/microchip/xc32/v1.44/bin/bin/../../lib/gcc/pic32mx/4.8.3/../../../../pic32mx/lib\libpic32.a(vector41.o)

.bss            0x00000000        0x0
 .bss           0x00000000        0x0 c:/program files (x86)/microchip/xc32/v1.44/bin/bin/../../lib/gcc/pic32mx/4.8.3/../../../../pic32mx/lib\libpic32.a(vector40.o)

.data           0x00000000        0x0
 .data          0x00000000        0x0 c:/program files (x86)/microchip/xc32/v1.44/bin/bin/../../lib/gcc/pic32mx/4.8.3/../../../../pic32mx/lib\libpic32.a(vector40.o)

.bss            0x00000000        0x0
 .bss           0x00000000        0x0 c:/program files (x86)/microchip/xc32/v1.44/bin/bin/../../lib/gcc/pic32mx/4.8.3/../../../../pic32mx/lib\libpic32.a(vector39.o)

.data           0x00000000        0x0
 .data          0x00000000        0x0 c:/program files (x86)/microchip/xc32/v1.44/bin/bin/../../lib/gcc/pic32mx/4.8.3/../../../../pic32mx/lib\libpic32.a(vector39.o)

.bss            0x00000000        0x0
 .bss           0x00000000        0x0 c:/program files (x86)/microchip/xc32/v1.44/bin/bin/../../lib/gcc/pic32mx/4.8.3/../../../../pic32mx/lib\libpic32.a(vector38.o)

.data           0x00000000        0x0
 .data          0x00000000        0x0 c:/program files (x86)/microchip/xc32/v1.44/bin/bin/../../lib/gcc/pic32mx/4.8.3/../../../../pic32mx/lib\libpic32.a(vector38.o)

.bss            0x00000000        0x0
 .bss           0x00000000        0x0 c:/program files (x86)/microchip/xc32/v1.44/bin/bin/../../lib/gcc/pic32mx/4.8.3/../../../../pic32mx/lib\libpic32.a(vector37.o)

.data           0x00000000        0x0
 .data          0x00000000        0x0 c:/program files (x86)/microchip/xc32/v1.44/bin/bin/../../lib/gcc/pic32mx/4.8.3/../../../../pic32mx/lib\libpic32.a(vector37.o)

.bss            0x00000000        0x0
 .bss           0x00000000        0x0 c:/program files (x86)/microchip/xc32/v1.44/bin/bin/../../lib/gcc/pic32mx/4.8.3/../../../../pic32mx/lib\libpic32.a(vector36.o)

.data           0x00000000        0x0
 .data          0x00000000        0x0 c:/program files (x86)/microchip/xc32/v1.44/bin/bin/../../lib/gcc/pic32mx/4.8.3/../../../../pic32mx/lib\libpic32.a(vector36.o)

.bss            0x00000000        0x0
 .bss           0x00000000        0x0 c:/program files (x86)/microchip/xc32/v1.44/bin/bin/../../lib/gcc/pic32mx/4.8.3/../../../../pic32mx/lib\libpic32.a(vector35.o)

.data           0x00000000        0x0
 .data          0x00000000        0x0 c:/program files (x86)/microchip/xc32/v1.44/bin/bin/../../lib/gcc/pic32mx/4.8.3/../../../../pic32mx/lib\libpic32.a(vector35.o)

.bss            0x00000000        0x0
 .bss           0x00000000        0x0 c:/program files (x86)/microchip/xc32/v1.44/bin/bin/../../lib/gcc/pic32mx/4.8.3/../../../../pic32mx/lib\libpic32.a(vector34.o)

.data           0x00000000        0x0
 .data          0x00000000        0x0 c:/program files (x86)/microchip/xc32/v1.44/bin/bin/../../lib/gcc/pic32mx/4.8.3/../../../../pic32mx/lib\libpic32.a(vector34.o)

.bss            0x00000000        0x0
 .bss           0x00000000        0x0 c:/program files (x86)/microchip/xc32/v1.44/bin/bin/../../lib/gcc/pic32mx/4.8.3/../../../../pic32mx/lib\libpic32.a(vector33.o)

.data           0x00000000        0x0
 .data          0x00000000        0x0 c:/program files (x86)/microchip/xc32/v1.44/bin/bin/../../lib/gcc/pic32mx/4.8.3/../../../../pic32mx/lib\libpic32.a(vector33.o)

.bss            0x00000000        0x0
 .bss           0x00000000        0x0 c:/program files (x86)/microchip/xc32/v1.44/bin/bin/../../lib/gcc/pic32mx/4.8.3/../../../../pic32mx/lib\libpic32.a(vector32.o)

.data           0x00000000        0x0
 .data          0x00000000        0x0 c:/program files (x86)/microchip/xc32/v1.44/bin/bin/../../lib/gcc/pic32mx/4.8.3/../../../../pic32mx/lib\libpic32.a(vector32.o)

.bss            0x00000000        0x0
 .bss           0x00000000        0x0 c:/program files (x86)/microchip/xc32/v1.44/bin/bin/../../lib/gcc/pic32mx/4.8.3/../../../../pic32mx/lib\libpic32.a(vector31.o)

.data           0x00000000        0x0
 .data          0x00000000        0x0 c:/program files (x86)/microchip/xc32/v1.44/bin/bin/../../lib/gcc/pic32mx/4.8.3/../../../../pic32mx/lib\libpic32.a(vector31.o)

.bss            0x00000000        0x0
 .bss           0x00000000        0x0 c:/program files (x86)/microchip/xc32/v1.44/bin/bin/../../lib/gcc/pic32mx/4.8.3/../../../../pic32mx/lib\libpic32.a(vector30.o)

.data           0x00000000        0x0
 .data          0x00000000        0x0 c:/program files (x86)/microchip/xc32/v1.44/bin/bin/../../lib/gcc/pic32mx/4.8.3/../../../../pic32mx/lib\libpic32.a(vector30.o)

.bss            0x00000000        0x0
 .bss           0x00000000        0x0 c:/program files (x86)/microchip/xc32/v1.44/bin/bin/../../lib/gcc/pic32mx/4.8.3/../../../../pic32mx/lib\libpic32.a(vector29.o)

.data           0x00000000        0x0
 .data          0x00000000        0x0 c:/program files (x86)/microchip/xc32/v1.44/bin/bin/../../lib/gcc/pic32mx/4.8.3/../../../../pic32mx/lib\libpic32.a(vector29.o)

.bss            0x00000000        0x0
 .bss           0x00000000        0x0 c:/program files (x86)/microchip/xc32/v1.44/bin/bin/../../lib/gcc/pic32mx/4.8.3/../../../../pic32mx/lib\libpic32.a(vector28.o)

.data           0x00000000        0x0
 .data          0x00000000        0x0 c:/program files (x86)/microchip/xc32/v1.44/bin/bin/../../lib/gcc/pic32mx/4.8.3/../../../../pic32mx/lib\libpic32.a(vector28.o)

.bss            0x00000000        0x0
 .bss           0x00000000        0x0 c:/program files (x86)/microchip/xc32/v1.44/bin/bin/../../lib/gcc/pic32mx/4.8.3/../../../../pic32mx/lib\libpic32.a(vector27.o)

.data           0x00000000        0x0
 .data          0x00000000        0x0 c:/program files (x86)/microchip/xc32/v1.44/bin/bin/../../lib/gcc/pic32mx/4.8.3/../../../../pic32mx/lib\libpic32.a(vector27.o)

.bss            0x00000000        0x0
 .bss           0x00000000        0x0 c:/program files (x86)/microchip/xc32/v1.44/bin/bin/../../lib/gcc/pic32mx/4.8.3/../../../../pic32mx/lib\libpic32.a(vector26.o)

.data           0x00000000        0x0
 .data          0x00000000        0x0 c:/program files (x86)/microchip/xc32/v1.44/bin/bin/../../lib/gcc/pic32mx/4.8.3/../../../../pic32mx/lib\libpic32.a(vector26.o)

.bss            0x00000000        0x0
 .bss           0x00000000        0x0 c:/program files (x86)/microchip/xc32/v1.44/bin/bin/../../lib/gcc/pic32mx/4.8.3/../../../../pic32mx/lib\libpic32.a(vector25.o)

.data           0x00000000        0x0
 .data          0x00000000        0x0 c:/program files (x86)/microchip/xc32/v1.44/bin/bin/../../lib/gcc/pic32mx/4.8.3/../../../../pic32mx/lib\libpic32.a(vector25.o)

.bss            0x00000000        0x0
 .bss           0x00000000        0x0 c:/program files (x86)/microchip/xc32/v1.44/bin/bin/../../lib/gcc/pic32mx/4.8.3/../../../../pic32mx/lib\libpic32.a(vector23.o)

.data           0x00000000        0x0
 .data          0x00000000        0x0 c:/program files (x86)/microchip/xc32/v1.44/bin/bin/../../lib/gcc/pic32mx/4.8.3/../../../../pic32mx/lib\libpic32.a(vector23.o)

.bss            0x00000000        0x0
 .bss           0x00000000        0x0 c:/program files (x86)/microchip/xc32/v1.44/bin/bin/../../lib/gcc/pic32mx/4.8.3/../../../../pic32mx/lib\libpic32.a(vector22.o)

.data           0x00000000        0x0
 .data          0x00000000        0x0 c:/program files (x86)/microchip/xc32/v1.44/bin/bin/../../lib/gcc/pic32mx/4.8.3/../../../../pic32mx/lib\libpic32.a(vector22.o)

.bss            0x00000000        0x0
 .bss           0x00000000        0x0 c:/program files (x86)/microchip/xc32/v1.44/bin/bin/../../lib/gcc/pic32mx/4.8.3/../../../../pic32mx/lib\libpic32.a(vector21.o)

.data           0x00000000        0x0
 .data          0x00000000        0x0 c:/program files (x86)/microchip/xc32/v1.44/bin/bin/../../lib/gcc/pic32mx/4.8.3/../../../../pic32mx/lib\libpic32.a(vector21.o)

.bss            0x00000000        0x0
 .bss           0x00000000        0x0 c:/program files (x86)/microchip/xc32/v1.44/bin/bin/../../lib/gcc/pic32mx/4.8.3/../../../../pic32mx/lib\libpic32.a(vector18.o)

.data           0x00000000        0x0
 .data          0x00000000        0x0 c:/program files (x86)/microchip/xc32/v1.44/bin/bin/../../lib/gcc/pic32mx/4.8.3/../../../../pic32mx/lib\libpic32.a(vector18.o)

.bss            0x00000000        0x0
 .bss           0x00000000        0x0 c:/program files (x86)/microchip/xc32/v1.44/bin/bin/../../lib/gcc/pic32mx/4.8.3/../../../../pic32mx/lib\libpic32.a(vector17.o)

.data           0x00000000        0x0
 .data          0x00000000        0x0 c:/program files (x86)/microchip/xc32/v1.44/bin/bin/../../lib/gcc/pic32mx/4.8.3/../../../../pic32mx/lib\libpic32.a(vector17.o)

.bss            0x00000000        0x0
 .bss           0x00000000        0x0 c:/program files (x86)/microchip/xc32/v1.44/bin/bin/../../lib/gcc/pic32mx/4.8.3/../../../../pic32mx/lib\libpic32.a(vector14.o)

.data           0x00000000        0x0
 .data          0x00000000        0x0 c:/program files (x86)/microchip/xc32/v1.44/bin/bin/../../lib/gcc/pic32mx/4.8.3/../../../../pic32mx/lib\libpic32.a(vector14.o)

.bss            0x00000000        0x0
 .bss           0x00000000        0x0 c:/program files (x86)/microchip/xc32/v1.44/bin/bin/../../lib/gcc/pic32mx/4.8.3/../../../../pic32mx/lib\libpic32.a(vector13.o)

.data           0x00000000        0x0
 .data          0x00000000        0x0 c:/program files (x86)/microchip/xc32/v1.44/bin/bin/../../lib/gcc/pic32mx/4.8.3/../../../../pic32mx/lib\libpic32.a(vector13.o)

.bss            0x00000000        0x0
 .bss           0x00000000        0x0 c:/program files (x86)/microchip/xc32/v1.44/bin/bin/../../lib/gcc/pic32mx/4.8.3/../../../../pic32mx/lib\libpic32.a(vector11.o)

.data           0x00000000        0x0
 .data          0x00000000        0x0 c:/program files (x86)/microchip/xc32/v1.44/bin/bin/../../lib/gcc/pic32mx/4.8.3/../../../../pic32mx/lib\libpic32.a(vector11.o)

.bss            0x00000000        0x0
 .bss           0x00000000        0x0 c:/program files (x86)/microchip/xc32/v1.44/bin/bin/../../lib/gcc/pic32mx/4.8.3/../../../../pic32mx/lib\libpic32.a(vector10.o)

.data           0x00000000        0x0
 .data          0x00000000        0x0 c:/program files (x86)/microchip/xc32/v1.44/bin/bin/../../lib/gcc/pic32mx/4.8.3/../../../../pic32mx/lib\libpic32.a(vector10.o)

.bss            0x00000000        0x0
 .bss           0x00000000        0x0 c:/program files (x86)/microchip/xc32/v1.44/bin/bin/../../lib/gcc/pic32mx/4.8.3/../../../../pic32mx/lib\libpic32.a(vector9.o)

.data           0x00000000        0x0
 .data          0x00000000        0x0 c:/program files (x86)/microchip/xc32/v1.44/bin/bin/../../lib/gcc/pic32mx/4.8.3/../../../../pic32mx/lib\libpic32.a(vector9.o)

.bss            0x00000000        0x0
 .bss           0x00000000        0x0 c:/program files (x86)/microchip/xc32/v1.44/bin/bin/../../lib/gcc/pic32mx/4.8.3/../../../../pic32mx/lib\libpic32.a(vector7.o)

.data           0x00000000        0x0
 .data          0x00000000        0x0 c:/program files (x86)/microchip/xc32/v1.44/bin/bin/../../lib/gcc/pic32mx/4.8.3/../../../../pic32mx/lib\libpic32.a(vector7.o)

.bss            0x00000000        0x0
 .bss           0x00000000        0x0 c:/program files (x86)/microchip/xc32/v1.44/bin/bin/../../lib/gcc/pic32mx/4.8.3/../../../../pic32mx/lib\libpic32.a(vector6.o)

.data           0x00000000        0x0
 .data          0x00000000        0x0 c:/program files (x86)/microchip/xc32/v1.44/bin/bin/../../lib/gcc/pic32mx/4.8.3/../../../../pic32mx/lib\libpic32.a(vector6.o)

.bss            0x00000000        0x0
 .bss           0x00000000        0x0 c:/program files (x86)/microchip/xc32/v1.44/bin/bin/../../lib/gcc/pic32mx/4.8.3/../../../../pic32mx/lib\libpic32.a(vector5.o)

.data           0x00000000        0x0
 .data          0x00000000        0x0 c:/program files (x86)/microchip/xc32/v1.44/bin/bin/../../lib/gcc/pic32mx/4.8.3/../../../../pic32mx/lib\libpic32.a(vector5.o)

.bss            0x00000000        0x0
 .bss           0x00000000        0x0 c:/program files (x86)/microchip/xc32/v1.44/bin/bin/../../lib/gcc/pic32mx/4.8.3/../../../../pic32mx/lib\libpic32.a(vector3.o)

.data           0x00000000        0x0
 .data          0x00000000        0x0 c:/program files (x86)/microchip/xc32/v1.44/bin/bin/../../lib/gcc/pic32mx/4.8.3/../../../../pic32mx/lib\libpic32.a(vector3.o)

.bss            0x00000000        0x0
 .bss           0x00000000        0x0 c:/program files (x86)/microchip/xc32/v1.44/bin/bin/../../lib/gcc/pic32mx/4.8.3/../../../../pic32mx/lib\libpic32.a(vector2.o)

.data           0x00000000        0x0
 .data          0x00000000        0x0 c:/program files (x86)/microchip/xc32/v1.44/bin/bin/../../lib/gcc/pic32mx/4.8.3/../../../../pic32mx/lib\libpic32.a(vector2.o)

.bss            0x00000000        0x0
 .bss           0x00000000        0x0 c:/program files (x86)/microchip/xc32/v1.44/bin/bin/../../lib/gcc/pic32mx/4.8.3/../../../../pic32mx/lib\libpic32.a(vector0.o)

.data           0x00000000        0x0
 .data          0x00000000        0x0 c:/program files (x86)/microchip/xc32/v1.44/bin/bin/../../lib/gcc/pic32mx/4.8.3/../../../../pic32mx/lib\libpic32.a(vector0.o)

.bss            0x00000000        0x0
 .bss           0x00000000        0x0 c:/program files (x86)/microchip/xc32/v1.44/bin/bin/../../lib/gcc/pic32mx/4.8.3/../../../../pic32mx/lib\libpic32.a(general-exception.o)

.data           0x00000000        0x0
 .data          0x00000000        0x0 c:/program files (x86)/microchip/xc32/v1.44/bin/bin/../../lib/gcc/pic32mx/4.8.3/../../../../pic32mx/lib\libpic32.a(general-exception.o)

.bss            0x00000000        0x0
 .bss           0x00000000        0x0 c:/program files (x86)/microchip/xc32/v1.44/bin/bin/../../lib/gcc/pic32mx/4.8.3/../../../../pic32mx/lib\libpic32.a(default-nmi-handler.o)

.data           0x00000000        0x0
 .data          0x00000000        0x0 c:/program files (x86)/microchip/xc32/v1.44/bin/bin/../../lib/gcc/pic32mx/4.8.3/../../../../pic32mx/lib\libpic32.a(default-nmi-handler.o)

.bss            0x00000000        0x0
 .bss           0x00000000        0x0 c:/program files (x86)/microchip/xc32/v1.44/bin/bin/../../lib/gcc/pic32mx/4.8.3/../../../../pic32mx/lib\libpic32.a(default-on-bootstrap.o)

.data           0x00000000        0x0
 .data          0x00000000        0x0 c:/program files (x86)/microchip/xc32/v1.44/bin/bin/../../lib/gcc/pic32mx/4.8.3/../../../../pic32mx/lib\libpic32.a(default-on-bootstrap.o)

.bss            0x00000000        0x0
 .bss           0x00000000        0x0 c:/program files (x86)/microchip/xc32/v1.44/bin/bin/../../lib/gcc/pic32mx/4.8.3/../../../../pic32mx/lib\libpic32.a(default-on-reset.o)

.data           0x00000000        0x0
 .data          0x00000000        0x0 c:/program files (x86)/microchip/xc32/v1.44/bin/bin/../../lib/gcc/pic32mx/4.8.3/../../../../pic32mx/lib\libpic32.a(default-on-reset.o)

.bss            0x00000000        0x0
 .bss           0x00000000        0x0 c:/program files (x86)/microchip/xc32/v1.44/bin/bin/../../lib/gcc/pic32mx/4.8.3/../../../../pic32mx/lib\libpic32.a(default-bootstrap-exception-handler.o)

.data           0x00000000        0x0
 .data          0x00000000        0x0 c:/program files (x86)/microchip/xc32/v1.44/bin/bin/../../lib/gcc/pic32mx/4.8.3/../../../../pic32mx/lib\libpic32.a(default-bootstrap-exception-handler.o)

.bss            0x00000000        0x0
 .bss           0x00000000        0x0 c:/program files (x86)/microchip/xc32/v1.44/bin/bin/../../lib/gcc/pic32mx/4.8.3/../../../../pic32mx/lib\libpic32.a(strlen.o)

.data           0x00000000        0x0
 .data          0x00000000        0x0 c:/program files (x86)/microchip/xc32/v1.44/bin/bin/../../lib/gcc/pic32mx/4.8.3/../../../../pic32mx/lib\libpic32.a(strlen.o)

.bss            0x00000000        0x0
 .bss           0x00000000        0x0 c:/program files (x86)/microchip/xc32/v1.44/bin/bin/../../lib/gcc/pic32mx/4.8.3/../../../../pic32mx/lib\libpic32.a(memset.o)

.data           0x00000000        0x0
 .data          0x00000000        0x0 c:/program files (x86)/microchip/xc32/v1.44/bin/bin/../../lib/gcc/pic32mx/4.8.3/../../../../pic32mx/lib\libpic32.a(memset.o)

.bss            0x00000000        0x0
 .bss           0x00000000        0x0 c:/program files (x86)/microchip/xc32/v1.44/bin/bin/../../lib/gcc/pic32mx/4.8.3/../../../../pic32mx/lib\libpic32.a(memcpy.o)

.data           0x00000000        0x0
 .data          0x00000000        0x0 c:/program files (x86)/microchip/xc32/v1.44/bin/bin/../../lib/gcc/pic32mx/4.8.3/../../../../pic32mx/lib\libpic32.a(memcpy.o)

.bss            0x00000000        0x0
 .bss           0x00000000        0x0 c:/program files (x86)/microchip/xc32/v1.44/bin/bin/../../lib/gcc/pic32mx/4.8.3/../../../../pic32mx/lib/./proc/32MX795F512L\processor.o

.data           0x00000000        0x0
 .data          0x00000000        0x0 c:/program files (x86)/microchip/xc32/v1.44/bin/bin/../../lib/gcc/pic32mx/4.8.3/../../../../pic32mx/lib/./proc/32MX795F512L\processor.o

.bss            0x00000000        0x0
 .bss           0x00000000        0x0 c:/program files (x86)/microchip/xc32/v1.44/bin/bin/../../lib/gcc/pic32mx/4.8.3/../../../../pic32mx/lib\pic32_software_reset.o

.data           0x00000000        0x0
 .data          0x00000000        0x0 c:/program files (x86)/microchip/xc32/v1.44/bin/bin/../../lib/gcc/pic32mx/4.8.3/../../../../pic32mx/lib\pic32_software_reset.o

.bss            0x00000000        0x0
 .bss           0x00000000        0x0 c:/program files (x86)/microchip/xc32/v1.44/bin/bin/../../lib/gcc/pic32mx/4.8.3/../../../../pic32mx/lib/./proc/32MX795F512L\default_isr_vectors.o

.data           0x00000000        0x0
 .data          0x00000000        0x0 c:/program files (x86)/microchip/xc32/v1.44/bin/bin/../../lib/gcc/pic32mx/4.8.3/../../../../pic32mx/lib/./proc/32MX795F512L\default_isr_vectors.o

.bss            0x00000000        0x0
 .bss           0x00000000        0x0 build/default/production/_ext/1128951024/event_groups.o

.data           0x00000000        0x0
 .data          0x00000000        0x0 build/default/production/_ext/1128951024/event_groups.o

.data           0x00000000        0x0
 .data          0x00000000        0x0 build/default/production/_ext/1128951024/timers.o

.data           0x00000000        0x0
 .data          0x00000000        0x0 build/default/production/_ext/1128951024/tasks.o

.bss            0x00000000        0x0
 .bss           0x00000000        0x0 build/default/production/_ext/1128951024/queue.o

.data           0x00000000        0x0
 .data          0x00000000        0x0 build/default/production/_ext/1128951024/queue.o

.bss            0x00000000        0x0
 .bss           0x00000000        0x0 build/default/production/_ext/1128951024/list.o

.data           0x00000000        0x0
 .data          0x00000000        0x0 build/default/production/_ext/1128951024/list.o

.bss            0x00000000        0x0
 .bss           0x00000000        0x0 build/default/production/_ext/1128951024/croutine.o

.data           0x00000000        0x0
 .data          0x00000000        0x0 build/default/production/_ext/1128951024/croutine.o

.bss            0x00000000        0x0
 .bss           0x00000000        0x0 build/default/production/_ext/12131622/port_asm.o

.data           0x00000000        0x0
 .data          0x00000000        0x0 build/default/production/_ext/12131622/port_asm.o

.data           0x00000000        0x0
 .data          0x00000000        0x0 build/default/production/_ext/12131622/port.o

.data           0x00000000        0x0
 .data          0x00000000        0x0 build/default/production/_ext/1856876499/heap_1.o

.bss            0x00000000        0x0
 .bss           0x00000000        0x0 build/default/production/_ext/122796885/sys_int_pic32.o

.data           0x00000000        0x0
 .data          0x00000000        0x0 build/default/production/_ext/122796885/sys_int_pic32.o

.bss            0x00000000        0x0
 .bss           0x00000000        0x0 build/default/production/_ext/24337685/osal_freertos.o

.data           0x00000000        0x0
 .data          0x00000000        0x0 build/default/production/_ext/24337685/osal_freertos.o

.bss            0x00000000        0x0
 .bss           0x00000000        0x0 build/default/production/_ext/1360937237/statemachine.o

.data           0x00000000        0x0
 .data          0x00000000        0x0 build/default/production/_ext/1360937237/statemachine.o

.bss            0x00000000        0x0
 .bss           0x00000000        0x0 build/default/production/_ext/1360937237/jsmn.o

.data           0x00000000        0x0
 .data          0x00000000        0x0 build/default/production/_ext/1360937237/jsmn.o

.bss            0x00000000        0x0
 .bss           0x00000000        0x0 build/default/production/_ext/1360937237/main.o

.data           0x00000000        0x0
 .data          0x00000000        0x0 build/default/production/_ext/1360937237/main.o

.bss            0x00000000        0x0
 .bss           0x00000000        0x0 build/default/production/_ext/1360937237/Control.o

.data           0x00000000        0x0
 .data          0x00000000        0x0 build/default/production/_ext/1360937237/Control.o

.bss            0x00000000        0x0
 .bss           0x00000000        0x0 build/default/production/_ext/1360937237/motor_encoder_thread.o

.bss            0x00000000        0x0
 .bss           0x00000000        0x0 build/default/production/_ext/1360937237/WiFiTransmit.o

.data           0x00000000        0x0
 .data          0x00000000        0x0 build/default/production/_ext/1360937237/WiFiTransmit.o

.data           0x00000000        0x0
 .data          0x00000000        0x0 build/default/production/_ext/1360937237/WiFiReceive.o

.bss            0x00000000        0x0
 .bss           0x00000000        0x0 build/default/production/_ext/1688732426/rtos_hooks.o

.data           0x00000000        0x0
 .data          0x00000000        0x0 build/default/production/_ext/1688732426/rtos_hooks.o

.bss            0x00000000        0x0
 .bss           0x00000000        0x0 build/default/production/_ext/1688732426/system_interrupt_a.o

.data           0x00000000        0x0
 .data          0x00000000        0x0 build/default/production/_ext/1688732426/system_interrupt_a.o

.bss            0x00000000        0x0
 .bss           0x00000000        0x0 build/default/production/_ext/1688732426/system_tasks.o

.data           0x00000000        0x0
 .data          0x00000000        0x0 build/default/production/_ext/1688732426/system_tasks.o

.bss            0x00000000        0x0
 .bss           0x00000000        0x0 build/default/production/_ext/1688732426/system_exceptions.o

.data           0x00000000        0x0
 .data          0x00000000        0x0 build/default/production/_ext/1688732426/system_exceptions.o

.bss            0x00000000        0x0
 .bss           0x00000000        0x0 build/default/production/_ext/1688732426/system_interrupt.o

.data           0x00000000        0x0
 .data          0x00000000        0x0 build/default/production/_ext/1688732426/system_interrupt.o

.bss            0x00000000        0x0
 .bss           0x00000000        0x0 build/default/production/_ext/1688732426/system_init.o

.data           0x00000000        0x0
 .data          0x00000000        0x0 build/default/production/_ext/1688732426/system_init.o

.bss            0x00000000        0x0
 .bss           0x00000000        0x0 build/default/production/_ext/822048611/sys_ports_static.o

.data           0x00000000        0x0
 .data          0x00000000        0x0 build/default/production/_ext/822048611/sys_ports_static.o

.bss            0x00000000        0x0
 .bss           0x00000000        0x0 build/default/production/_ext/340578644/sys_devcon_pic32mx.o

.data           0x00000000        0x0
 .data          0x00000000        0x0 build/default/production/_ext/340578644/sys_devcon_pic32mx.o

.bss            0x00000000        0x0
 .bss           0x00000000        0x0 build/default/production/_ext/340578644/sys_devcon.o

.data           0x00000000        0x0
 .data          0x00000000        0x0 build/default/production/_ext/340578644/sys_devcon.o

.bss            0x00000000        0x0
 .bss           0x00000000        0x0 build/default/production/_ext/639803181/sys_clk_pic32mx.o

.data           0x00000000        0x0
 .data          0x00000000        0x0 build/default/production/_ext/639803181/sys_clk_pic32mx.o

.bss            0x00000000        0x0
 .bss           0x00000000        0x0 build/default/production/_ext/327000265/drv_usart_static_byte_model.o

.data           0x00000000        0x0
 .data          0x00000000        0x0 build/default/production/_ext/327000265/drv_usart_static_byte_model.o

.bss            0x00000000        0x0
 .bss           0x00000000        0x0 build/default/production/_ext/327000265/drv_usart_static.o

.data           0x00000000        0x0
 .data          0x00000000        0x0 build/default/production/_ext/327000265/drv_usart_static.o

.bss            0x00000000        0x0
 .bss           0x00000000        0x0 build/default/production/_ext/327000265/drv_usart_mapping.o

.data           0x00000000        0x0
 .data          0x00000000        0x0 build/default/production/_ext/327000265/drv_usart_mapping.o

.bss            0x00000000        0x0
 .bss           0x00000000        0x0 build/default/production/_ext/1407244131/drv_tmr_mapping.o

.data           0x00000000        0x0
 .data          0x00000000        0x0 build/default/production/_ext/1407244131/drv_tmr_mapping.o

.bss            0x00000000        0x0
 .bss           0x00000000        0x0 build/default/production/_ext/1407244131/drv_tmr_static.o

.data           0x00000000        0x0
 .data          0x00000000        0x0 build/default/production/_ext/1407244131/drv_tmr_static.o

.bss            0x00000000        0x0
 .bss           0x00000000        0x0 build/default/production/_ext/1047219354/drv_oc_static.o

.data           0x00000000        0x0
 .data          0x00000000        0x0 build/default/production/_ext/1047219354/drv_oc_static.o

.bss            0x00000000        0x0
 .bss           0x00000000        0x0 build/default/production/_ext/1047219354/drv_oc_mapping.o

.data           0x00000000        0x0
 .data          0x00000000        0x0 build/default/production/_ext/1047219354/drv_oc_mapping.o

.bss            0x00000000        0x0
 .bss           0x00000000        0x0 build/default/production/_ext/1361460060/drv_adc_static.o

.data           0x00000000        0x0
 .data          0x00000000        0x0 build/default/production/_ext/1361460060/drv_adc_static.o

.bss            0x00000000        0x0
 .bss           0x00000000        0x0 c:/program files (x86)/microchip/xc32/v1.44/bin/bin/../../lib/gcc/pic32mx/4.8.3/../../../../pic32mx/lib\debug-exception-return.o

.data           0x00000000        0x0
 .data          0x00000000        0x0 c:/program files (x86)/microchip/xc32/v1.44/bin/bin/../../lib/gcc/pic32mx/4.8.3/../../../../pic32mx/lib\debug-exception-return.o

.bss            0x00000000        0x0
 .bss           0x00000000        0x0 c:/program files (x86)/microchip/xc32/v1.44/bin/bin/../../lib/gcc/pic32mx/4.8.3/../../../../pic32mx/lib/./proc/32MX795F512L/crt0_mips32r2.o

.data           0x00000000        0x0
 .data          0x00000000        0x0 c:/program files (x86)/microchip/xc32/v1.44/bin/bin/../../lib/gcc/pic32mx/4.8.3/../../../../pic32mx/lib/./proc/32MX795F512L/crt0_mips32r2.o

._debug_exception
                0xbfc00480       0x2c
 ._debug_exception
                0xbfc00480       0x2c c:/program files (x86)/microchip/xc32/v1.44/bin/bin/../../lib/gcc/pic32mx/4.8.3/../../../../pic32mx/lib\debug-exception-return.o
                0xbfc00480                __DbgExecReturn

.text._vfprintf_cdnopuxX
                0x9d000000      0xc8c
 .text._vfprintf_cdnopuxX
                0x9d000000      0xc8c c:/program files (x86)/microchip/xc32/v1.44/bin/bin/../../lib/gcc/pic32mx/4.8.3/../../../../pic32mx/lib\libc.a(doprnt_cdnopuxX.eo)
                0x9d000000                _vfprintf_cdnopuxX

.text.jsmn_parse
                0x9d000c8c      0x844
 .text.jsmn_parse
                0x9d000c8c      0x844 build/default/production/_ext/1360937237/jsmn.o
                0x9d000c8c                jsmn_parse

.text           0x9d0014d0      0x8bc
 .text          0x9d0014d0      0x464 c:/program files (x86)/microchip/xc32/v1.44/bin/bin/../../lib/gcc/pic32mx/4.8.3\libgcc.a(_umoddi3.o)
                0x9d0014d0                __umoddi3
 .text          0x9d001934      0x458 c:/program files (x86)/microchip/xc32/v1.44/bin/bin/../../lib/gcc/pic32mx/4.8.3\libgcc.a(_udivdi3.o)
                0x9d001934                __udivdi3

.text           0x9d001d8c      0x454
 .text          0x9d001d8c      0x454 build/default/production/_ext/12131622/port_asm.o
                0x9d001d8c                vPortTickInterruptHandler
                0x9d001f38                vPortStartFirstTask
                0x9d002000                vPortYieldISR

.text.xTaskCreate
                0x9d0021e0      0x2c8
 .text.xTaskCreate
                0x9d0021e0      0x2c8 build/default/production/_ext/1128951024/tasks.o
                0x9d0021e0                xTaskCreate

.text.fpsubadd  0x9d0024a8      0x278
 .text.fpsubadd
                0x9d0024a8      0x278 c:/program files (x86)/microchip/xc32/v1.44/bin/bin/../../lib/gcc/pic32mx/4.8.3/../../../../pic32mx/lib\libm.a(fp32subadd.o)
                0x9d0024a8                __subsf3
                0x9d0024a8                fpsub
                0x9d0024b0                __addsf3
                0x9d0024b0                fpadd

.text.prvTimerTask
                0x9d002720      0x274
 .text.prvTimerTask
                0x9d002720      0x274 build/default/production/_ext/1128951024/timers.o

.text.xQueueGenericReceive
                0x9d002994      0x264
 .text.xQueueGenericReceive
                0x9d002994      0x264 build/default/production/_ext/1128951024/queue.o
                0x9d002994                xQueueGenericReceive

.text.fp32div   0x9d002bf8      0x230
 .text.fp32div  0x9d002bf8      0x230 c:/program files (x86)/microchip/xc32/v1.44/bin/bin/../../lib/gcc/pic32mx/4.8.3/../../../../pic32mx/lib\libm.a(fp32div.o)
                0x9d002bf8                fpdiv
                0x9d002bf8                __divsf3

.text.xQueueGenericSend
                0x9d002e28      0x20c
 .text.xQueueGenericSend
                0x9d002e28      0x20c build/default/production/_ext/1128951024/queue.o
                0x9d002e28                xQueueGenericSend

.dinit          0x9d003034      0x200
 .dinit         0x9d003034      0x200 data_init

.text.ParseJson
                0x9d003234      0x1e4
 .text.ParseJson
                0x9d003234      0x1e4 build/default/production/_ext/1360937237/WiFiReceive.o
                0x9d003234                ParseJson

.text.fp32mul   0x9d003418      0x1bc
 .text.fp32mul  0x9d003418      0x1bc c:/program files (x86)/microchip/xc32/v1.44/bin/bin/../../lib/gcc/pic32mx/4.8.3/../../../../pic32mx/lib\libm.a(fp32mul.o)
                0x9d003418                __mulsf3
                0x9d003418                fpmul

.ExternalInterruptInstance0_vector_text
                0x9d0035d4      0x1b4
 .ExternalInterruptInstance0_vector_text
                0x9d0035d4      0x1b4 build/default/production/_ext/1688732426/system_interrupt_a.o

.ExternalInterruptInstance1_vector_text
                0x9d003788      0x1b4
 .ExternalInterruptInstance1_vector_text
                0x9d003788      0x1b4 build/default/production/_ext/1688732426/system_interrupt_a.o

.DrvTmrInstance0_vector_text
                0x9d00393c      0x1b4
 .DrvTmrInstance0_vector_text
                0x9d00393c      0x1b4 build/default/production/_ext/1688732426/system_interrupt_a.o

.DrvTmrInstance1_vector_text
                0x9d003af0      0x1b4
 .DrvTmrInstance1_vector_text
                0x9d003af0      0x1b4 build/default/production/_ext/1688732426/system_interrupt_a.o

.DrvTmrInstance2_vector_text
                0x9d003ca4      0x1b4
 .DrvTmrInstance2_vector_text
                0x9d003ca4      0x1b4 build/default/production/_ext/1688732426/system_interrupt_a.o

.DrvTmrInstance3_vector_text
                0x9d003e58      0x1b4
 .DrvTmrInstance3_vector_text
                0x9d003e58      0x1b4 build/default/production/_ext/1688732426/system_interrupt_a.o

.DrvUsartInstance0_vector_text
                0x9d00400c      0x1b4
 .DrvUsartInstance0_vector_text
                0x9d00400c      0x1b4 build/default/production/_ext/1688732426/system_interrupt_a.o

.text.xTaskGenericNotifyFromISR
                0x9d0041c0      0x1a8
 .text.xTaskGenericNotifyFromISR
                0x9d0041c0      0x1a8 build/default/production/_ext/1128951024/tasks.o
                0x9d0041c0                xTaskGenericNotifyFromISR

.text.WIFIRECEIVE_Tasks
                0x9d004368      0x1a4
 .text.WIFIRECEIVE_Tasks
                0x9d004368      0x1a4 build/default/production/_ext/1360937237/WiFiReceive.o
                0x9d004368                WIFIRECEIVE_Tasks

.text.SYS_Initialize
                0x9d00450c      0x19c
 .text.SYS_Initialize
                0x9d00450c      0x19c build/default/production/_ext/1688732426/system_init.o
                0x9d00450c                SYS_Initialize

.text.xTaskIncrementTick
                0x9d0046a8      0x198
 .text.xTaskIncrementTick
                0x9d0046a8      0x198 build/default/production/_ext/1128951024/tasks.o
                0x9d0046a8                xTaskIncrementTick

.text.DRV_USART0_Initialize
                0x9d004840      0x190
 .text.DRV_USART0_Initialize
                0x9d004840      0x190 build/default/production/_ext/327000265/drv_usart_static.o
                0x9d004840                DRV_USART0_Initialize

.text.CONTROL_Tasks
                0x9d0049d0      0x174
 .text.CONTROL_Tasks
                0x9d0049d0      0x174 build/default/production/_ext/1360937237/Control.o
                0x9d0049d0                CONTROL_Tasks

.text.xTaskGenericNotify
                0x9d004b44      0x170
 .text.xTaskGenericNotify
                0x9d004b44      0x170 build/default/production/_ext/1128951024/tasks.o
                0x9d004b44                xTaskGenericNotify

.text.Left_PID_module
                0x9d004cb4      0x16c
 .text.Left_PID_module
                0x9d004cb4      0x16c build/default/production/_ext/1360937237/motor_encoder_thread.o
                0x9d004cb4                Left_PID_module

.text.Right_PID_module
                0x9d004e20      0x16c
 .text.Right_PID_module
                0x9d004e20      0x16c build/default/production/_ext/1360937237/motor_encoder_thread.o
                0x9d004e20                Right_PID_module

.text           0x9d004f8c      0x2d0
 .text          0x9d004f8c      0x168 c:/program files (x86)/microchip/xc32/v1.44/bin/bin/../../lib/gcc/pic32mx/4.8.3/../../../../pic32mx/lib\libpic32.a(memcpy.o)
                0x9d004f8c                memcpy
 .text          0x9d0050f4      0x168 c:/program files (x86)/microchip/xc32/v1.44/bin/bin/../../lib/gcc/pic32mx/4.8.3/../../../../pic32mx/lib\libpic32.a(strlen.o)
                0x9d0050f4                strlen

.text.vTaskPrioritySet
                0x9d00525c      0x15c
 .text.vTaskPrioritySet
                0x9d00525c      0x15c build/default/production/_ext/1128951024/tasks.o
                0x9d00525c                vTaskPrioritySet

.text._state_machine_wait_for_start
                0x9d0053b8      0x154
 .text._state_machine_wait_for_start
                0x9d0053b8      0x154 build/default/production/_ext/1360937237/statemachine.o
                0x9d0053b8                _state_machine_wait_for_start

.text.cipango_state
                0x9d00550c      0x154
 .text.cipango_state
                0x9d00550c      0x154 build/default/production/_ext/1360937237/statemachine.o
                0x9d00550c                cipango_state

.text.WIFITRANSMIT_Tasks
                0x9d005660      0x148
 .text.WIFITRANSMIT_Tasks
                0x9d005660      0x148 build/default/production/_ext/1360937237/WiFiTransmit.o
                0x9d005660                WIFITRANSMIT_Tasks

.text.xTaskResumeAll
                0x9d0057a8      0x148
 .text.xTaskResumeAll
                0x9d0057a8      0x148 build/default/production/_ext/1128951024/tasks.o
                0x9d0057a8                xTaskResumeAll

.text.xEventGroupWaitBits
                0x9d0058f0      0x148
 .text.xEventGroupWaitBits
                0x9d0058f0      0x148 build/default/production/_ext/1128951024/event_groups.o
                0x9d0058f0                xEventGroupWaitBits

.text.fputc     0x9d005a38      0x144
 .text.fputc    0x9d005a38      0x144 c:/program files (x86)/microchip/xc32/v1.44/bin/bin/../../lib/gcc/pic32mx/4.8.3/../../../../pic32mx/lib\libc.a(_fputc_simple.o)
                0x9d005a38                fputc

.text.vTaskSuspend
                0x9d005b7c      0x130
 .text.vTaskSuspend
                0x9d005b7c      0x130 build/default/production/_ext/1128951024/tasks.o
                0x9d005b7c                vTaskSuspend

.text.vTaskPriorityInherit
                0x9d005cac      0x12c
 .text.vTaskPriorityInherit
                0x9d005cac      0x12c build/default/production/_ext/1128951024/tasks.o
                0x9d005cac                vTaskPriorityInherit

.text._flsbuf   0x9d005dd8      0x12c
 .text._flsbuf  0x9d005dd8      0x12c c:/program files (x86)/microchip/xc32/v1.44/bin/bin/../../lib/gcc/pic32mx/4.8.3/../../../../pic32mx/lib\libc.a(_flsbuf_simple.o)
                0x9d005dd8                _flsbuf

.rodata         0x9d005f04      0x128
 .rodata        0x9d005f04      0x128 build/default/production/_ext/1688732426/system_exceptions.o

.text.vTaskDelete
                0x9d00602c      0x128
 .text.vTaskDelete
                0x9d00602c      0x128 build/default/production/_ext/1128951024/tasks.o
                0x9d00602c                vTaskDelete

.text._state_machine_arrive_at_crane
                0x9d006154      0x120
 .text._state_machine_arrive_at_crane
                0x9d006154      0x120 build/default/production/_ext/1360937237/statemachine.o
                0x9d006154                _state_machine_arrive_at_crane

.text._state_machine_travel_to_lori
                0x9d006274      0x11c
 .text._state_machine_travel_to_lori
                0x9d006274      0x11c build/default/production/_ext/1360937237/statemachine.o
                0x9d006274                _state_machine_travel_to_lori

.text._state_machine_arrive_at_lori
                0x9d006390      0x11c
 .text._state_machine_arrive_at_lori
                0x9d006390      0x11c build/default/production/_ext/1360937237/statemachine.o
                0x9d006390                _state_machine_arrive_at_lori

.text._state_machine_travel_to_crane
                0x9d0064ac      0x118
 .text._state_machine_travel_to_crane
                0x9d0064ac      0x118 build/default/production/_ext/1360937237/statemachine.o
                0x9d0064ac                _state_machine_travel_to_crane

.text.xEventGroupSync
                0x9d0065c4      0x110
 .text.xEventGroupSync
                0x9d0065c4      0x110 build/default/production/_ext/1128951024/event_groups.o
                0x9d0065c4                xEventGroupSync

.text._state_machine_wait_for_lori
                0x9d0066d4      0x108
 .text._state_machine_wait_for_lori
                0x9d0066d4      0x108 build/default/production/_ext/1360937237/statemachine.o
                0x9d0066d4                _state_machine_wait_for_lori

.text.xTaskNotifyWait
                0x9d0067dc      0x108
 .text.xTaskNotifyWait
                0x9d0067dc      0x108 build/default/production/_ext/1128951024/tasks.o
                0x9d0067dc                xTaskNotifyWait

.text._state_machine_wait_for_crane
                0x9d0068e4      0x104
 .text._state_machine_wait_for_crane
                0x9d0068e4      0x104 build/default/production/_ext/1360937237/statemachine.o
                0x9d0068e4                _state_machine_wait_for_crane

.text.vTaskNotifyGiveFromISR
                0x9d0069e8      0x104
 .text.vTaskNotifyGiveFromISR
                0x9d0069e8      0x104 build/default/production/_ext/1128951024/tasks.o
                0x9d0069e8                vTaskNotifyGiveFromISR

.text.prvSampleTimeNow
                0x9d006aec      0x104
 .text.prvSampleTimeNow
                0x9d006aec      0x104 build/default/production/_ext/1128951024/timers.o

.rodata         0x9d006bf0      0x104
 .rodata        0x9d006bf0      0x104 c:/program files (x86)/microchip/xc32/v1.44/bin/bin/../../lib/gcc/pic32mx/4.8.3/../../../../pic32mx/lib\libc.a(ctype.o)
                0x9d006bf0                _ctype

.text.prvUnlockQueue
                0x9d006cf4       0xfc
 .text.prvUnlockQueue
                0x9d006cf4       0xfc build/default/production/_ext/1128951024/queue.o

.text.xEventGroupSetBits
                0x9d006df0       0xfc
 .text.xEventGroupSetBits
                0x9d006df0       0xfc build/default/production/_ext/1128951024/event_groups.o
                0x9d006df0                xEventGroupSetBits

.text.xTaskPriorityDisinherit
                0x9d006eec       0xf8
 .text.xTaskPriorityDisinherit
                0x9d006eec       0xf8 build/default/production/_ext/1128951024/tasks.o
                0x9d006eec                xTaskPriorityDisinherit

.text.prvCopyDataToQueue
                0x9d006fe4       0xf4
 .text.prvCopyDataToQueue
                0x9d006fe4       0xf4 build/default/production/_ext/1128951024/queue.o

.text.DRV_USART0_BaudSet
                0x9d0070d8       0xf0
 .text.DRV_USART0_BaudSet
                0x9d0070d8       0xf0 build/default/production/_ext/327000265/drv_usart_static.o
                0x9d0070d8                DRV_USART0_BaudSet

.text.xQueueGenericSendFromISR
                0x9d0071c8       0xf0
 .text.xQueueGenericSendFromISR
                0x9d0071c8       0xf0 build/default/production/_ext/1128951024/queue.o
                0x9d0071c8                xQueueGenericSendFromISR

.text.prvAddCurrentTaskToDelayedList
                0x9d0072b8       0xe4
 .text.prvAddCurrentTaskToDelayedList
                0x9d0072b8       0xe4 build/default/production/_ext/1128951024/tasks.o

.text.SYS_DEVCON_PerformanceConfig
                0x9d00739c       0xe0
 .text.SYS_DEVCON_PerformanceConfig
                0x9d00739c       0xe0 build/default/production/_ext/340578644/sys_devcon_pic32mx.o
                0x9d00739c                SYS_DEVCON_PerformanceConfig

.text.xQueueReceiveFromISR
                0x9d00747c       0xe0
 .text.xQueueReceiveFromISR
                0x9d00747c       0xe0 build/default/production/_ext/1128951024/queue.o
                0x9d00747c                xQueueReceiveFromISR

.text.vTaskSwitchContext
                0x9d00755c       0xe0
 .text.vTaskSwitchContext
                0x9d00755c       0xe0 build/default/production/_ext/1128951024/tasks.o
                0x9d00755c                vTaskSwitchContext

.text.SYS_Tasks
                0x9d00763c       0xdc
 .text.SYS_Tasks
                0x9d00763c       0xdc build/default/production/_ext/1688732426/system_tasks.o
                0x9d00763c                SYS_Tasks

.text.general_exception
                0x9d007718       0xdc
 .text.general_exception
                0x9d007718       0xdc c:/program files (x86)/microchip/xc32/v1.44/bin/bin/../../lib/gcc/pic32mx/4.8.3/../../../../pic32mx/lib\libpic32.a(general-exception.o)
                0x9d007718                _general_exception_context

.text.xTaskResumeFromISR
                0x9d0077f4       0xd8
 .text.xTaskResumeFromISR
                0x9d0077f4       0xd8 build/default/production/_ext/1128951024/tasks.o
                0x9d0077f4                xTaskResumeFromISR

.text._mon_putc
                0x9d0078cc       0xd4
 .text._mon_putc
                0x9d0078cc       0xd4 c:/program files (x86)/microchip/xc32/v1.44/bin/bin/../../lib/gcc/pic32mx/4.8.3/../../../../pic32mx/lib\libpic32.a(_mon_putc.o)
                0x9d0078cc                _mon_putc

.rodata         0x9d0079a0       0xd0
 .rodata        0x9d0079a0       0xd0 c:/program files (x86)/microchip/xc32/v1.44/bin/bin/../../lib/gcc/pic32mx/4.8.3/../../../../pic32mx/lib\libc.a(doprnt_cdnopuxX.eo)

.text.DRV_ADC_Initialize
                0x9d007a70       0xc4
 .text.DRV_ADC_Initialize
                0x9d007a70       0xc4 build/default/production/_ext/1361460060/drv_adc_static.o
                0x9d007a70                DRV_ADC_Initialize

.text.ulTaskNotifyTake
                0x9d007b34       0xc4
 .text.ulTaskNotifyTake
                0x9d007b34       0xc4 build/default/production/_ext/1128951024/tasks.o
                0x9d007b34                ulTaskNotifyTake

.text.xQueueGenericReset
                0x9d007bf8       0xc0
 .text.xQueueGenericReset
                0x9d007bf8       0xc0 build/default/production/_ext/1128951024/queue.o
                0x9d007bf8                xQueueGenericReset

.text.xQueueGiveFromISR
                0x9d007cb8       0xc0
 .text.xQueueGiveFromISR
                0x9d007cb8       0xc0 build/default/production/_ext/1128951024/queue.o
                0x9d007cb8                xQueueGiveFromISR

.text.vTaskResume
                0x9d007d78       0xc0
 .text.vTaskResume
                0x9d007d78       0xc0 build/default/production/_ext/1128951024/tasks.o
                0x9d007d78                vTaskResume

.text.xTaskRemoveFromEventList
                0x9d007e38       0xbc
 .text.xTaskRemoveFromEventList
                0x9d007e38       0xbc build/default/production/_ext/1128951024/tasks.o
                0x9d007e38                xTaskRemoveFromEventList

.text.pvPortMalloc
                0x9d007ef4       0xb8
 .text.pvPortMalloc
                0x9d007ef4       0xb8 build/default/production/_ext/1856876499/heap_1.o
                0x9d007ef4                pvPortMalloc

.text.DRV_TMR0_ClockSet
                0x9d007fac       0xb4
 .text.DRV_TMR0_ClockSet
                0x9d007fac       0xb4 build/default/production/_ext/1407244131/drv_tmr_static.o
                0x9d007fac                DRV_TMR0_ClockSet

.text.DRV_TMR1_ClockSet
                0x9d008060       0xb4
 .text.DRV_TMR1_ClockSet
                0x9d008060       0xb4 build/default/production/_ext/1407244131/drv_tmr_static.o
                0x9d008060                DRV_TMR1_ClockSet

.text.DRV_TMR2_ClockSet
                0x9d008114       0xb4
 .text.DRV_TMR2_ClockSet
                0x9d008114       0xb4 build/default/production/_ext/1407244131/drv_tmr_static.o
                0x9d008114                DRV_TMR2_ClockSet

.text.DRV_TMR3_ClockSet
                0x9d0081c8       0xb4
 .text.DRV_TMR3_ClockSet
                0x9d0081c8       0xb4 build/default/production/_ext/1407244131/drv_tmr_static.o
                0x9d0081c8                DRV_TMR3_ClockSet

.text.prvIdleTask
                0x9d00827c       0xb4
 .text.prvIdleTask
                0x9d00827c       0xb4 build/default/production/_ext/1128951024/tasks.o

.text._DRV_TMR_ClockSourceSet
                0x9d008330       0xa8
 .text._DRV_TMR_ClockSourceSet
                0x9d008330       0xa8 build/default/production/_ext/1407244131/drv_tmr_static.o

.text.SYS_PORTS_Initialize
                0x9d0083d8       0xa8
 .text.SYS_PORTS_Initialize
                0x9d0083d8       0xa8 build/default/production/_ext/822048611/sys_ports_static.o
                0x9d0083d8                SYS_PORTS_Initialize

.text.vTaskDelayUntil
                0x9d008480       0xa8
 .text.vTaskDelayUntil
                0x9d008480       0xa8 build/default/production/_ext/1128951024/tasks.o
                0x9d008480                vTaskDelayUntil

.text           0x9d008528       0xa8
 .text          0x9d008528       0xa8 c:/program files (x86)/microchip/xc32/v1.44/bin/bin/../../lib/gcc/pic32mx/4.8.3/../../../../pic32mx/lib\libpic32.a(memset.o)
                0x9d008528                memset

.text.atoi      0x9d0085d0       0xa8
 .text.atoi     0x9d0085d0       0xa8 c:/program files (x86)/microchip/xc32/v1.44/bin/bin/../../lib/gcc/pic32mx/4.8.3/../../../../pic32mx/lib\libc.a(atoi.o)
                0x9d0085d0                atoi

.text.DRV_TMR0_PrescalerGet
                0x9d008678       0xa4
 .text.DRV_TMR0_PrescalerGet
                0x9d008678       0xa4 build/default/production/_ext/1407244131/drv_tmr_static.o
                0x9d008678                DRV_TMR0_PrescalerGet

.text.DRV_TMR1_PrescalerGet
                0x9d00871c       0xa4
 .text.DRV_TMR1_PrescalerGet
                0x9d00871c       0xa4 build/default/production/_ext/1407244131/drv_tmr_static.o
                0x9d00871c                DRV_TMR1_PrescalerGet

.text.DRV_TMR2_PrescalerGet
                0x9d0087c0       0xa4
 .text.DRV_TMR2_PrescalerGet
                0x9d0087c0       0xa4 build/default/production/_ext/1407244131/drv_tmr_static.o
                0x9d0087c0                DRV_TMR2_PrescalerGet

.text.DRV_TMR3_PrescalerGet
                0x9d008864       0xa4
 .text.DRV_TMR3_PrescalerGet
                0x9d008864       0xa4 build/default/production/_ext/1407244131/drv_tmr_static.o
                0x9d008864                DRV_TMR3_PrescalerGet

.text.xTaskCheckForTimeOut
                0x9d008908       0xa0
 .text.xTaskCheckForTimeOut
                0x9d008908       0xa0 build/default/production/_ext/1128951024/tasks.o
                0x9d008908                xTaskCheckForTimeOut

.text.JsonToString
                0x9d0089a8       0x9c
 .text.JsonToString
                0x9d0089a8       0x9c build/default/production/_ext/1360937237/WiFiTransmit.o
                0x9d0089a8                JsonToString

.text.xTaskRemoveFromUnorderedEventList
                0x9d008a44       0x9c
 .text.xTaskRemoveFromUnorderedEventList
                0x9d008a44       0x9c build/default/production/_ext/1128951024/tasks.o
                0x9d008a44                xTaskRemoveFromUnorderedEventList

.text.fpcmp     0x9d008ae0       0x9c
 .text.fpcmp    0x9d008ae0       0x9c c:/program files (x86)/microchip/xc32/v1.44/bin/bin/../../lib/gcc/pic32mx/4.8.3/../../../../pic32mx/lib\libm.a(fpcmp.o)
                0x9d008ae0                __eqsf2
                0x9d008ae0                __lesf2
                0x9d008ae0                __gtsf2
                0x9d008ae0                __nesf2
                0x9d008ae0                fpcmp
                0x9d008ae0                __gesf2
                0x9d008ae0                __ltsf2

.text.write     0x9d008b7c       0x9c
 .text.write    0x9d008b7c       0x9c c:/program files (x86)/microchip/xc32/v1.44/bin/bin/../../lib/gcc/pic32mx/4.8.3/../../../../pic32mx/lib\libpic32.a(write.o)
                0x9d008b7c                write

.text.DRV_OC_Initialize
                0x9d008c18       0x94
 .text.DRV_OC_Initialize
                0x9d008c18       0x94 build/default/production/_ext/1047219354/drv_oc_mapping.o
                0x9d008c18                DRV_OC_Initialize

.text.DRV_OC_Start
                0x9d008cac       0x94
 .text.DRV_OC_Start
                0x9d008cac       0x94 build/default/production/_ext/1047219354/drv_oc_mapping.o
                0x9d008cac                DRV_OC_Start

.text.MOTOR_ENCODER_THREAD_Tasks
                0x9d008d40       0x94
 .text.MOTOR_ENCODER_THREAD_Tasks
                0x9d008d40       0x94 build/default/production/_ext/1360937237/motor_encoder_thread.o
                0x9d008d40                MOTOR_ENCODER_THREAD_Tasks

.text.xQueueGenericCreate
                0x9d008dd4       0x94
 .text.xQueueGenericCreate
                0x9d008dd4       0x94 build/default/production/_ext/1128951024/queue.o
                0x9d008dd4                xQueueGenericCreate

.text.xTimerGenericCommand
                0x9d008e68       0x94
 .text.xTimerGenericCommand
                0x9d008e68       0x94 build/default/production/_ext/1128951024/timers.o
                0x9d008e68                xTimerGenericCommand

.text.CONTROL_Initialize
                0x9d008efc       0x90
 .text.CONTROL_Initialize
                0x9d008efc       0x90 build/default/production/_ext/1360937237/Control.o
                0x9d008efc                CONTROL_Initialize

.text._state_machine_stop
                0x9d008f8c       0x8c
 .text._state_machine_stop
                0x9d008f8c       0x8c build/default/production/_ext/1360937237/statemachine.o
                0x9d008f8c                _state_machine_stop

.text.OSAL_SEM_Create
                0x9d009018       0x8c
 .text.OSAL_SEM_Create
                0x9d009018       0x8c build/default/production/_ext/24337685/osal_freertos.o
                0x9d009018                OSAL_SEM_Create

.text.vQueueWaitForMessageRestricted
                0x9d0090a4       0x8c
 .text.vQueueWaitForMessageRestricted
                0x9d0090a4       0x8c build/default/production/_ext/1128951024/queue.o
                0x9d0090a4                vQueueWaitForMessageRestricted

.text.vTaskStartScheduler
                0x9d009130       0x8c
 .text.vTaskStartScheduler
                0x9d009130       0x8c build/default/production/_ext/1128951024/tasks.o
                0x9d009130                vTaskStartScheduler

.text.DRV_TMR_ClockSet
                0x9d0091bc       0x88
 .text.DRV_TMR_ClockSet
                0x9d0091bc       0x88 build/default/production/_ext/1407244131/drv_tmr_mapping.o
                0x9d0091bc                DRV_TMR_ClockSet

.text.xTimerCreate
                0x9d009244       0x88
 .text.xTimerCreate
                0x9d009244       0x88 build/default/production/_ext/1128951024/timers.o
                0x9d009244                xTimerCreate

.text.DRV_OC_FaultHasOccurred
                0x9d0092cc       0x84
 .text.DRV_OC_FaultHasOccurred
                0x9d0092cc       0x84 build/default/production/_ext/1047219354/drv_oc_mapping.o
                0x9d0092cc                DRV_OC_FaultHasOccurred

.text.DRV_TMR_ClientStatus
                0x9d009350       0x84
 .text.DRV_TMR_ClientStatus
                0x9d009350       0x84 build/default/production/_ext/1407244131/drv_tmr_mapping.o
                0x9d009350                DRV_TMR_ClientStatus

.text.DRV_TMR_CounterValueGet
                0x9d0093d4       0x84
 .text.DRV_TMR_CounterValueGet
                0x9d0093d4       0x84 build/default/production/_ext/1407244131/drv_tmr_mapping.o
                0x9d0093d4                DRV_TMR_CounterValueGet

.text.DRV_TMR_Start
                0x9d009458       0x84
 .text.DRV_TMR_Start
                0x9d009458       0x84 build/default/production/_ext/1407244131/drv_tmr_mapping.o
                0x9d009458                DRV_TMR_Start

.text.DRV_TMR_PrescalerGet
                0x9d0094dc       0x84
 .text.DRV_TMR_PrescalerGet
                0x9d0094dc       0x84 build/default/production/_ext/1407244131/drv_tmr_mapping.o
                0x9d0094dc                DRV_TMR_PrescalerGet

.text.DRV_TMR_CounterFrequencyGet
                0x9d009560       0x84
 .text.DRV_TMR_CounterFrequencyGet
                0x9d009560       0x84 build/default/production/_ext/1407244131/drv_tmr_mapping.o
                0x9d009560                DRV_TMR_CounterFrequencyGet

.text.DRV_TMR_DividerRangeGet
                0x9d0095e4       0x84
 .text.DRV_TMR_DividerRangeGet
                0x9d0095e4       0x84 build/default/production/_ext/1407244131/drv_tmr_mapping.o
                0x9d0095e4                DRV_TMR_DividerRangeGet

.text.jsoneq    0x9d009668       0x84
 .text.jsoneq   0x9d009668       0x84 build/default/production/_ext/1360937237/WiFiReceive.o

.text.DRV_TMR_Initialize
                0x9d0096ec       0x80
 .text.DRV_TMR_Initialize
                0x9d0096ec       0x80 build/default/production/_ext/1407244131/drv_tmr_mapping.o
                0x9d0096ec                DRV_TMR_Initialize

.text._DRV_USART0_ErrorConditionClear
                0x9d00976c       0x80
 .text._DRV_USART0_ErrorConditionClear
                0x9d00976c       0x80 build/default/production/_ext/327000265/drv_usart_static.o
                0x9d00976c                _DRV_USART0_ErrorConditionClear

.text.fptoli    0x9d0097ec       0x80
 .text.fptoli   0x9d0097ec       0x80 c:/program files (x86)/microchip/xc32/v1.44/bin/bin/../../lib/gcc/pic32mx/4.8.3/../../../../pic32mx/lib\libm.a(fptoli.o)
                0x9d0097ec                fptoli
                0x9d0097ec                fptosi
                0x9d0097ec                __fixsfsi

.text.DRV_TMR0_Initialize
                0x9d00986c       0x7c
 .text.DRV_TMR0_Initialize
                0x9d00986c       0x7c build/default/production/_ext/1407244131/drv_tmr_static.o
                0x9d00986c                DRV_TMR0_Initialize

.text.DRV_TMR2_Initialize
                0x9d0098e8       0x78
 .text.DRV_TMR2_Initialize
                0x9d0098e8       0x78 build/default/production/_ext/1407244131/drv_tmr_static.o
                0x9d0098e8                DRV_TMR2_Initialize

.text.DRV_OC_Stop
                0x9d009960       0x74
 .text.DRV_OC_Stop
                0x9d009960       0x74 build/default/production/_ext/1047219354/drv_oc_mapping.o
                0x9d009960                DRV_OC_Stop

.text.DRV_OC_PulseWidthSet
                0x9d0099d4       0x74
 .text.DRV_OC_PulseWidthSet
                0x9d0099d4       0x74 build/default/production/_ext/1047219354/drv_oc_mapping.o
                0x9d0099d4                DRV_OC_PulseWidthSet

.text.DRV_TMR3_Initialize
                0x9d009a48       0x74
 .text.DRV_TMR3_Initialize
                0x9d009a48       0x74 build/default/production/_ext/1407244131/drv_tmr_static.o
                0x9d009a48                DRV_TMR3_Initialize

.text.DRV_TMR_Deinitialize
                0x9d009abc       0x74
 .text.DRV_TMR_Deinitialize
                0x9d009abc       0x74 build/default/production/_ext/1407244131/drv_tmr_mapping.o
                0x9d009abc                DRV_TMR_Deinitialize

.text.DRV_TMR_Close
                0x9d009b30       0x74
 .text.DRV_TMR_Close
                0x9d009b30       0x74 build/default/production/_ext/1407244131/drv_tmr_mapping.o
                0x9d009b30                DRV_TMR_Close

.text.DRV_TMR_CounterValueSet
                0x9d009ba4       0x74
 .text.DRV_TMR_CounterValueSet
                0x9d009ba4       0x74 build/default/production/_ext/1407244131/drv_tmr_mapping.o
                0x9d009ba4                DRV_TMR_CounterValueSet

.text.DRV_TMR_CounterClear
                0x9d009c18       0x74
 .text.DRV_TMR_CounterClear
                0x9d009c18       0x74 build/default/production/_ext/1407244131/drv_tmr_mapping.o
                0x9d009c18                DRV_TMR_CounterClear

.text.DRV_TMR_Stop
                0x9d009c8c       0x74
 .text.DRV_TMR_Stop
                0x9d009c8c       0x74 build/default/production/_ext/1407244131/drv_tmr_mapping.o
                0x9d009c8c                DRV_TMR_Stop

.text.DRV_USART0_LineControlSet
                0x9d009d00       0x74
 .text.DRV_USART0_LineControlSet
                0x9d009d00       0x74 build/default/production/_ext/327000265/drv_usart_static.o
                0x9d009d00                DRV_USART0_LineControlSet

.text.xQueuePeekFromISR
                0x9d009d74       0x74
 .text.xQueuePeekFromISR
                0x9d009d74       0x74 build/default/production/_ext/1128951024/queue.o
                0x9d009d74                xQueuePeekFromISR

.text.prvInsertTimerInActiveList
                0x9d009de8       0x74
 .text.prvInsertTimerInActiveList
                0x9d009de8       0x74 build/default/production/_ext/1128951024/timers.o

.text.prvCheckForValidListAndQueue
                0x9d009e5c       0x74
 .text.prvCheckForValidListAndQueue
                0x9d009e5c       0x74 build/default/production/_ext/1128951024/timers.o

.text.DRV_TMR1_Initialize
                0x9d009ed0       0x70
 .text.DRV_TMR1_Initialize
                0x9d009ed0       0x70 build/default/production/_ext/1407244131/drv_tmr_static.o
                0x9d009ed0                DRV_TMR1_Initialize

.text.SendToTransmitQueue
                0x9d009f40       0x70
 .text.SendToTransmitQueue
                0x9d009f40       0x70 build/default/production/_ext/1360937237/WiFiTransmit.o
                0x9d009f40                SendToTransmitQueue

.text.strncmp   0x9d009fb0       0x70
 .text.strncmp  0x9d009fb0       0x70 c:/program files (x86)/microchip/xc32/v1.44/bin/bin/../../lib/gcc/pic32mx/4.8.3/../../../../pic32mx/lib\libc.a(strncmp.o)
                0x9d009fb0                strncmp

.text.ISR_UART_RECEIVE
                0x9d00a020       0x6c
 .text.ISR_UART_RECEIVE
                0x9d00a020       0x6c build/default/production/_ext/1360937237/WiFiReceive.o
                0x9d00a020                ISR_UART_RECEIVE

.text.Dispatch  0x9d00a08c       0x6c
 .text.Dispatch
                0x9d00a08c       0x6c build/default/production/_ext/1360937237/WiFiReceive.o
                0x9d00a08c                Dispatch

.text.ISR_UART_TRANSMIT
                0x9d00a0f8       0x6c
 .text.ISR_UART_TRANSMIT
                0x9d00a0f8       0x6c build/default/production/_ext/1360937237/WiFiTransmit.o
                0x9d00a0f8                ISR_UART_TRANSMIT

.text.vApplicationSetupTickTimerInterrupt
                0x9d00a164       0x6c
 .text.vApplicationSetupTickTimerInterrupt
                0x9d00a164       0x6c build/default/production/_ext/12131622/port.o
                0x9d00a164                vApplicationSetupTickTimerInterrupt

.text.IntHandlerDrvUsartInstance0
                0x9d00a1d0       0x68
 .text.IntHandlerDrvUsartInstance0
                0x9d00a1d0       0x68 build/default/production/_ext/1688732426/system_interrupt.o
                0x9d00a1d0                IntHandlerDrvUsartInstance0

.text.MOTOR_ENCODER_THREAD_Initialize
                0x9d00a238       0x68
 .text.MOTOR_ENCODER_THREAD_Initialize
                0x9d00a238       0x68 build/default/production/_ext/1360937237/motor_encoder_thread.o
                0x9d00a238                MOTOR_ENCODER_THREAD_Initialize

.text._sprintf_cdnopuxX
                0x9d00a2a0       0x68
 .text._sprintf_cdnopuxX
                0x9d00a2a0       0x68 c:/program files (x86)/microchip/xc32/v1.44/bin/bin/../../lib/gcc/pic32mx/4.8.3/../../../../pic32mx/lib\libc.a(sprintf_cdnopuxX.eo)
                0x9d00a2a0                _sprintf_cdnopuxX

.text.DRV_USART0_WriteByte
                0x9d00a308       0x60
 .text.DRV_USART0_WriteByte
                0x9d00a308       0x60 build/default/production/_ext/327000265/drv_usart_static_byte_model.o
                0x9d00a308                DRV_USART0_WriteByte

.text.SYS_PORTS_PinWrite
                0x9d00a368       0x60
 .text.SYS_PORTS_PinWrite
                0x9d00a368       0x60 build/default/production/_ext/822048611/sys_ports_static.o
                0x9d00a368                SYS_PORTS_PinWrite

.text.SYS_PORTS_PinDirectionSelect
                0x9d00a3c8       0x60
 .text.SYS_PORTS_PinDirectionSelect
                0x9d00a3c8       0x60 build/default/production/_ext/822048611/sys_ports_static.o
                0x9d00a3c8                SYS_PORTS_PinDirectionSelect

.rodata         0x9d00a428       0x60
 .rodata        0x9d00a428       0x60 build/default/production/_ext/1688732426/system_tasks.o

.text.vTaskExitCritical
                0x9d00a488       0x60
 .text.vTaskExitCritical
                0x9d00a488       0x60 build/default/production/_ext/1128951024/tasks.o
                0x9d00a488                vTaskExitCritical

.text.xTaskNotifyStateClear
                0x9d00a4e8       0x60
 .text.xTaskNotifyStateClear
                0x9d00a4e8       0x60 build/default/production/_ext/1128951024/tasks.o
                0x9d00a4e8                xTaskNotifyStateClear

.text.sitofp    0x9d00a548       0x60
 .text.sitofp   0x9d00a548       0x60 c:/program files (x86)/microchip/xc32/v1.44/bin/bin/../../lib/gcc/pic32mx/4.8.3/../../../../pic32mx/lib\libm.a(sitofp.o)
                0x9d00a548                sitofp
                0x9d00a548                litofp
                0x9d00a548                __floatsisf

.text.xPortStartScheduler
                0x9d00a5a8       0x5c
 .text.xPortStartScheduler
                0x9d00a5a8       0x5c build/default/production/_ext/12131622/port.o
                0x9d00a5a8                xPortStartScheduler

.text.vListInsert
                0x9d00a604       0x5c
 .text.vListInsert
                0x9d00a604       0x5c build/default/production/_ext/1128951024/list.o
                0x9d00a604                vListInsert

.text.xTimerCreateTimerTask
                0x9d00a660       0x5c
 .text.xTimerCreateTimerTask
                0x9d00a660       0x5c build/default/production/_ext/1128951024/timers.o
                0x9d00a660                xTimerCreateTimerTask

.text.SYS_DEVCON_SystemUnlock
                0x9d00a6bc       0x58
 .text.SYS_DEVCON_SystemUnlock
                0x9d00a6bc       0x58 build/default/production/_ext/340578644/sys_devcon.o
                0x9d00a6bc                SYS_DEVCON_SystemUnlock

.text.WIFIRECEIVE_Initialize
                0x9d00a714       0x58
 .text.WIFIRECEIVE_Initialize
                0x9d00a714       0x58 build/default/production/_ext/1360937237/WiFiReceive.o
                0x9d00a714                WIFIRECEIVE_Initialize

.text.SendToControlQueue
                0x9d00a76c       0x58
 .text.SendToControlQueue
                0x9d00a76c       0x58 build/default/production/_ext/1360937237/Control.o
                0x9d00a76c                SendToControlQueue

.text.xQueueCreateMutex
                0x9d00a7c4       0x58
 .text.xQueueCreateMutex
                0x9d00a7c4       0x58 build/default/production/_ext/1128951024/queue.o
                0x9d00a7c4                xQueueCreateMutex

.text.vTaskDelay
                0x9d00a81c       0x58
 .text.vTaskDelay
                0x9d00a81c       0x58 build/default/production/_ext/1128951024/tasks.o
                0x9d00a81c                vTaskDelay

.text.vEventGroupDelete
                0x9d00a874       0x58
 .text.vEventGroupDelete
                0x9d00a874       0x58 build/default/production/_ext/1128951024/event_groups.o
                0x9d00a874                vEventGroupDelete

.text.main_entry
                0x9d00a8cc       0x54
 .text.main_entry
                0x9d00a8cc       0x54 c:/program files (x86)/microchip/xc32/v1.44/bin/bin/../../lib/gcc/pic32mx/4.8.3/../../../../pic32mx/lib/./proc/32MX795F512L/crt0_mips32r2.o
                0x9d00a900                __crt0_exit

.text.SYS_PORTS_DirectionSelect
                0x9d00a920       0x54
 .text.SYS_PORTS_DirectionSelect
                0x9d00a920       0x54 build/default/production/_ext/822048611/sys_ports_static.o
                0x9d00a920                SYS_PORTS_DirectionSelect

.text.CheckString
                0x9d00a974       0x54
 .text.CheckString
                0x9d00a974       0x54 build/default/production/_ext/1360937237/WiFiReceive.o
                0x9d00a974                CheckString

.rodata         0x9d00a9c8       0x54
 .rodata        0x9d00a9c8       0x54 build/default/production/_ext/1360937237/WiFiTransmit.o

.text.SYS_INT_SourceDisable
                0x9d00aa1c       0x54
 .text.SYS_INT_SourceDisable
                0x9d00aa1c       0x54 build/default/production/_ext/122796885/sys_int_pic32.o
                0x9d00aa1c                SYS_INT_SourceDisable

.text.pxPortInitialiseStack
                0x9d00aa70       0x54
 .text.pxPortInitialiseStack
                0x9d00aa70       0x54 build/default/production/_ext/12131622/port.o
                0x9d00aa70                pxPortInitialiseStack

.text.vPortIncrementTick
                0x9d00aac4       0x54
 .text.vPortIncrementTick
                0x9d00aac4       0x54 build/default/production/_ext/12131622/port.o
                0x9d00aac4                vPortIncrementTick

.text.DRV_USART0_ReadByte
                0x9d00ab18       0x50
 .text.DRV_USART0_ReadByte
                0x9d00ab18       0x50 build/default/production/_ext/327000265/drv_usart_static_byte_model.o
                0x9d00ab18                DRV_USART0_ReadByte

.text.SYS_PORTS_ChangeNotificationEnable
                0x9d00ab68       0x50
 .text.SYS_PORTS_ChangeNotificationEnable
                0x9d00ab68       0x50 build/default/production/_ext/822048611/sys_ports_static.o
                0x9d00ab68                SYS_PORTS_ChangeNotificationEnable

.text.IntHandlerExternalInterruptInstance0
                0x9d00abb8       0x50
 .text.IntHandlerExternalInterruptInstance0
                0x9d00abb8       0x50 build/default/production/_ext/1688732426/system_interrupt.o
                0x9d00abb8                IntHandlerExternalInterruptInstance0

.text.IntHandlerExternalInterruptInstance1
                0x9d00ac08       0x50
 .text.IntHandlerExternalInterruptInstance1
                0x9d00ac08       0x50 build/default/production/_ext/1688732426/system_interrupt.o
                0x9d00ac08                IntHandlerExternalInterruptInstance1

.text.SendToQueue
                0x9d00ac58       0x50
 .text.SendToQueue
                0x9d00ac58       0x50 build/default/production/_ext/1360937237/motor_encoder_thread.o
                0x9d00ac58                SendToQueue

.text._state_machine_send_status
                0x9d00aca8       0x50
 .text._state_machine_send_status
                0x9d00aca8       0x50 build/default/production/_ext/1360937237/statemachine.o
                0x9d00aca8                _state_machine_send_status

.text.requeststatus
                0x9d00acf8       0x50
 .text.requeststatus
                0x9d00acf8       0x50 build/default/production/_ext/1360937237/statemachine.o
                0x9d00acf8                requeststatus

.text.prvCopyDataFromQueue
                0x9d00ad48       0x50
 .text.prvCopyDataFromQueue
                0x9d00ad48       0x50 build/default/production/_ext/1128951024/queue.o

.text.xEventGroupClearBits
                0x9d00ad98       0x50
 .text.xEventGroupClearBits
                0x9d00ad98       0x50 build/default/production/_ext/1128951024/event_groups.o
                0x9d00ad98                xEventGroupClearBits

.text.DRV_TMR0_CounterFrequencyGet
                0x9d00ade8       0x4c
 .text.DRV_TMR0_CounterFrequencyGet
                0x9d00ade8       0x4c build/default/production/_ext/1407244131/drv_tmr_static.o
                0x9d00ade8                DRV_TMR0_CounterFrequencyGet

.text.DRV_TMR3_CounterFrequencyGet
                0x9d00ae34       0x4c
 .text.DRV_TMR3_CounterFrequencyGet
                0x9d00ae34       0x4c build/default/production/_ext/1407244131/drv_tmr_static.o
                0x9d00ae34                DRV_TMR3_CounterFrequencyGet

.text.DRV_USART0_Deinitialize
                0x9d00ae80       0x4c
 .text.DRV_USART0_Deinitialize
                0x9d00ae80       0x4c build/default/production/_ext/327000265/drv_usart_static.o
                0x9d00ae80                DRV_USART0_Deinitialize

.text.OSAL_SEM_PostISR
                0x9d00aecc       0x4c
 .text.OSAL_SEM_PostISR
                0x9d00aecc       0x4c build/default/production/_ext/24337685/osal_freertos.o
                0x9d00aecc                OSAL_SEM_PostISR

.text.DRV_USART0_TransferStatus
                0x9d00af18       0x48
 .text.DRV_USART0_TransferStatus
                0x9d00af18       0x48 build/default/production/_ext/327000265/drv_usart_static.o
                0x9d00af18                DRV_USART0_TransferStatus

.text.SYS_CLK_SecondaryOscillatorEnable
                0x9d00af60       0x48
 .text.SYS_CLK_SecondaryOscillatorEnable
                0x9d00af60       0x48 build/default/production/_ext/639803181/sys_clk_pic32mx.o
                0x9d00af60                SYS_CLK_SecondaryOscillatorEnable

.text.SYS_CLK_SecondaryOscillatorDisable
                0x9d00afa8       0x48
 .text.SYS_CLK_SecondaryOscillatorDisable
                0x9d00afa8       0x48 build/default/production/_ext/639803181/sys_clk_pic32mx.o
                0x9d00afa8                SYS_CLK_SecondaryOscillatorDisable

.text.SYS_DEVCON_SystemLock
                0x9d00aff0       0x48
 .text.SYS_DEVCON_SystemLock
                0x9d00aff0       0x48 build/default/production/_ext/340578644/sys_devcon.o
                0x9d00aff0                SYS_DEVCON_SystemLock

.text.Motor_Left_Set
                0x9d00b038       0x48
 .text.Motor_Left_Set
                0x9d00b038       0x48 build/default/production/_ext/1360937237/motor_encoder_thread.o
                0x9d00b038                Motor_Left_Set

.text.Motor_Right_Set
                0x9d00b080       0x48
 .text.Motor_Right_Set
                0x9d00b080       0x48 build/default/production/_ext/1360937237/motor_encoder_thread.o
                0x9d00b080                Motor_Right_Set

.text.OSAL_CRIT_Enter
                0x9d00b0c8       0x48
 .text.OSAL_CRIT_Enter
                0x9d00b0c8       0x48 build/default/production/_ext/24337685/osal_freertos.o
                0x9d00b0c8                OSAL_CRIT_Enter

.text.vTaskPlaceOnUnorderedEventList
                0x9d00b110       0x48
 .text.vTaskPlaceOnUnorderedEventList
                0x9d00b110       0x48 build/default/production/_ext/1128951024/tasks.o
                0x9d00b110                vTaskPlaceOnUnorderedEventList

.text.vTaskPlaceOnEventListRestricted
                0x9d00b158       0x48
 .text.vTaskPlaceOnEventListRestricted
                0x9d00b158       0x48 build/default/production/_ext/1128951024/tasks.o
                0x9d00b158                vTaskPlaceOnEventListRestricted

.text.vTaskEnterCritical
                0x9d00b1a0       0x48
 .text.vTaskEnterCritical
                0x9d00b1a0       0x48 build/default/production/_ext/1128951024/tasks.o
                0x9d00b1a0                vTaskEnterCritical

.text._bootstrap_exception_handler
                0x9d00b1e8       0x48
 .text._bootstrap_exception_handler
                0x9d00b1e8       0x48 c:/program files (x86)/microchip/xc32/v1.44/bin/bin/../../lib/gcc/pic32mx/4.8.3/../../../../pic32mx/lib\libpic32.a(default-bootstrap-exception-handler.o)
                0x9d00b1e8                _bootstrap_exception_handler

.vector_default
                0x9d00b230       0x48
 .vector_default
                0x9d00b230       0x48 c:/program files (x86)/microchip/xc32/v1.44/bin/bin/../../lib/gcc/pic32mx/4.8.3/../../../../pic32mx/lib\libpic32.a(defaultinterrupt.o)
                0x9d00b230                _DefaultInterrupt

.text.DRV_USART0_TasksTransmit
                0x9d00b278       0x44
 .text.DRV_USART0_TasksTransmit
                0x9d00b278       0x44 build/default/production/_ext/327000265/drv_usart_static.o
                0x9d00b278                DRV_USART0_TasksTransmit

.text.SYS_CLK_Initialize
                0x9d00b2bc       0x44
 .text.SYS_CLK_Initialize
                0x9d00b2bc       0x44 build/default/production/_ext/639803181/sys_clk_pic32mx.o
                0x9d00b2bc                SYS_CLK_Initialize

.text.SYS_DEVCON_PowerModeEnter
                0x9d00b300       0x44
 .text.SYS_DEVCON_PowerModeEnter
                0x9d00b300       0x44 build/default/production/_ext/340578644/sys_devcon.o
                0x9d00b300                SYS_DEVCON_PowerModeEnter

.text.IntHandlerDrvTmrInstance3
                0x9d00b344       0x44
 .text.IntHandlerDrvTmrInstance3
                0x9d00b344       0x44 build/default/production/_ext/1688732426/system_interrupt.o
                0x9d00b344                IntHandlerDrvTmrInstance3

.text.OSAL_CRIT_Leave
                0x9d00b388       0x44
 .text.OSAL_CRIT_Leave
                0x9d00b388       0x44 build/default/production/_ext/24337685/osal_freertos.o
                0x9d00b388                OSAL_CRIT_Leave

.text.uxListRemove
                0x9d00b3cc       0x44
 .text.uxListRemove
                0x9d00b3cc       0x44 build/default/production/_ext/1128951024/list.o
                0x9d00b3cc                uxListRemove

.text           0x9d00b410       0x44
 .text          0x9d00b410       0x44 c:/program files (x86)/microchip/xc32/v1.44/bin/bin/../../lib/gcc/pic32mx/4.8.3/../../../../pic32mx/lib\pic32_software_reset.o
                0x9d00b410                __pic32_software_reset

.text.DRV_OC2_Initialize
                0x9d00b454       0x40
 .text.DRV_OC2_Initialize
                0x9d00b454       0x40 build/default/production/_ext/1047219354/drv_oc_static.o
                0x9d00b454                DRV_OC2_Initialize

.text.DRV_OC3_Initialize
                0x9d00b494       0x40
 .text.DRV_OC3_Initialize
                0x9d00b494       0x40 build/default/production/_ext/1047219354/drv_oc_static.o
                0x9d00b494                DRV_OC3_Initialize

.text._general_exception_handler
                0x9d00b4d4       0x40
 .text._general_exception_handler
                0x9d00b4d4       0x40 build/default/production/_ext/1688732426/system_exceptions.o
                0x9d00b4d4                _general_exception_handler

.text.OSAL_SEM_Pend
                0x9d00b514       0x40
 .text.OSAL_SEM_Pend
                0x9d00b514       0x40 build/default/production/_ext/24337685/osal_freertos.o
                0x9d00b514                OSAL_SEM_Pend

.text.OSAL_MUTEX_Lock
                0x9d00b554       0x40
 .text.OSAL_MUTEX_Lock
                0x9d00b554       0x40 build/default/production/_ext/24337685/osal_freertos.o
                0x9d00b554                OSAL_MUTEX_Lock

.text.DRV_ADC_NegativeInputSelect
                0x9d00b594       0x3c
 .text.DRV_ADC_NegativeInputSelect
                0x9d00b594       0x3c build/default/production/_ext/1361460060/drv_adc_static.o
                0x9d00b594                DRV_ADC_NegativeInputSelect

.text.DRV_ADC_PositiveInputSelect
                0x9d00b5d0       0x3c
 .text.DRV_ADC_PositiveInputSelect
                0x9d00b5d0       0x3c build/default/production/_ext/1361460060/drv_adc_static.o
                0x9d00b5d0                DRV_ADC_PositiveInputSelect

.text.DRV_OC0_Initialize
                0x9d00b60c       0x3c
 .text.DRV_OC0_Initialize
                0x9d00b60c       0x3c build/default/production/_ext/1047219354/drv_oc_static.o
                0x9d00b60c                DRV_OC0_Initialize

.text.DRV_OC1_Initialize
                0x9d00b648       0x3c
 .text.DRV_OC1_Initialize
                0x9d00b648       0x3c build/default/production/_ext/1047219354/drv_oc_static.o
                0x9d00b648                DRV_OC1_Initialize

.text.DRV_TMR0_Stop
                0x9d00b684       0x3c
 .text.DRV_TMR0_Stop
                0x9d00b684       0x3c build/default/production/_ext/1407244131/drv_tmr_static.o
                0x9d00b684                DRV_TMR0_Stop

.text.DRV_TMR1_Stop
                0x9d00b6c0       0x3c
 .text.DRV_TMR1_Stop
                0x9d00b6c0       0x3c build/default/production/_ext/1407244131/drv_tmr_static.o
                0x9d00b6c0                DRV_TMR1_Stop

.text.DRV_TMR2_Stop
                0x9d00b6fc       0x3c
 .text.DRV_TMR2_Stop
                0x9d00b6fc       0x3c build/default/production/_ext/1407244131/drv_tmr_static.o
                0x9d00b6fc                DRV_TMR2_Stop

.text.DRV_TMR3_Stop
                0x9d00b738       0x3c
 .text.DRV_TMR3_Stop
                0x9d00b738       0x3c build/default/production/_ext/1407244131/drv_tmr_static.o
                0x9d00b738                DRV_TMR3_Stop

.text.hash      0x9d00b774       0x3c
 .text.hash     0x9d00b774       0x3c build/default/production/_ext/1360937237/WiFiReceive.o
                0x9d00b774                hash

.text.WIFITRANSMIT_Initialize
                0x9d00b7b0       0x3c
 .text.WIFITRANSMIT_Initialize
                0x9d00b7b0       0x3c build/default/production/_ext/1360937237/WiFiTransmit.o
                0x9d00b7b0                WIFITRANSMIT_Initialize

.text.SendOverWiFi
                0x9d00b7ec       0x3c
 .text.SendOverWiFi
                0x9d00b7ec       0x3c build/default/production/_ext/1360937237/WiFiTransmit.o
                0x9d00b7ec                SendOverWiFi

.text.OSAL_MUTEX_Create
                0x9d00b828       0x3c
 .text.OSAL_MUTEX_Create
                0x9d00b828       0x3c build/default/production/_ext/24337685/osal_freertos.o
                0x9d00b828                OSAL_MUTEX_Create

.text.OSAL_MUTEX_Delete
                0x9d00b864       0x3c
 .text.OSAL_MUTEX_Delete
                0x9d00b864       0x3c build/default/production/_ext/24337685/osal_freertos.o
                0x9d00b864                OSAL_MUTEX_Delete

.text.uxPortSetInterruptMaskFromISR
                0x9d00b8a0       0x3c
 .text.uxPortSetInterruptMaskFromISR
                0x9d00b8a0       0x3c build/default/production/_ext/12131622/port.o
                0x9d00b8a0                uxPortSetInterruptMaskFromISR

.text.uxTaskPriorityGetFromISR
                0x9d00b8dc       0x3c
 .text.uxTaskPriorityGetFromISR
                0x9d00b8dc       0x3c build/default/production/_ext/1128951024/tasks.o
                0x9d00b8dc                uxTaskPriorityGetFromISR

.text.xEventGroupCreate
                0x9d00b918       0x3c
 .text.xEventGroupCreate
                0x9d00b918       0x3c build/default/production/_ext/1128951024/event_groups.o
                0x9d00b918                xEventGroupCreate

.text.DRV_TMR0_Start
                0x9d00b954       0x38
 .text.DRV_TMR0_Start
                0x9d00b954       0x38 build/default/production/_ext/1407244131/drv_tmr_static.o
                0x9d00b954                DRV_TMR0_Start

.text.DRV_TMR1_Start
                0x9d00b98c       0x38
 .text.DRV_TMR1_Start
                0x9d00b98c       0x38 build/default/production/_ext/1407244131/drv_tmr_static.o
                0x9d00b98c                DRV_TMR1_Start

.text.DRV_TMR2_Start
                0x9d00b9c4       0x38
 .text.DRV_TMR2_Start
                0x9d00b9c4       0x38 build/default/production/_ext/1407244131/drv_tmr_static.o
                0x9d00b9c4                DRV_TMR2_Start

.text.DRV_TMR3_Start
                0x9d00b9fc       0x38
 .text.DRV_TMR3_Start
                0x9d00b9fc       0x38 build/default/production/_ext/1407244131/drv_tmr_static.o
                0x9d00b9fc                DRV_TMR3_Start

.text.GetMessageStat
                0x9d00ba34       0x38
 .text.GetMessageStat
                0x9d00ba34       0x38 build/default/production/_ext/1360937237/WiFiReceive.o
                0x9d00ba34                GetMessageStat

.text.Forward   0x9d00ba6c       0x38
 .text.Forward  0x9d00ba6c       0x38 build/default/production/_ext/1360937237/motor_encoder_thread.o
                0x9d00ba6c                Forward

.text.Backward  0x9d00baa4       0x38
 .text.Backward
                0x9d00baa4       0x38 build/default/production/_ext/1360937237/motor_encoder_thread.o
                0x9d00baa4                Backward

.text.uxQueueSpacesAvailable
                0x9d00badc       0x38
 .text.uxQueueSpacesAvailable
                0x9d00badc       0x38 build/default/production/_ext/1128951024/queue.o
                0x9d00badc                uxQueueSpacesAvailable

.text.prvTaskIsTaskSuspended
                0x9d00bb14       0x38
 .text.prvTaskIsTaskSuspended
                0x9d00bb14       0x38 build/default/production/_ext/1128951024/tasks.o

.text.prvResetNextTaskUnblockTime
                0x9d00bb4c       0x38
 .text.prvResetNextTaskUnblockTime
                0x9d00bb4c       0x38 build/default/production/_ext/1128951024/tasks.o

.text.vTaskPlaceOnEventList
                0x9d00bb84       0x38
 .text.vTaskPlaceOnEventList
                0x9d00bb84       0x38 build/default/production/_ext/1128951024/tasks.o
                0x9d00bb84                vTaskPlaceOnEventList

.text.uxTaskPriorityGet
                0x9d00bbbc       0x38
 .text.uxTaskPriorityGet
                0x9d00bbbc       0x38 build/default/production/_ext/1128951024/tasks.o
                0x9d00bbbc                uxTaskPriorityGet

.text.vTimerSetTimerID
                0x9d00bbf4       0x38
 .text.vTimerSetTimerID
                0x9d00bbf4       0x38 build/default/production/_ext/1128951024/timers.o
                0x9d00bbf4                vTimerSetTimerID

.text.DRV_USART_ClientStatus
                0x9d00bc2c       0x34
 .text.DRV_USART_ClientStatus
                0x9d00bc2c       0x34 build/default/production/_ext/327000265/drv_usart_mapping.o
                0x9d00bc2c                DRV_USART_ClientStatus

.text.DRV_USART_TransferStatus
                0x9d00bc60       0x34
 .text.DRV_USART_TransferStatus
                0x9d00bc60       0x34 build/default/production/_ext/327000265/drv_usart_mapping.o
                0x9d00bc60                DRV_USART_TransferStatus

.text.DRV_USART_ErrorGet
                0x9d00bc94       0x34
 .text.DRV_USART_ErrorGet
                0x9d00bc94       0x34 build/default/production/_ext/327000265/drv_usart_mapping.o
                0x9d00bc94                DRV_USART_ErrorGet

.text.DRV_USART_ReadByte
                0x9d00bcc8       0x34
 .text.DRV_USART_ReadByte
                0x9d00bcc8       0x34 build/default/production/_ext/327000265/drv_usart_mapping.o
                0x9d00bcc8                DRV_USART_ReadByte

.text.DRV_USART_ReceiverBufferSizeGet
                0x9d00bcfc       0x34
 .text.DRV_USART_ReceiverBufferSizeGet
                0x9d00bcfc       0x34 build/default/production/_ext/327000265/drv_usart_mapping.o
                0x9d00bcfc                DRV_USART_ReceiverBufferSizeGet

.text.DRV_USART_TransmitBufferSizeGet
                0x9d00bd30       0x34
 .text.DRV_USART_TransmitBufferSizeGet
                0x9d00bd30       0x34 build/default/production/_ext/327000265/drv_usart_mapping.o
                0x9d00bd30                DRV_USART_TransmitBufferSizeGet

.text.DRV_USART_ReceiverBufferIsEmpty
                0x9d00bd64       0x34
 .text.DRV_USART_ReceiverBufferIsEmpty
                0x9d00bd64       0x34 build/default/production/_ext/327000265/drv_usart_mapping.o
                0x9d00bd64                DRV_USART_ReceiverBufferIsEmpty

.text.DRV_USART_TransmitBufferIsFull
                0x9d00bd98       0x34
 .text.DRV_USART_TransmitBufferIsFull
                0x9d00bd98       0x34 build/default/production/_ext/327000265/drv_usart_mapping.o
                0x9d00bd98                DRV_USART_TransmitBufferIsFull

.text.DRV_USART_BaudSet
                0x9d00bdcc       0x34
 .text.DRV_USART_BaudSet
                0x9d00bdcc       0x34 build/default/production/_ext/327000265/drv_usart_mapping.o
                0x9d00bdcc                DRV_USART_BaudSet

.text.DRV_USART_LineControlSet
                0x9d00be00       0x34
 .text.DRV_USART_LineControlSet
                0x9d00be00       0x34 build/default/production/_ext/327000265/drv_usart_mapping.o
                0x9d00be00                DRV_USART_LineControlSet

.text.Read_Encoders
                0x9d00be34       0x34
 .text.Read_Encoders
                0x9d00be34       0x34 build/default/production/_ext/1360937237/motor_encoder_thread.o
                0x9d00be34                Read_Encoders

.text.xQueueCreateCountingSemaphore
                0x9d00be68       0x34
 .text.xQueueCreateCountingSemaphore
                0x9d00be68       0x34 build/default/production/_ext/1128951024/queue.o
                0x9d00be68                xQueueCreateCountingSemaphore

.text.uxQueueMessagesWaiting
                0x9d00be9c       0x34
 .text.uxQueueMessagesWaiting
                0x9d00be9c       0x34 build/default/production/_ext/1128951024/queue.o
                0x9d00be9c                uxQueueMessagesWaiting

.text.vTaskEndScheduler
                0x9d00bed0       0x34
 .text.vTaskEndScheduler
                0x9d00bed0       0x34 build/default/production/_ext/1128951024/tasks.o
                0x9d00bed0                vTaskEndScheduler

.text.xTimerIsTimerActive
                0x9d00bf04       0x34
 .text.xTimerIsTimerActive
                0x9d00bf04       0x34 build/default/production/_ext/1128951024/timers.o
                0x9d00bf04                xTimerIsTimerActive

.text.xEventGroupGetBitsFromISR
                0x9d00bf38       0x34
 .text.xEventGroupGetBitsFromISR
                0x9d00bf38       0x34 build/default/production/_ext/1128951024/event_groups.o
                0x9d00bf38                xEventGroupGetBitsFromISR

.text.DRV_TMR_Open
                0x9d00bf6c       0x30
 .text.DRV_TMR_Open
                0x9d00bf6c       0x30 build/default/production/_ext/1407244131/drv_tmr_mapping.o
                0x9d00bf6c                DRV_TMR_Open

.text.DRV_USART_Initialize
                0x9d00bf9c       0x30
 .text.DRV_USART_Initialize
                0x9d00bf9c       0x30 build/default/production/_ext/327000265/drv_usart_mapping.o
                0x9d00bf9c                DRV_USART_Initialize

.text.DRV_USART_Status
                0x9d00bfcc       0x30
 .text.DRV_USART_Status
                0x9d00bfcc       0x30 build/default/production/_ext/327000265/drv_usart_mapping.o
                0x9d00bfcc                DRV_USART_Status

.text.DRV_USART_Open
                0x9d00bffc       0x30
 .text.DRV_USART_Open
                0x9d00bffc       0x30 build/default/production/_ext/327000265/drv_usart_mapping.o
                0x9d00bffc                DRV_USART_Open

.text.SYS_PORTS_PinToggle
                0x9d00c02c       0x30
 .text.SYS_PORTS_PinToggle
                0x9d00c02c       0x30 build/default/production/_ext/822048611/sys_ports_static.o
                0x9d00c02c                SYS_PORTS_PinToggle

.text.SYS_PORTS_PinSet
                0x9d00c05c       0x30
 .text.SYS_PORTS_PinSet
                0x9d00c05c       0x30 build/default/production/_ext/822048611/sys_ports_static.o
                0x9d00c05c                SYS_PORTS_PinSet

.text.SYS_PORTS_PinClear
                0x9d00c08c       0x30
 .text.SYS_PORTS_PinClear
                0x9d00c08c       0x30 build/default/production/_ext/822048611/sys_ports_static.o
                0x9d00c08c                SYS_PORTS_PinClear

.text.SYS_PORTS_PinOpenDrainEnable
                0x9d00c0bc       0x30
 .text.SYS_PORTS_PinOpenDrainEnable
                0x9d00c0bc       0x30 build/default/production/_ext/822048611/sys_ports_static.o
                0x9d00c0bc                SYS_PORTS_PinOpenDrainEnable

.text.SYS_PORTS_PinOpenDrainDisable
                0x9d00c0ec       0x30
 .text.SYS_PORTS_PinOpenDrainDisable
                0x9d00c0ec       0x30 build/default/production/_ext/822048611/sys_ports_static.o
                0x9d00c0ec                SYS_PORTS_PinOpenDrainDisable

.text.GetConnectionStatus
                0x9d00c11c       0x30
 .text.GetConnectionStatus
                0x9d00c11c       0x30 build/default/production/_ext/1360937237/WiFiTransmit.o
                0x9d00c11c                GetConnectionStatus

.text.OSAL_SEM_Delete
                0x9d00c14c       0x30
 .text.OSAL_SEM_Delete
                0x9d00c14c       0x30 build/default/production/_ext/24337685/osal_freertos.o
                0x9d00c14c                OSAL_SEM_Delete

.text.OSAL_SEM_Post
                0x9d00c17c       0x30
 .text.OSAL_SEM_Post
                0x9d00c17c       0x30 build/default/production/_ext/24337685/osal_freertos.o
                0x9d00c17c                OSAL_SEM_Post

.text.OSAL_MUTEX_Unlock
                0x9d00c1ac       0x30
 .text.OSAL_MUTEX_Unlock
                0x9d00c1ac       0x30 build/default/production/_ext/24337685/osal_freertos.o
                0x9d00c1ac                OSAL_MUTEX_Unlock

.text.vListInsertEnd
                0x9d00c1dc       0x30
 .text.vListInsertEnd
                0x9d00c1dc       0x30 build/default/production/_ext/1128951024/list.o
                0x9d00c1dc                vListInsertEnd

.text.pvTimerGetTimerID
                0x9d00c20c       0x30
 .text.pvTimerGetTimerID
                0x9d00c20c       0x30 build/default/production/_ext/1128951024/timers.o
                0x9d00c20c                pvTimerGetTimerID

.text.DRV_TMR0_DividerRangeGet
                0x9d00c23c       0x2c
 .text.DRV_TMR0_DividerRangeGet
                0x9d00c23c       0x2c build/default/production/_ext/1407244131/drv_tmr_static.o
                0x9d00c23c                DRV_TMR0_DividerRangeGet

.text.DRV_TMR1_DividerRangeGet
                0x9d00c268       0x2c
 .text.DRV_TMR1_DividerRangeGet
                0x9d00c268       0x2c build/default/production/_ext/1407244131/drv_tmr_static.o
                0x9d00c268                DRV_TMR1_DividerRangeGet

.text.DRV_TMR2_DividerRangeGet
                0x9d00c294       0x2c
 .text.DRV_TMR2_DividerRangeGet
                0x9d00c294       0x2c build/default/production/_ext/1407244131/drv_tmr_static.o
                0x9d00c294                DRV_TMR2_DividerRangeGet

.text.DRV_TMR3_DividerRangeGet
                0x9d00c2c0       0x2c
 .text.DRV_TMR3_DividerRangeGet
                0x9d00c2c0       0x2c build/default/production/_ext/1407244131/drv_tmr_static.o
                0x9d00c2c0                DRV_TMR3_DividerRangeGet

.text.DRV_USART_Close
                0x9d00c2ec       0x2c
 .text.DRV_USART_Close
                0x9d00c2ec       0x2c build/default/production/_ext/327000265/drv_usart_mapping.o
                0x9d00c2ec                DRV_USART_Close

.text.DRV_USART_WriteByte
                0x9d00c318       0x2c
 .text.DRV_USART_WriteByte
                0x9d00c318       0x2c build/default/production/_ext/327000265/drv_usart_mapping.o
                0x9d00c318                DRV_USART_WriteByte

.text.SYS_PORTS_Set
                0x9d00c344       0x2c
 .text.SYS_PORTS_Set
                0x9d00c344       0x2c build/default/production/_ext/822048611/sys_ports_static.o
                0x9d00c344                SYS_PORTS_Set

.text.SYS_PORTS_PinModeSelect
                0x9d00c370       0x2c
 .text.SYS_PORTS_PinModeSelect
                0x9d00c370       0x2c build/default/production/_ext/822048611/sys_ports_static.o
                0x9d00c370                SYS_PORTS_PinModeSelect

.text.SYS_PORTS_PinRead
                0x9d00c39c       0x2c
 .text.SYS_PORTS_PinRead
                0x9d00c39c       0x2c build/default/production/_ext/822048611/sys_ports_static.o
                0x9d00c39c                SYS_PORTS_PinRead

.text.Pause     0x9d00c3c8       0x2c
 .text.Pause    0x9d00c3c8       0x2c build/default/production/_ext/1360937237/motor_encoder_thread.o
                0x9d00c3c8                Pause

.text.OSAL_SEM_GetCount
                0x9d00c3f4       0x2c
 .text.OSAL_SEM_GetCount
                0x9d00c3f4       0x2c build/default/production/_ext/24337685/osal_freertos.o
                0x9d00c3f4                OSAL_SEM_GetCount

.text.DRV_USART_Deinitialize
                0x9d00c420       0x28
 .text.DRV_USART_Deinitialize
                0x9d00c420       0x28 build/default/production/_ext/327000265/drv_usart_mapping.o
                0x9d00c420                DRV_USART_Deinitialize

.text.DRV_USART_TasksTransmit
                0x9d00c448       0x28
 .text.DRV_USART_TasksTransmit
                0x9d00c448       0x28 build/default/production/_ext/327000265/drv_usart_mapping.o
                0x9d00c448                DRV_USART_TasksTransmit

.text.DRV_USART_TasksReceive
                0x9d00c470       0x28
 .text.DRV_USART_TasksReceive
                0x9d00c470       0x28 build/default/production/_ext/327000265/drv_usart_mapping.o
                0x9d00c470                DRV_USART_TasksReceive

.text.DRV_USART_TasksError
                0x9d00c498       0x28
 .text.DRV_USART_TasksError
                0x9d00c498       0x28 build/default/production/_ext/327000265/drv_usart_mapping.o
                0x9d00c498                DRV_USART_TasksError

.text.DRV_USART0_TasksReceive
                0x9d00c4c0       0x28
 .text.DRV_USART0_TasksReceive
                0x9d00c4c0       0x28 build/default/production/_ext/327000265/drv_usart_static.o
                0x9d00c4c0                DRV_USART0_TasksReceive

.text.DRV_USART0_TasksError
                0x9d00c4e8       0x28
 .text.DRV_USART0_TasksError
                0x9d00c4e8       0x28 build/default/production/_ext/327000265/drv_usart_static.o
                0x9d00c4e8                DRV_USART0_TasksError

.text.SYS_PORTS_Read
                0x9d00c510       0x28
 .text.SYS_PORTS_Read
                0x9d00c510       0x28 build/default/production/_ext/822048611/sys_ports_static.o
                0x9d00c510                SYS_PORTS_Read

.text.SYS_PORTS_Write
                0x9d00c538       0x28
 .text.SYS_PORTS_Write
                0x9d00c538       0x28 build/default/production/_ext/822048611/sys_ports_static.o
                0x9d00c538                SYS_PORTS_Write

.text.SYS_PORTS_Clear
                0x9d00c560       0x28
 .text.SYS_PORTS_Clear
                0x9d00c560       0x28 build/default/production/_ext/822048611/sys_ports_static.o
                0x9d00c560                SYS_PORTS_Clear

.text.SYS_PORTS_DirectionGet
                0x9d00c588       0x28
 .text.SYS_PORTS_DirectionGet
                0x9d00c588       0x28 build/default/production/_ext/822048611/sys_ports_static.o
                0x9d00c588                SYS_PORTS_DirectionGet

.text.SYS_PORTS_Toggle
                0x9d00c5b0       0x28
 .text.SYS_PORTS_Toggle
                0x9d00c5b0       0x28 build/default/production/_ext/822048611/sys_ports_static.o
                0x9d00c5b0                SYS_PORTS_Toggle

.text.SYS_PORTS_OpenDrainEnable
                0x9d00c5d8       0x28
 .text.SYS_PORTS_OpenDrainEnable
                0x9d00c5d8       0x28 build/default/production/_ext/822048611/sys_ports_static.o
                0x9d00c5d8                SYS_PORTS_OpenDrainEnable

.text.SYS_PORTS_OpenDrainDisable
                0x9d00c600       0x28
 .text.SYS_PORTS_OpenDrainDisable
                0x9d00c600       0x28 build/default/production/_ext/822048611/sys_ports_static.o
                0x9d00c600                SYS_PORTS_OpenDrainDisable

.text.SYS_INT_ExternalInterruptTriggerSet
                0x9d00c628       0x28
 .text.SYS_INT_ExternalInterruptTriggerSet
                0x9d00c628       0x28 build/default/production/_ext/122796885/sys_int_pic32.o
                0x9d00c628                SYS_INT_ExternalInterruptTriggerSet

.text.pvTaskIncrementMutexHeldCount
                0x9d00c650       0x28
 .text.pvTaskIncrementMutexHeldCount
                0x9d00c650       0x28 build/default/production/_ext/1128951024/tasks.o
                0x9d00c650                pvTaskIncrementMutexHeldCount

.text.vApplicationStackOverflowHook
                0x9d00c678       0x24
 .text.vApplicationStackOverflowHook
                0x9d00c678       0x24 build/default/production/_ext/1688732426/rtos_hooks.o
                0x9d00c678                vApplicationStackOverflowHook

.text.vApplicationMallocFailedHook
                0x9d00c69c       0x24
 .text.vApplicationMallocFailedHook
                0x9d00c69c       0x24 build/default/production/_ext/1688732426/rtos_hooks.o
                0x9d00c69c                vApplicationMallocFailedHook

.text.Left_Motor_PID
                0x9d00c6c0       0x24
 .text.Left_Motor_PID
                0x9d00c6c0       0x24 build/default/production/_ext/1360937237/motor_encoder_thread.o
                0x9d00c6c0                Left_Motor_PID

.text.Right_Motor_PID
                0x9d00c6e4       0x24
 .text.Right_Motor_PID
                0x9d00c6e4       0x24 build/default/production/_ext/1360937237/motor_encoder_thread.o
                0x9d00c6e4                Right_Motor_PID

.text.prvTaskExitError
                0x9d00c708       0x24
 .text.prvTaskExitError
                0x9d00c708       0x24 build/default/production/_ext/12131622/port.o

.text.uxTaskResetEventItemValue
                0x9d00c72c       0x24
 .text.uxTaskResetEventItemValue
                0x9d00c72c       0x24 build/default/production/_ext/1128951024/tasks.o
                0x9d00c72c                uxTaskResetEventItemValue

.text.DRV_ADC_Open
                0x9d00c750       0x20
 .text.DRV_ADC_Open
                0x9d00c750       0x20 build/default/production/_ext/1361460060/drv_adc_static.o
                0x9d00c750                DRV_ADC_Open

.text.DRV_ADC_SamplesRead
                0x9d00c770       0x20
 .text.DRV_ADC_SamplesRead
                0x9d00c770       0x20 build/default/production/_ext/1361460060/drv_adc_static.o
                0x9d00c770                DRV_ADC_SamplesRead

.text.main      0x9d00c790       0x20
 .text.main     0x9d00c790       0x20 build/default/production/_ext/1360937237/main.o
                0x9d00c790                main

.text.SYS_INT_Disable
                0x9d00c7b0       0x20
 .text.SYS_INT_Disable
                0x9d00c7b0       0x20 build/default/production/_ext/122796885/sys_int_pic32.o
                0x9d00c7b0                SYS_INT_Disable

.text.vListInitialise
                0x9d00c7d0       0x20
 .text.vListInitialise
                0x9d00c7d0       0x20 build/default/production/_ext/1128951024/list.o
                0x9d00c7d0                vListInitialise

.text.xTaskGetSchedulerState
                0x9d00c7f0       0x20
 .text.xTaskGetSchedulerState
                0x9d00c7f0       0x20 build/default/production/_ext/1128951024/tasks.o
                0x9d00c7f0                xTaskGetSchedulerState

.text.DRV_ADC_DeInitialize
                0x9d00c810       0x1c
 .text.DRV_ADC_DeInitialize
                0x9d00c810       0x1c build/default/production/_ext/1361460060/drv_adc_static.o
                0x9d00c810                DRV_ADC_DeInitialize

.text.DRV_ADC_Close
                0x9d00c82c       0x1c
 .text.DRV_ADC_Close
                0x9d00c82c       0x1c build/default/production/_ext/1361460060/drv_adc_static.o
                0x9d00c82c                DRV_ADC_Close

.text.DRV_ADC_ChannelScanInputsAdd
                0x9d00c848       0x1c
 .text.DRV_ADC_ChannelScanInputsAdd
                0x9d00c848       0x1c build/default/production/_ext/1361460060/drv_adc_static.o
                0x9d00c848                DRV_ADC_ChannelScanInputsAdd

.text.SYS_DEVCON_TraceEnable
                0x9d00c864       0x1c
 .text.SYS_DEVCON_TraceEnable
                0x9d00c864       0x1c build/default/production/_ext/340578644/sys_devcon.o
                0x9d00c864                SYS_DEVCON_TraceEnable

.text.SYS_INT_StatusGetAndDisable
                0x9d00c880       0x1c
 .text.SYS_INT_StatusGetAndDisable
                0x9d00c880       0x1c build/default/production/_ext/122796885/sys_int_pic32.o
                0x9d00c880                SYS_INT_StatusGetAndDisable

.text.SYS_INT_StatusRestore
                0x9d00c89c       0x1c
 .text.SYS_INT_StatusRestore
                0x9d00c89c       0x1c build/default/production/_ext/122796885/sys_int_pic32.o
                0x9d00c89c                SYS_INT_StatusRestore

.text.vPortClearInterruptMaskFromISR
                0x9d00c8b8       0x1c
 .text.vPortClearInterruptMaskFromISR
                0x9d00c8b8       0x1c build/default/production/_ext/12131622/port.o
                0x9d00c8b8                vPortClearInterruptMaskFromISR

.text.vQueueDelete
                0x9d00c8d4       0x1c
 .text.vQueueDelete
                0x9d00c8d4       0x1c build/default/production/_ext/1128951024/queue.o
                0x9d00c8d4                vQueueDelete

.text.vEventGroupSetBitsCallback
                0x9d00c8f0       0x1c
 .text.vEventGroupSetBitsCallback
                0x9d00c8f0       0x1c build/default/production/_ext/1128951024/event_groups.o
                0x9d00c8f0                vEventGroupSetBitsCallback

.text.vEventGroupClearBitsCallback
                0x9d00c90c       0x1c
 .text.vEventGroupClearBitsCallback
                0x9d00c90c       0x1c build/default/production/_ext/1128951024/event_groups.o
                0x9d00c90c                vEventGroupClearBitsCallback

.text.DRV_ADC_Start
                0x9d00c928       0x18
 .text.DRV_ADC_Start
                0x9d00c928       0x18 build/default/production/_ext/1361460060/drv_adc_static.o
                0x9d00c928                DRV_ADC_Start

.text.DRV_ADC_Stop
                0x9d00c940       0x18
 .text.DRV_ADC_Stop
                0x9d00c940       0x18 build/default/production/_ext/1361460060/drv_adc_static.o
                0x9d00c940                DRV_ADC_Stop

.text.DRV_USART0_ReceiverBufferIsEmpty
                0x9d00c958       0x18
 .text.DRV_USART0_ReceiverBufferIsEmpty
                0x9d00c958       0x18 build/default/production/_ext/327000265/drv_usart_static_byte_model.o
                0x9d00c958                DRV_USART0_ReceiverBufferIsEmpty

.text.SYS_DEVCON_JTAGEnable
                0x9d00c970       0x18
 .text.SYS_DEVCON_JTAGEnable
                0x9d00c970       0x18 build/default/production/_ext/340578644/sys_devcon.o
                0x9d00c970                SYS_DEVCON_JTAGEnable

.text.SYS_DEVCON_JTAGDisable
                0x9d00c988       0x18
 .text.SYS_DEVCON_JTAGDisable
                0x9d00c988       0x18 build/default/production/_ext/340578644/sys_devcon.o
                0x9d00c988                SYS_DEVCON_JTAGDisable

.text.SYS_DEVCON_TraceDisable
                0x9d00c9a0       0x18
 .text.SYS_DEVCON_TraceDisable
                0x9d00c9a0       0x18 build/default/production/_ext/340578644/sys_devcon.o
                0x9d00c9a0                SYS_DEVCON_TraceDisable

.text.SYS_PORTS_ChangeNotificationDisable
                0x9d00c9b8       0x18
 .text.SYS_PORTS_ChangeNotificationDisable
                0x9d00c9b8       0x18 build/default/production/_ext/822048611/sys_ports_static.o
                0x9d00c9b8                SYS_PORTS_ChangeNotificationDisable

.text.SYS_PORTS_ChangeNotificationPullUpEnable
                0x9d00c9d0       0x18
 .text.SYS_PORTS_ChangeNotificationPullUpEnable
                0x9d00c9d0       0x18 build/default/production/_ext/822048611/sys_ports_static.o
                0x9d00c9d0                SYS_PORTS_ChangeNotificationPullUpEnable

.text.SYS_PORTS_ChangeNotificationPullUpDisable
                0x9d00c9e8       0x18
 .text.SYS_PORTS_ChangeNotificationPullUpDisable
                0x9d00c9e8       0x18 build/default/production/_ext/822048611/sys_ports_static.o
                0x9d00c9e8                SYS_PORTS_ChangeNotificationPullUpDisable

.text.IntHandlerDrvTmrInstance0
                0x9d00ca00       0x18
 .text.IntHandlerDrvTmrInstance0
                0x9d00ca00       0x18 build/default/production/_ext/1688732426/system_interrupt.o
                0x9d00ca00                IntHandlerDrvTmrInstance0

.text.IntHandlerDrvTmrInstance1
                0x9d00ca18       0x18
 .text.IntHandlerDrvTmrInstance1
                0x9d00ca18       0x18 build/default/production/_ext/1688732426/system_interrupt.o
                0x9d00ca18                IntHandlerDrvTmrInstance1

.text.IntHandlerDrvTmrInstance2
                0x9d00ca30       0x18
 .text.IntHandlerDrvTmrInstance2
                0x9d00ca30       0x18 build/default/production/_ext/1688732426/system_interrupt.o
                0x9d00ca30                IntHandlerDrvTmrInstance2

.text._CONTROL_Tasks
                0x9d00ca48       0x18
 .text._CONTROL_Tasks
                0x9d00ca48       0x18 build/default/production/_ext/1688732426/system_tasks.o

.text._MOTOR_ENCODER_THREAD_Tasks
                0x9d00ca60       0x18
 .text._MOTOR_ENCODER_THREAD_Tasks
                0x9d00ca60       0x18 build/default/production/_ext/1688732426/system_tasks.o

.text._WIFITRANSMIT_Tasks
                0x9d00ca78       0x18
 .text._WIFITRANSMIT_Tasks
                0x9d00ca78       0x18 build/default/production/_ext/1688732426/system_tasks.o

.text._WIFIRECEIVE_Tasks
                0x9d00ca90       0x18
 .text._WIFIRECEIVE_Tasks
                0x9d00ca90       0x18 build/default/production/_ext/1688732426/system_tasks.o

.rodata         0x9d00caa8       0x18
 .rodata        0x9d00caa8       0x18 build/default/production/_ext/1360937237/WiFiReceive.o

.text           0x9d00cac0       0x18
 .text          0x9d00cac0       0x18 c:/program files (x86)/microchip/xc32/v1.44/bin/bin/../../lib/gcc/pic32mx/4.8.3/../../../../pic32mx/lib\libpic32.a(default-nmi-handler.o)
                0x9d00cac0                _nmi_handler

.text.DRV_ADC_ChannelScanInputsRemove
                0x9d00cad8       0x14
 .text.DRV_ADC_ChannelScanInputsRemove
                0x9d00cad8       0x14 build/default/production/_ext/1361460060/drv_adc_static.o
                0x9d00cad8                DRV_ADC_ChannelScanInputsRemove

.text.DRV_ADC_SamplesAvailable
                0x9d00caec       0x14
 .text.DRV_ADC_SamplesAvailable
                0x9d00caec       0x14 build/default/production/_ext/1361460060/drv_adc_static.o
                0x9d00caec                DRV_ADC_SamplesAvailable

.text.DRV_OC0_Enable
                0x9d00cb00       0x14
 .text.DRV_OC0_Enable
                0x9d00cb00       0x14 build/default/production/_ext/1047219354/drv_oc_static.o
                0x9d00cb00                DRV_OC0_Enable

.text.DRV_OC0_Disable
                0x9d00cb14       0x14
 .text.DRV_OC0_Disable
                0x9d00cb14       0x14 build/default/production/_ext/1047219354/drv_oc_static.o
                0x9d00cb14                DRV_OC0_Disable

.text.DRV_OC0_Start
                0x9d00cb28       0x14
 .text.DRV_OC0_Start
                0x9d00cb28       0x14 build/default/production/_ext/1047219354/drv_oc_static.o
                0x9d00cb28                DRV_OC0_Start

.text.DRV_OC0_Stop
                0x9d00cb3c       0x14
 .text.DRV_OC0_Stop
                0x9d00cb3c       0x14 build/default/production/_ext/1047219354/drv_oc_static.o
                0x9d00cb3c                DRV_OC0_Stop

.text.DRV_OC0_PulseWidthSet
                0x9d00cb50       0x14
 .text.DRV_OC0_PulseWidthSet
                0x9d00cb50       0x14 build/default/production/_ext/1047219354/drv_oc_static.o
                0x9d00cb50                DRV_OC0_PulseWidthSet

.text.DRV_OC1_Enable
                0x9d00cb64       0x14
 .text.DRV_OC1_Enable
                0x9d00cb64       0x14 build/default/production/_ext/1047219354/drv_oc_static.o
                0x9d00cb64                DRV_OC1_Enable

.text.DRV_OC1_Disable
                0x9d00cb78       0x14
 .text.DRV_OC1_Disable
                0x9d00cb78       0x14 build/default/production/_ext/1047219354/drv_oc_static.o
                0x9d00cb78                DRV_OC1_Disable

.text.DRV_OC1_Start
                0x9d00cb8c       0x14
 .text.DRV_OC1_Start
                0x9d00cb8c       0x14 build/default/production/_ext/1047219354/drv_oc_static.o
                0x9d00cb8c                DRV_OC1_Start

.text.DRV_OC1_Stop
                0x9d00cba0       0x14
 .text.DRV_OC1_Stop
                0x9d00cba0       0x14 build/default/production/_ext/1047219354/drv_oc_static.o
                0x9d00cba0                DRV_OC1_Stop

.text.DRV_OC1_PulseWidthSet
                0x9d00cbb4       0x14
 .text.DRV_OC1_PulseWidthSet
                0x9d00cbb4       0x14 build/default/production/_ext/1047219354/drv_oc_static.o
                0x9d00cbb4                DRV_OC1_PulseWidthSet

.text.DRV_OC2_Enable
                0x9d00cbc8       0x14
 .text.DRV_OC2_Enable
                0x9d00cbc8       0x14 build/default/production/_ext/1047219354/drv_oc_static.o
                0x9d00cbc8                DRV_OC2_Enable

.text.DRV_OC2_Disable
                0x9d00cbdc       0x14
 .text.DRV_OC2_Disable
                0x9d00cbdc       0x14 build/default/production/_ext/1047219354/drv_oc_static.o
                0x9d00cbdc                DRV_OC2_Disable

.text.DRV_OC2_Start
                0x9d00cbf0       0x14
 .text.DRV_OC2_Start
                0x9d00cbf0       0x14 build/default/production/_ext/1047219354/drv_oc_static.o
                0x9d00cbf0                DRV_OC2_Start

.text.DRV_OC2_Stop
                0x9d00cc04       0x14
 .text.DRV_OC2_Stop
                0x9d00cc04       0x14 build/default/production/_ext/1047219354/drv_oc_static.o
                0x9d00cc04                DRV_OC2_Stop

.text.DRV_OC2_PulseWidthSet
                0x9d00cc18       0x14
 .text.DRV_OC2_PulseWidthSet
                0x9d00cc18       0x14 build/default/production/_ext/1047219354/drv_oc_static.o
                0x9d00cc18                DRV_OC2_PulseWidthSet

.text.DRV_OC3_Enable
                0x9d00cc2c       0x14
 .text.DRV_OC3_Enable
                0x9d00cc2c       0x14 build/default/production/_ext/1047219354/drv_oc_static.o
                0x9d00cc2c                DRV_OC3_Enable

.text.DRV_OC3_Disable
                0x9d00cc40       0x14
 .text.DRV_OC3_Disable
                0x9d00cc40       0x14 build/default/production/_ext/1047219354/drv_oc_static.o
                0x9d00cc40                DRV_OC3_Disable

.text.DRV_OC3_Start
                0x9d00cc54       0x14
 .text.DRV_OC3_Start
                0x9d00cc54       0x14 build/default/production/_ext/1047219354/drv_oc_static.o
                0x9d00cc54                DRV_OC3_Start

.text.DRV_OC3_Stop
                0x9d00cc68       0x14
 .text.DRV_OC3_Stop
                0x9d00cc68       0x14 build/default/production/_ext/1047219354/drv_oc_static.o
                0x9d00cc68                DRV_OC3_Stop

.text.DRV_OC3_PulseWidthSet
                0x9d00cc7c       0x14
 .text.DRV_OC3_PulseWidthSet
                0x9d00cc7c       0x14 build/default/production/_ext/1047219354/drv_oc_static.o
                0x9d00cc7c                DRV_OC3_PulseWidthSet

.text.DRV_TMR0_ClientStatus
                0x9d00cc90       0x14
 .text.DRV_TMR0_ClientStatus
                0x9d00cc90       0x14 build/default/production/_ext/1407244131/drv_tmr_static.o
                0x9d00cc90                DRV_TMR0_ClientStatus

.text.DRV_TMR0_CounterValueSet
                0x9d00cca4       0x14
 .text.DRV_TMR0_CounterValueSet
                0x9d00cca4       0x14 build/default/production/_ext/1407244131/drv_tmr_static.o
                0x9d00cca4                DRV_TMR0_CounterValueSet

.text.DRV_TMR0_CounterValueGet
                0x9d00ccb8       0x14
 .text.DRV_TMR0_CounterValueGet
                0x9d00ccb8       0x14 build/default/production/_ext/1407244131/drv_tmr_static.o
                0x9d00ccb8                DRV_TMR0_CounterValueGet

.text.DRV_TMR0_PeriodValueSet
                0x9d00cccc       0x14
 .text.DRV_TMR0_PeriodValueSet
                0x9d00cccc       0x14 build/default/production/_ext/1407244131/drv_tmr_static.o
                0x9d00cccc                DRV_TMR0_PeriodValueSet

.text.DRV_TMR0_PeriodValueGet
                0x9d00cce0       0x14
 .text.DRV_TMR0_PeriodValueGet
                0x9d00cce0       0x14 build/default/production/_ext/1407244131/drv_tmr_static.o
                0x9d00cce0                DRV_TMR0_PeriodValueGet

.text.DRV_TMR0_StopInIdleDisable
                0x9d00ccf4       0x14
 .text.DRV_TMR0_StopInIdleDisable
                0x9d00ccf4       0x14 build/default/production/_ext/1407244131/drv_tmr_static.o
                0x9d00ccf4                DRV_TMR0_StopInIdleDisable

.text.DRV_TMR0_StopInIdleEnable
                0x9d00cd08       0x14
 .text.DRV_TMR0_StopInIdleEnable
                0x9d00cd08       0x14 build/default/production/_ext/1407244131/drv_tmr_static.o
                0x9d00cd08                DRV_TMR0_StopInIdleEnable

.text.DRV_TMR1_ClientStatus
                0x9d00cd1c       0x14
 .text.DRV_TMR1_ClientStatus
                0x9d00cd1c       0x14 build/default/production/_ext/1407244131/drv_tmr_static.o
                0x9d00cd1c                DRV_TMR1_ClientStatus

.text.DRV_TMR1_CounterValueSet
                0x9d00cd30       0x14
 .text.DRV_TMR1_CounterValueSet
                0x9d00cd30       0x14 build/default/production/_ext/1407244131/drv_tmr_static.o
                0x9d00cd30                DRV_TMR1_CounterValueSet

.text.DRV_TMR1_CounterValueGet
                0x9d00cd44       0x14
 .text.DRV_TMR1_CounterValueGet
                0x9d00cd44       0x14 build/default/production/_ext/1407244131/drv_tmr_static.o
                0x9d00cd44                DRV_TMR1_CounterValueGet

.text.DRV_TMR1_PeriodValueSet
                0x9d00cd58       0x14
 .text.DRV_TMR1_PeriodValueSet
                0x9d00cd58       0x14 build/default/production/_ext/1407244131/drv_tmr_static.o
                0x9d00cd58                DRV_TMR1_PeriodValueSet

.text.DRV_TMR1_PeriodValueGet
                0x9d00cd6c       0x14
 .text.DRV_TMR1_PeriodValueGet
                0x9d00cd6c       0x14 build/default/production/_ext/1407244131/drv_tmr_static.o
                0x9d00cd6c                DRV_TMR1_PeriodValueGet

.text.DRV_TMR1_StopInIdleDisable
                0x9d00cd80       0x14
 .text.DRV_TMR1_StopInIdleDisable
                0x9d00cd80       0x14 build/default/production/_ext/1407244131/drv_tmr_static.o
                0x9d00cd80                DRV_TMR1_StopInIdleDisable

.text.DRV_TMR1_StopInIdleEnable
                0x9d00cd94       0x14
 .text.DRV_TMR1_StopInIdleEnable
                0x9d00cd94       0x14 build/default/production/_ext/1407244131/drv_tmr_static.o
                0x9d00cd94                DRV_TMR1_StopInIdleEnable

.text.DRV_TMR2_ClientStatus
                0x9d00cda8       0x14
 .text.DRV_TMR2_ClientStatus
                0x9d00cda8       0x14 build/default/production/_ext/1407244131/drv_tmr_static.o
                0x9d00cda8                DRV_TMR2_ClientStatus

.text.DRV_TMR2_CounterValueSet
                0x9d00cdbc       0x14
 .text.DRV_TMR2_CounterValueSet
                0x9d00cdbc       0x14 build/default/production/_ext/1407244131/drv_tmr_static.o
                0x9d00cdbc                DRV_TMR2_CounterValueSet

.text.DRV_TMR2_CounterValueGet
                0x9d00cdd0       0x14
 .text.DRV_TMR2_CounterValueGet
                0x9d00cdd0       0x14 build/default/production/_ext/1407244131/drv_tmr_static.o
                0x9d00cdd0                DRV_TMR2_CounterValueGet

.text.DRV_TMR2_PeriodValueSet
                0x9d00cde4       0x14
 .text.DRV_TMR2_PeriodValueSet
                0x9d00cde4       0x14 build/default/production/_ext/1407244131/drv_tmr_static.o
                0x9d00cde4                DRV_TMR2_PeriodValueSet

.text.DRV_TMR2_PeriodValueGet
                0x9d00cdf8       0x14
 .text.DRV_TMR2_PeriodValueGet
                0x9d00cdf8       0x14 build/default/production/_ext/1407244131/drv_tmr_static.o
                0x9d00cdf8                DRV_TMR2_PeriodValueGet

.text.DRV_TMR2_StopInIdleDisable
                0x9d00ce0c       0x14
 .text.DRV_TMR2_StopInIdleDisable
                0x9d00ce0c       0x14 build/default/production/_ext/1407244131/drv_tmr_static.o
                0x9d00ce0c                DRV_TMR2_StopInIdleDisable

.text.DRV_TMR2_StopInIdleEnable
                0x9d00ce20       0x14
 .text.DRV_TMR2_StopInIdleEnable
                0x9d00ce20       0x14 build/default/production/_ext/1407244131/drv_tmr_static.o
                0x9d00ce20                DRV_TMR2_StopInIdleEnable

.text.DRV_TMR3_ClientStatus
                0x9d00ce34       0x14
 .text.DRV_TMR3_ClientStatus
                0x9d00ce34       0x14 build/default/production/_ext/1407244131/drv_tmr_static.o
                0x9d00ce34                DRV_TMR3_ClientStatus

.text.DRV_TMR3_CounterValueSet
                0x9d00ce48       0x14
 .text.DRV_TMR3_CounterValueSet
                0x9d00ce48       0x14 build/default/production/_ext/1407244131/drv_tmr_static.o
                0x9d00ce48                DRV_TMR3_CounterValueSet

.text.DRV_TMR3_CounterValueGet
                0x9d00ce5c       0x14
 .text.DRV_TMR3_CounterValueGet
                0x9d00ce5c       0x14 build/default/production/_ext/1407244131/drv_tmr_static.o
                0x9d00ce5c                DRV_TMR3_CounterValueGet

.text.DRV_TMR3_PeriodValueSet
                0x9d00ce70       0x14
 .text.DRV_TMR3_PeriodValueSet
                0x9d00ce70       0x14 build/default/production/_ext/1407244131/drv_tmr_static.o
                0x9d00ce70                DRV_TMR3_PeriodValueSet

.text.DRV_TMR3_PeriodValueGet
                0x9d00ce84       0x14
 .text.DRV_TMR3_PeriodValueGet
                0x9d00ce84       0x14 build/default/production/_ext/1407244131/drv_tmr_static.o
                0x9d00ce84                DRV_TMR3_PeriodValueGet

.text.DRV_TMR3_StopInIdleDisable
                0x9d00ce98       0x14
 .text.DRV_TMR3_StopInIdleDisable
                0x9d00ce98       0x14 build/default/production/_ext/1407244131/drv_tmr_static.o
                0x9d00ce98                DRV_TMR3_StopInIdleDisable

.text.DRV_TMR3_StopInIdleEnable
                0x9d00ceac       0x14
 .text.DRV_TMR3_StopInIdleEnable
                0x9d00ceac       0x14 build/default/production/_ext/1407244131/drv_tmr_static.o
                0x9d00ceac                DRV_TMR3_StopInIdleEnable

.text.DRV_USART0_TransmitBufferIsFull
                0x9d00cec0       0x14
 .text.DRV_USART0_TransmitBufferIsFull
                0x9d00cec0       0x14 build/default/production/_ext/327000265/drv_usart_static_byte_model.o
                0x9d00cec0                DRV_USART0_TransmitBufferIsFull

.text.SYS_DEVCON_Initialize
                0x9d00ced4       0x14
 .text.SYS_DEVCON_Initialize
                0x9d00ced4       0x14 build/default/production/_ext/340578644/sys_devcon.o
                0x9d00ced4                SYS_DEVCON_Initialize

.text.SYS_PORTS_ChangeNotificationGlobalEnable
                0x9d00cee8       0x14
 .text.SYS_PORTS_ChangeNotificationGlobalEnable
                0x9d00cee8       0x14 build/default/production/_ext/822048611/sys_ports_static.o
                0x9d00cee8                SYS_PORTS_ChangeNotificationGlobalEnable

.text.SYS_PORTS_ChangeNotificationGlobalDisable
                0x9d00cefc       0x14
 .text.SYS_PORTS_ChangeNotificationGlobalDisable
                0x9d00cefc       0x14 build/default/production/_ext/822048611/sys_ports_static.o
                0x9d00cefc                SYS_PORTS_ChangeNotificationGlobalDisable

.text.SYS_PORTS_GlobalChangeNotificationDisable
                0x9d00cf10       0x14
 .text.SYS_PORTS_GlobalChangeNotificationDisable
                0x9d00cf10       0x14 build/default/production/_ext/822048611/sys_ports_static.o
                0x9d00cf10                SYS_PORTS_GlobalChangeNotificationDisable

.text.SYS_PORTS_ChangeNotificationInIdleModeEnable
                0x9d00cf24       0x14
 .text.SYS_PORTS_ChangeNotificationInIdleModeEnable
                0x9d00cf24       0x14 build/default/production/_ext/822048611/sys_ports_static.o
                0x9d00cf24                SYS_PORTS_ChangeNotificationInIdleModeEnable

.text.SYS_PORTS_ChangeNotificationInIdleModeDisable
                0x9d00cf38       0x14
 .text.SYS_PORTS_ChangeNotificationInIdleModeDisable
                0x9d00cf38       0x14 build/default/production/_ext/822048611/sys_ports_static.o
                0x9d00cf38                SYS_PORTS_ChangeNotificationInIdleModeDisable

.text.jsmn_init
                0x9d00cf4c       0x14
 .text.jsmn_init
                0x9d00cf4c       0x14 build/default/production/_ext/1360937237/jsmn.o
                0x9d00cf4c                jsmn_init

.text.SYS_INT_Initialize
                0x9d00cf60       0x14
 .text.SYS_INT_Initialize
                0x9d00cf60       0x14 build/default/production/_ext/122796885/sys_int_pic32.o
                0x9d00cf60                SYS_INT_Initialize

.text.xPortGetFreeHeapSize
                0x9d00cf74       0x14
 .text.xPortGetFreeHeapSize
                0x9d00cf74       0x14 build/default/production/_ext/1856876499/heap_1.o
                0x9d00cf74                xPortGetFreeHeapSize

.text.xQueueIsQueueFullFromISR
                0x9d00cf88       0x14
 .text.xQueueIsQueueFullFromISR
                0x9d00cf88       0x14 build/default/production/_ext/1128951024/queue.o
                0x9d00cf88                xQueueIsQueueFullFromISR

.text.vTaskSuspendAll
                0x9d00cf9c       0x14
 .text.vTaskSuspendAll
                0x9d00cf9c       0x14 build/default/production/_ext/1128951024/tasks.o
                0x9d00cf9c                vTaskSuspendAll

.text.vTaskSetTimeOutState
                0x9d00cfb0       0x14
 .text.vTaskSetTimeOutState
                0x9d00cfb0       0x14 build/default/production/_ext/1128951024/tasks.o
                0x9d00cfb0                vTaskSetTimeOutState

.text.DRV_OC0_FaultHasOccurred
                0x9d00cfc4       0x10
 .text.DRV_OC0_FaultHasOccurred
                0x9d00cfc4       0x10 build/default/production/_ext/1047219354/drv_oc_static.o
                0x9d00cfc4                DRV_OC0_FaultHasOccurred

.text.DRV_OC1_FaultHasOccurred
                0x9d00cfd4       0x10
 .text.DRV_OC1_FaultHasOccurred
                0x9d00cfd4       0x10 build/default/production/_ext/1047219354/drv_oc_static.o
                0x9d00cfd4                DRV_OC1_FaultHasOccurred

.text.DRV_OC2_FaultHasOccurred
                0x9d00cfe4       0x10
 .text.DRV_OC2_FaultHasOccurred
                0x9d00cfe4       0x10 build/default/production/_ext/1047219354/drv_oc_static.o
                0x9d00cfe4                DRV_OC2_FaultHasOccurred

.text.DRV_OC3_FaultHasOccurred
                0x9d00cff4       0x10
 .text.DRV_OC3_FaultHasOccurred
                0x9d00cff4       0x10 build/default/production/_ext/1047219354/drv_oc_static.o
                0x9d00cff4                DRV_OC3_FaultHasOccurred

.text.DRV_TMR0_CounterClear
                0x9d00d004       0x10
 .text.DRV_TMR0_CounterClear
                0x9d00d004       0x10 build/default/production/_ext/1407244131/drv_tmr_static.o
                0x9d00d004                DRV_TMR0_CounterClear

.text.DRV_TMR1_CounterClear
                0x9d00d014       0x10
 .text.DRV_TMR1_CounterClear
                0x9d00d014       0x10 build/default/production/_ext/1407244131/drv_tmr_static.o
                0x9d00d014                DRV_TMR1_CounterClear

.text.DRV_TMR2_CounterClear
                0x9d00d024       0x10
 .text.DRV_TMR2_CounterClear
                0x9d00d024       0x10 build/default/production/_ext/1407244131/drv_tmr_static.o
                0x9d00d024                DRV_TMR2_CounterClear

.text.DRV_TMR3_CounterClear
                0x9d00d034       0x10
 .text.DRV_TMR3_CounterClear
                0x9d00d034       0x10 build/default/production/_ext/1407244131/drv_tmr_static.o
                0x9d00d034                DRV_TMR3_CounterClear

.text.DRV_USART0_ErrorGet
                0x9d00d044       0x10
 .text.DRV_USART0_ErrorGet
                0x9d00d044       0x10 build/default/production/_ext/327000265/drv_usart_static.o
                0x9d00d044                DRV_USART0_ErrorGet

.text.SYS_CLK_SecondaryOscillatorIsEnabled
                0x9d00d054       0x10
 .text.SYS_CLK_SecondaryOscillatorIsEnabled
                0x9d00d054       0x10 build/default/production/_ext/639803181/sys_clk_pic32mx.o
                0x9d00d054                SYS_CLK_SecondaryOscillatorIsEnabled

.text.SYS_DEVCON_Reinitialize
                0x9d00d064       0x10
 .text.SYS_DEVCON_Reinitialize
                0x9d00d064       0x10 build/default/production/_ext/340578644/sys_devcon.o
                0x9d00d064                SYS_DEVCON_Reinitialize

.rodata         0x9d00d074       0x10
 .rodata        0x9d00d074       0x10 build/default/production/_ext/1360937237/Control.o

.text.pcTaskGetName
                0x9d00d084       0x10
 .text.pcTaskGetName
                0x9d00d084       0x10 build/default/production/_ext/1128951024/tasks.o
                0x9d00d084                pcTaskGetName

.text.vTaskMissedYield
                0x9d00d094       0x10
 .text.vTaskMissedYield
                0x9d00d094       0x10 build/default/production/_ext/1128951024/tasks.o
                0x9d00d094                vTaskMissedYield

.text.SYS_CLK_SystemFrequencyGet
                0x9d00d0a4        0xc
 .text.SYS_CLK_SystemFrequencyGet
                0x9d00d0a4        0xc build/default/production/_ext/639803181/sys_clk_pic32mx.o
                0x9d00d0a4                SYS_CLK_SystemFrequencyGet

.text.SYS_CLK_PeripheralFrequencyGet
                0x9d00d0b0        0xc
 .text.SYS_CLK_PeripheralFrequencyGet
                0x9d00d0b0        0xc build/default/production/_ext/639803181/sys_clk_pic32mx.o
                0x9d00d0b0                SYS_CLK_PeripheralFrequencyGet

.rodata         0x9d00d0bc       0x18
 .rodata        0x9d00d0bc        0xc build/default/production/_ext/1360937237/motor_encoder_thread.o
 .rodata        0x9d00d0c8        0xc build/default/production/_ext/24337685/osal_freertos.o

.text.OSAL_Name
                0x9d00d0d4        0xc
 .text.OSAL_Name
                0x9d00d0d4        0xc build/default/production/_ext/24337685/osal_freertos.o
                0x9d00d0d4                OSAL_Name

.text.uxQueueMessagesWaitingFromISR
                0x9d00d0e0        0xc
 .text.uxQueueMessagesWaitingFromISR
                0x9d00d0e0        0xc build/default/production/_ext/1128951024/queue.o
                0x9d00d0e0                uxQueueMessagesWaitingFromISR

.text.xQueueIsQueueEmptyFromISR
                0x9d00d0ec        0xc
 .text.xQueueIsQueueEmptyFromISR
                0x9d00d0ec        0xc build/default/production/_ext/1128951024/queue.o
                0x9d00d0ec                xQueueIsQueueEmptyFromISR

.text.xTaskGetTickCount
                0x9d00d0f8        0xc
 .text.xTaskGetTickCount
                0x9d00d0f8        0xc build/default/production/_ext/1128951024/tasks.o
                0x9d00d0f8                xTaskGetTickCount

.text.xTaskGetTickCountFromISR
                0x9d00d104        0xc
 .text.xTaskGetTickCountFromISR
                0x9d00d104        0xc build/default/production/_ext/1128951024/tasks.o
                0x9d00d104                xTaskGetTickCountFromISR

.text.uxTaskGetNumberOfTasks
                0x9d00d110        0xc
 .text.uxTaskGetNumberOfTasks
                0x9d00d110        0xc build/default/production/_ext/1128951024/tasks.o
                0x9d00d110                uxTaskGetNumberOfTasks

.text.xTaskGetCurrentTaskHandle
                0x9d00d11c        0xc
 .text.xTaskGetCurrentTaskHandle
                0x9d00d11c        0xc build/default/production/_ext/1128951024/tasks.o
                0x9d00d11c                xTaskGetCurrentTaskHandle

.text.DRV_OC_CompareValuesSingleSet
                0x9d00d128        0x8
 .text.DRV_OC_CompareValuesSingleSet
                0x9d00d128        0x8 build/default/production/_ext/1047219354/drv_oc_mapping.o
                0x9d00d128                DRV_OC_CompareValuesSingleSet

.text.DRV_OC_CompareValuesDualSet
                0x9d00d130        0x8
 .text.DRV_OC_CompareValuesDualSet
                0x9d00d130        0x8 build/default/production/_ext/1047219354/drv_oc_mapping.o
                0x9d00d130                DRV_OC_CompareValuesDualSet

.text.DRV_TMR1_CounterFrequencyGet
                0x9d00d138        0x8
 .text.DRV_TMR1_CounterFrequencyGet
                0x9d00d138        0x8 build/default/production/_ext/1407244131/drv_tmr_static.o
                0x9d00d138                DRV_TMR1_CounterFrequencyGet

.text.DRV_TMR2_CounterFrequencyGet
                0x9d00d140        0x8
 .text.DRV_TMR2_CounterFrequencyGet
                0x9d00d140        0x8 build/default/production/_ext/1407244131/drv_tmr_static.o
                0x9d00d140                DRV_TMR2_CounterFrequencyGet

.text.DRV_TMR_Status
                0x9d00d148        0x8
 .text.DRV_TMR_Status
                0x9d00d148        0x8 build/default/production/_ext/1407244131/drv_tmr_mapping.o
                0x9d00d148                DRV_TMR_Status

.text.DRV_TMR_Tasks
                0x9d00d150        0x8
 .text.DRV_TMR_Tasks
                0x9d00d150        0x8 build/default/production/_ext/1407244131/drv_tmr_mapping.o
                0x9d00d150                DRV_TMR_Tasks

.text.DRV_TMR_AlarmRegister
                0x9d00d158        0x8
 .text.DRV_TMR_AlarmRegister
                0x9d00d158        0x8 build/default/production/_ext/1407244131/drv_tmr_mapping.o
                0x9d00d158                DRV_TMR_AlarmRegister

.text.DRV_TMR_AlarmDisable
                0x9d00d160        0x8
 .text.DRV_TMR_AlarmDisable
                0x9d00d160        0x8 build/default/production/_ext/1407244131/drv_tmr_mapping.o
                0x9d00d160                DRV_TMR_AlarmDisable

.text.DRV_TMR_AlarmEnable
                0x9d00d168        0x8
 .text.DRV_TMR_AlarmEnable
                0x9d00d168        0x8 build/default/production/_ext/1407244131/drv_tmr_mapping.o
                0x9d00d168                DRV_TMR_AlarmEnable

.text.DRV_TMR_AlarmPeriodSet
                0x9d00d170        0x8
 .text.DRV_TMR_AlarmPeriodSet
                0x9d00d170        0x8 build/default/production/_ext/1407244131/drv_tmr_mapping.o
                0x9d00d170                DRV_TMR_AlarmPeriodSet

.text.DRV_TMR_AlarmPeriodGet
                0x9d00d178        0x8
 .text.DRV_TMR_AlarmPeriodGet
                0x9d00d178        0x8 build/default/production/_ext/1407244131/drv_tmr_mapping.o
                0x9d00d178                DRV_TMR_AlarmPeriodGet

.text.DRV_TMR_AlarmDeregister
                0x9d00d180        0x8
 .text.DRV_TMR_AlarmDeregister
                0x9d00d180        0x8 build/default/production/_ext/1407244131/drv_tmr_mapping.o
                0x9d00d180                DRV_TMR_AlarmDeregister

.text.DRV_TMR_AlarmHasElapsed
                0x9d00d188        0x8
 .text.DRV_TMR_AlarmHasElapsed
                0x9d00d188        0x8 build/default/production/_ext/1407244131/drv_tmr_mapping.o
                0x9d00d188                DRV_TMR_AlarmHasElapsed

.text.DRV_TMR_OperationModeGet
                0x9d00d190        0x8
 .text.DRV_TMR_OperationModeGet
                0x9d00d190        0x8 build/default/production/_ext/1407244131/drv_tmr_mapping.o
                0x9d00d190                DRV_TMR_OperationModeGet

.text.DRV_TMR_GateModeSet
                0x9d00d198        0x8
 .text.DRV_TMR_GateModeSet
                0x9d00d198        0x8 build/default/production/_ext/1407244131/drv_tmr_mapping.o
                0x9d00d198                DRV_TMR_GateModeSet

.text.DRV_TMR_GateModeClear
                0x9d00d1a0        0x8
 .text.DRV_TMR_GateModeClear
                0x9d00d1a0        0x8 build/default/production/_ext/1407244131/drv_tmr_mapping.o
                0x9d00d1a0                DRV_TMR_GateModeClear

.text.DRV_USART0_Status
                0x9d00d1a8        0x8
 .text.DRV_USART0_Status
                0x9d00d1a8        0x8 build/default/production/_ext/327000265/drv_usart_static.o
                0x9d00d1a8                DRV_USART0_Status

.text.DRV_USART0_Open
                0x9d00d1b0        0x8
 .text.DRV_USART0_Open
                0x9d00d1b0        0x8 build/default/production/_ext/327000265/drv_usart_static.o
                0x9d00d1b0                DRV_USART0_Open

.text.DRV_USART0_Close
                0x9d00d1b8        0x8
 .text.DRV_USART0_Close
                0x9d00d1b8        0x8 build/default/production/_ext/327000265/drv_usart_static.o
                0x9d00d1b8                DRV_USART0_Close

.text.DRV_USART0_ClientStatus
                0x9d00d1c0        0x8
 .text.DRV_USART0_ClientStatus
                0x9d00d1c0        0x8 build/default/production/_ext/327000265/drv_usart_static.o
                0x9d00d1c0                DRV_USART0_ClientStatus

.text.DRV_USART0_ReceiverBufferSizeGet
                0x9d00d1c8        0x8
 .text.DRV_USART0_ReceiverBufferSizeGet
                0x9d00d1c8        0x8 build/default/production/_ext/327000265/drv_usart_static_byte_model.o
                0x9d00d1c8                DRV_USART0_ReceiverBufferSizeGet

.text.DRV_USART0_TransmitBufferSizeGet
                0x9d00d1d0        0x8
 .text.DRV_USART0_TransmitBufferSizeGet
                0x9d00d1d0        0x8 build/default/production/_ext/327000265/drv_usart_static_byte_model.o
                0x9d00d1d0                DRV_USART0_TransmitBufferSizeGet

.text.SYS_CLK_ReferenceFrequencyGet
                0x9d00d1d8        0x8
 .text.SYS_CLK_ReferenceFrequencyGet
                0x9d00d1d8        0x8 build/default/production/_ext/639803181/sys_clk_pic32mx.o
                0x9d00d1d8                SYS_CLK_ReferenceFrequencyGet

.text.SYS_DEVCON_Deinitialize
                0x9d00d1e0        0x8
 .text.SYS_DEVCON_Deinitialize
                0x9d00d1e0        0x8 build/default/production/_ext/340578644/sys_devcon.o
                0x9d00d1e0                SYS_DEVCON_Deinitialize

.text.SYS_DEVCON_Status
                0x9d00d1e8        0x8
 .text.SYS_DEVCON_Status
                0x9d00d1e8        0x8 build/default/production/_ext/340578644/sys_devcon.o
                0x9d00d1e8                SYS_DEVCON_Status

.text.SYS_DEVCON_Tasks
                0x9d00d1f0        0x8
 .text.SYS_DEVCON_Tasks
                0x9d00d1f0        0x8 build/default/production/_ext/340578644/sys_devcon.o
                0x9d00d1f0                SYS_DEVCON_Tasks

.text.SYS_PORTS_LatchedGet
                0x9d00d1f8        0x8
 .text.SYS_PORTS_LatchedGet
                0x9d00d1f8        0x8 build/default/production/_ext/822048611/sys_ports_static.o
                0x9d00d1f8                SYS_PORTS_LatchedGet

.text.SYS_PORTS_InterruptStatusGet
                0x9d00d200        0x8
 .text.SYS_PORTS_InterruptStatusGet
                0x9d00d200        0x8 build/default/production/_ext/822048611/sys_ports_static.o
                0x9d00d200                SYS_PORTS_InterruptStatusGet

.text.SYS_PORTS_PinLatchedGet
                0x9d00d208        0x8
 .text.SYS_PORTS_PinLatchedGet
                0x9d00d208        0x8 build/default/production/_ext/822048611/sys_ports_static.o
                0x9d00d208                SYS_PORTS_PinLatchedGet

.text.SYS_PORTS_PinPullUpEnable
                0x9d00d210        0x8
 .text.SYS_PORTS_PinPullUpEnable
                0x9d00d210        0x8 build/default/production/_ext/822048611/sys_ports_static.o
                0x9d00d210                SYS_PORTS_PinPullUpEnable

.text.SYS_PORTS_PinPullUpDisable
                0x9d00d218        0x8
 .text.SYS_PORTS_PinPullUpDisable
                0x9d00d218        0x8 build/default/production/_ext/822048611/sys_ports_static.o
                0x9d00d218                SYS_PORTS_PinPullUpDisable

.text.SYS_PORTS_PinPullDownEnable
                0x9d00d220        0x8
 .text.SYS_PORTS_PinPullDownEnable
                0x9d00d220        0x8 build/default/production/_ext/822048611/sys_ports_static.o
                0x9d00d220                SYS_PORTS_PinPullDownEnable

.text.SYS_PORTS_PinPullDownDisable
                0x9d00d228        0x8
 .text.SYS_PORTS_PinPullDownDisable
                0x9d00d228        0x8 build/default/production/_ext/822048611/sys_ports_static.o
                0x9d00d228                SYS_PORTS_PinPullDownDisable

.text.SYS_PORTS_InterruptEnable
                0x9d00d230        0x8
 .text.SYS_PORTS_InterruptEnable
                0x9d00d230        0x8 build/default/production/_ext/822048611/sys_ports_static.o
                0x9d00d230                SYS_PORTS_InterruptEnable

.text.SYS_PORTS_RemapInput
                0x9d00d238        0x8
 .text.SYS_PORTS_RemapInput
                0x9d00d238        0x8 build/default/production/_ext/822048611/sys_ports_static.o
                0x9d00d238                SYS_PORTS_RemapInput

.text.SYS_PORTS_RemapOutput
                0x9d00d240        0x8
 .text.SYS_PORTS_RemapOutput
                0x9d00d240        0x8 build/default/production/_ext/822048611/sys_ports_static.o
                0x9d00d240                SYS_PORTS_RemapOutput

.text._SYS_Tasks
                0x9d00d248        0x8
 .text._SYS_Tasks
                0x9d00d248        0x8 build/default/production/_ext/1688732426/system_tasks.o

.text.OSAL_Initialize
                0x9d00d250        0x8
 .text.OSAL_Initialize
                0x9d00d250        0x8 build/default/production/_ext/24337685/osal_freertos.o
                0x9d00d250                OSAL_Initialize

.text.vPortFree
                0x9d00d258        0x8
 .text.vPortFree
                0x9d00d258        0x8 build/default/production/_ext/1856876499/heap_1.o
                0x9d00d258                vPortFree

.text.vPortInitialiseBlocks
                0x9d00d260        0x8
 .text.vPortInitialiseBlocks
                0x9d00d260        0x8 build/default/production/_ext/1856876499/heap_1.o
                0x9d00d260                vPortInitialiseBlocks

.text.vPortEndScheduler
                0x9d00d268        0x8
 .text.vPortEndScheduler
                0x9d00d268        0x8 build/default/production/_ext/12131622/port.o
                0x9d00d268                vPortEndScheduler

.text.vListInitialiseItem
                0x9d00d270        0x8
 .text.vListInitialiseItem
                0x9d00d270        0x8 build/default/production/_ext/1128951024/list.o
                0x9d00d270                vListInitialiseItem

.rodata         0x9d00d278       0x10
 .rodata        0x9d00d278        0x8 build/default/production/_ext/1128951024/tasks.o
 .rodata        0x9d00d280        0x8 build/default/production/_ext/1128951024/timers.o

.text.xTimerGetTimerDaemonTaskHandle
                0x9d00d288        0x8
 .text.xTimerGetTimerDaemonTaskHandle
                0x9d00d288        0x8 build/default/production/_ext/1128951024/timers.o
                0x9d00d288                xTimerGetTimerDaemonTaskHandle

.text.xTimerGetPeriod
                0x9d00d290        0x8
 .text.xTimerGetPeriod
                0x9d00d290        0x8 build/default/production/_ext/1128951024/timers.o
                0x9d00d290                xTimerGetPeriod

.text.xTimerGetExpiryTime
                0x9d00d298        0x8
 .text.xTimerGetExpiryTime
                0x9d00d298        0x8 build/default/production/_ext/1128951024/timers.o
                0x9d00d298                xTimerGetExpiryTime

.text.pcTimerGetName
                0x9d00d2a0        0x8
 .text.pcTimerGetName
                0x9d00d2a0        0x8 build/default/production/_ext/1128951024/timers.o
                0x9d00d2a0                pcTimerGetName

.text._on_reset
                0x9d00d2a8        0x8
 .text._on_reset
                0x9d00d2a8        0x8 c:/program files (x86)/microchip/xc32/v1.44/bin/bin/../../lib/gcc/pic32mx/4.8.3/../../../../pic32mx/lib\libpic32.a(default-on-reset.o)
                0x9d00d2a8                _on_reset

.text._on_bootstrap
                0x9d00d2b0        0x8
 .text._on_bootstrap
                0x9d00d2b0        0x8 c:/program files (x86)/microchip/xc32/v1.44/bin/bin/../../lib/gcc/pic32mx/4.8.3/../../../../pic32mx/lib\libpic32.a(default-on-bootstrap.o)
                0x9d00d2b0                _on_bootstrap

.rodata         0x9d00d2b8        0x4
 .rodata        0x9d00d2b8        0x4 build/default/production/_ext/12131622/port.o
                0x9d00d2b8                xISRStackTop

.text           0x00000000        0x0
 .text          0x00000000        0x0 c:/program files (x86)/microchip/xc32/v1.44/bin/bin/../../lib/gcc/pic32mx/4.8.3/../../../../pic32mx/lib\libpic32.a(xc32_uart.o)

.text           0x00000000        0x0
 .text          0x00000000        0x0 c:/program files (x86)/microchip/xc32/v1.44/bin/bin/../../lib/gcc/pic32mx/4.8.3/../../../../pic32mx/lib\libpic32.a(_mon_putc.o)

.text           0x00000000        0x0
 .text          0x00000000        0x0 c:/program files (x86)/microchip/xc32/v1.44/bin/bin/../../lib/gcc/pic32mx/4.8.3/../../../../pic32mx/lib\libpic32.a(write.o)

.text           0x00000000        0x0
 .text          0x00000000        0x0 c:/program files (x86)/microchip/xc32/v1.44/bin/bin/../../lib/gcc/pic32mx/4.8.3/../../../../pic32mx/lib\libm.a(sitofp.o)

.text           0x00000000        0x0
 .text          0x00000000        0x0 c:/program files (x86)/microchip/xc32/v1.44/bin/bin/../../lib/gcc/pic32mx/4.8.3/../../../../pic32mx/lib\libm.a(fptoli.o)

.text           0x00000000        0x0
 .text          0x00000000        0x0 c:/program files (x86)/microchip/xc32/v1.44/bin/bin/../../lib/gcc/pic32mx/4.8.3/../../../../pic32mx/lib\libm.a(fpcmp.o)

.text           0x00000000        0x0
 .text          0x00000000        0x0 c:/program files (x86)/microchip/xc32/v1.44/bin/bin/../../lib/gcc/pic32mx/4.8.3/../../../../pic32mx/lib\libm.a(fp32subadd.o)

.text           0x00000000        0x0
 .text          0x00000000        0x0 c:/program files (x86)/microchip/xc32/v1.44/bin/bin/../../lib/gcc/pic32mx/4.8.3/../../../../pic32mx/lib\libm.a(fp32mul.o)

.text           0x00000000        0x0
 .text          0x00000000        0x0 c:/program files (x86)/microchip/xc32/v1.44/bin/bin/../../lib/gcc/pic32mx/4.8.3/../../../../pic32mx/lib\libm.a(fp32div.o)

.text           0x00000000        0x0
 .text          0x00000000        0x0 c:/program files (x86)/microchip/xc32/v1.44/bin/bin/../../lib/gcc/pic32mx/4.8.3/../../../../pic32mx/lib\libc.a(_flsbuf_simple.o)

.text           0x00000000        0x0
 .text          0x00000000        0x0 c:/program files (x86)/microchip/xc32/v1.44/bin/bin/../../lib/gcc/pic32mx/4.8.3/../../../../pic32mx/lib\libc.a(_iob.o)

.text           0x00000000        0x0
 .text          0x00000000        0x0 c:/program files (x86)/microchip/xc32/v1.44/bin/bin/../../lib/gcc/pic32mx/4.8.3/../../../../pic32mx/lib\libc.a(_fputc_simple.o)

.text           0x00000000        0x0
 .text          0x00000000        0x0 c:/program files (x86)/microchip/xc32/v1.44/bin/bin/../../lib/gcc/pic32mx/4.8.3/../../../../pic32mx/lib\libc.a(doprnt_cdnopuxX.eo)

.text           0x00000000        0x0
 .text          0x00000000        0x0 c:/program files (x86)/microchip/xc32/v1.44/bin/bin/../../lib/gcc/pic32mx/4.8.3/../../../../pic32mx/lib\libc.a(sprintf_cdnopuxX.eo)

.text           0x00000000        0x0
 .text          0x00000000        0x0 c:/program files (x86)/microchip/xc32/v1.44/bin/bin/../../lib/gcc/pic32mx/4.8.3/../../../../pic32mx/lib\libc.a(strncmp.o)

.text           0x00000000        0x0
 .text          0x00000000        0x0 c:/program files (x86)/microchip/xc32/v1.44/bin/bin/../../lib/gcc/pic32mx/4.8.3/../../../../pic32mx/lib\libc.a(ctype.o)

.text           0x00000000        0x0
 .text          0x00000000        0x0 c:/program files (x86)/microchip/xc32/v1.44/bin/bin/../../lib/gcc/pic32mx/4.8.3/../../../../pic32mx/lib\libc.a(atoi.o)

.text           0x00000000        0x0
 .text          0x00000000        0x0 c:/program files (x86)/microchip/xc32/v1.44/bin/bin/../../lib/gcc/pic32mx/4.8.3/../../../../pic32mx/lib\libpic32.a(defaultinterrupt.o)

.text           0x00000000        0x0
 .text          0x00000000        0x0 c:/program files (x86)/microchip/xc32/v1.44/bin/bin/../../lib/gcc/pic32mx/4.8.3/../../../../pic32mx/lib\libpic32.a(vector51.o)

.text           0x00000000        0x0
 .text          0x00000000        0x0 c:/program files (x86)/microchip/xc32/v1.44/bin/bin/../../lib/gcc/pic32mx/4.8.3/../../../../pic32mx/lib\libpic32.a(vector50.o)

.text           0x00000000        0x0
 .text          0x00000000        0x0 c:/program files (x86)/microchip/xc32/v1.44/bin/bin/../../lib/gcc/pic32mx/4.8.3/../../../../pic32mx/lib\libpic32.a(vector49.o)

.text           0x00000000        0x0
 .text          0x00000000        0x0 c:/program files (x86)/microchip/xc32/v1.44/bin/bin/../../lib/gcc/pic32mx/4.8.3/../../../../pic32mx/lib\libpic32.a(vector48.o)

.text           0x00000000        0x0
 .text          0x00000000        0x0 c:/program files (x86)/microchip/xc32/v1.44/bin/bin/../../lib/gcc/pic32mx/4.8.3/../../../../pic32mx/lib\libpic32.a(vector47.o)

.text           0x00000000        0x0
 .text          0x00000000        0x0 c:/program files (x86)/microchip/xc32/v1.44/bin/bin/../../lib/gcc/pic32mx/4.8.3/../../../../pic32mx/lib\libpic32.a(vector46.o)

.text           0x00000000        0x0
 .text          0x00000000        0x0 c:/program files (x86)/microchip/xc32/v1.44/bin/bin/../../lib/gcc/pic32mx/4.8.3/../../../../pic32mx/lib\libpic32.a(vector45.o)

.text           0x00000000        0x0
 .text          0x00000000        0x0 c:/program files (x86)/microchip/xc32/v1.44/bin/bin/../../lib/gcc/pic32mx/4.8.3/../../../../pic32mx/lib\libpic32.a(vector44.o)

.text           0x00000000        0x0
 .text          0x00000000        0x0 c:/program files (x86)/microchip/xc32/v1.44/bin/bin/../../lib/gcc/pic32mx/4.8.3/../../../../pic32mx/lib\libpic32.a(vector43.o)

.text           0x00000000        0x0
 .text          0x00000000        0x0 c:/program files (x86)/microchip/xc32/v1.44/bin/bin/../../lib/gcc/pic32mx/4.8.3/../../../../pic32mx/lib\libpic32.a(vector42.o)

.text           0x00000000        0x0
 .text          0x00000000        0x0 c:/program files (x86)/microchip/xc32/v1.44/bin/bin/../../lib/gcc/pic32mx/4.8.3/../../../../pic32mx/lib\libpic32.a(vector41.o)

.text           0x00000000        0x0
 .text          0x00000000        0x0 c:/program files (x86)/microchip/xc32/v1.44/bin/bin/../../lib/gcc/pic32mx/4.8.3/../../../../pic32mx/lib\libpic32.a(vector40.o)

.text           0x00000000        0x0
 .text          0x00000000        0x0 c:/program files (x86)/microchip/xc32/v1.44/bin/bin/../../lib/gcc/pic32mx/4.8.3/../../../../pic32mx/lib\libpic32.a(vector39.o)

.text           0x00000000        0x0
 .text          0x00000000        0x0 c:/program files (x86)/microchip/xc32/v1.44/bin/bin/../../lib/gcc/pic32mx/4.8.3/../../../../pic32mx/lib\libpic32.a(vector38.o)

.text           0x00000000        0x0
 .text          0x00000000        0x0 c:/program files (x86)/microchip/xc32/v1.44/bin/bin/../../lib/gcc/pic32mx/4.8.3/../../../../pic32mx/lib\libpic32.a(vector37.o)

.text           0x00000000        0x0
 .text          0x00000000        0x0 c:/program files (x86)/microchip/xc32/v1.44/bin/bin/../../lib/gcc/pic32mx/4.8.3/../../../../pic32mx/lib\libpic32.a(vector36.o)

.text           0x00000000        0x0
 .text          0x00000000        0x0 c:/program files (x86)/microchip/xc32/v1.44/bin/bin/../../lib/gcc/pic32mx/4.8.3/../../../../pic32mx/lib\libpic32.a(vector35.o)

.text           0x00000000        0x0
 .text          0x00000000        0x0 c:/program files (x86)/microchip/xc32/v1.44/bin/bin/../../lib/gcc/pic32mx/4.8.3/../../../../pic32mx/lib\libpic32.a(vector34.o)

.text           0x00000000        0x0
 .text          0x00000000        0x0 c:/program files (x86)/microchip/xc32/v1.44/bin/bin/../../lib/gcc/pic32mx/4.8.3/../../../../pic32mx/lib\libpic32.a(vector33.o)

.text           0x00000000        0x0
 .text          0x00000000        0x0 c:/program files (x86)/microchip/xc32/v1.44/bin/bin/../../lib/gcc/pic32mx/4.8.3/../../../../pic32mx/lib\libpic32.a(vector32.o)

.text           0x00000000        0x0
 .text          0x00000000        0x0 c:/program files (x86)/microchip/xc32/v1.44/bin/bin/../../lib/gcc/pic32mx/4.8.3/../../../../pic32mx/lib\libpic32.a(vector31.o)

.text           0x00000000        0x0
 .text          0x00000000        0x0 c:/program files (x86)/microchip/xc32/v1.44/bin/bin/../../lib/gcc/pic32mx/4.8.3/../../../../pic32mx/lib\libpic32.a(vector30.o)

.text           0x00000000        0x0
 .text          0x00000000        0x0 c:/program files (x86)/microchip/xc32/v1.44/bin/bin/../../lib/gcc/pic32mx/4.8.3/../../../../pic32mx/lib\libpic32.a(vector29.o)

.text           0x00000000        0x0
 .text          0x00000000        0x0 c:/program files (x86)/microchip/xc32/v1.44/bin/bin/../../lib/gcc/pic32mx/4.8.3/../../../../pic32mx/lib\libpic32.a(vector28.o)

.text           0x00000000        0x0
 .text          0x00000000        0x0 c:/program files (x86)/microchip/xc32/v1.44/bin/bin/../../lib/gcc/pic32mx/4.8.3/../../../../pic32mx/lib\libpic32.a(vector27.o)

.text           0x00000000        0x0
 .text          0x00000000        0x0 c:/program files (x86)/microchip/xc32/v1.44/bin/bin/../../lib/gcc/pic32mx/4.8.3/../../../../pic32mx/lib\libpic32.a(vector26.o)

.text           0x00000000        0x0
 .text          0x00000000        0x0 c:/program files (x86)/microchip/xc32/v1.44/bin/bin/../../lib/gcc/pic32mx/4.8.3/../../../../pic32mx/lib\libpic32.a(vector25.o)

.text           0x00000000        0x0
 .text          0x00000000        0x0 c:/program files (x86)/microchip/xc32/v1.44/bin/bin/../../lib/gcc/pic32mx/4.8.3/../../../../pic32mx/lib\libpic32.a(vector23.o)

.text           0x00000000        0x0
 .text          0x00000000        0x0 c:/program files (x86)/microchip/xc32/v1.44/bin/bin/../../lib/gcc/pic32mx/4.8.3/../../../../pic32mx/lib\libpic32.a(vector22.o)

.text           0x00000000        0x0
 .text          0x00000000        0x0 c:/program files (x86)/microchip/xc32/v1.44/bin/bin/../../lib/gcc/pic32mx/4.8.3/../../../../pic32mx/lib\libpic32.a(vector21.o)

.text           0x00000000        0x0
 .text          0x00000000        0x0 c:/program files (x86)/microchip/xc32/v1.44/bin/bin/../../lib/gcc/pic32mx/4.8.3/../../../../pic32mx/lib\libpic32.a(vector18.o)

.text           0x00000000        0x0
 .text          0x00000000        0x0 c:/program files (x86)/microchip/xc32/v1.44/bin/bin/../../lib/gcc/pic32mx/4.8.3/../../../../pic32mx/lib\libpic32.a(vector17.o)

.text           0x00000000        0x0
 .text          0x00000000        0x0 c:/program files (x86)/microchip/xc32/v1.44/bin/bin/../../lib/gcc/pic32mx/4.8.3/../../../../pic32mx/lib\libpic32.a(vector14.o)

.text           0x00000000        0x0
 .text          0x00000000        0x0 c:/program files (x86)/microchip/xc32/v1.44/bin/bin/../../lib/gcc/pic32mx/4.8.3/../../../../pic32mx/lib\libpic32.a(vector13.o)

.text           0x00000000        0x0
 .text          0x00000000        0x0 c:/program files (x86)/microchip/xc32/v1.44/bin/bin/../../lib/gcc/pic32mx/4.8.3/../../../../pic32mx/lib\libpic32.a(vector11.o)

.text           0x00000000        0x0
 .text          0x00000000        0x0 c:/program files (x86)/microchip/xc32/v1.44/bin/bin/../../lib/gcc/pic32mx/4.8.3/../../../../pic32mx/lib\libpic32.a(vector10.o)

.text           0x00000000        0x0
 .text          0x00000000        0x0 c:/program files (x86)/microchip/xc32/v1.44/bin/bin/../../lib/gcc/pic32mx/4.8.3/../../../../pic32mx/lib\libpic32.a(vector9.o)

.text           0x00000000        0x0
 .text          0x00000000        0x0 c:/program files (x86)/microchip/xc32/v1.44/bin/bin/../../lib/gcc/pic32mx/4.8.3/../../../../pic32mx/lib\libpic32.a(vector7.o)

.text           0x00000000        0x0
 .text          0x00000000        0x0 c:/program files (x86)/microchip/xc32/v1.44/bin/bin/../../lib/gcc/pic32mx/4.8.3/../../../../pic32mx/lib\libpic32.a(vector6.o)

.text           0x00000000        0x0
 .text          0x00000000        0x0 c:/program files (x86)/microchip/xc32/v1.44/bin/bin/../../lib/gcc/pic32mx/4.8.3/../../../../pic32mx/lib\libpic32.a(vector5.o)

.text           0x00000000        0x0
 .text          0x00000000        0x0 c:/program files (x86)/microchip/xc32/v1.44/bin/bin/../../lib/gcc/pic32mx/4.8.3/../../../../pic32mx/lib\libpic32.a(vector3.o)

.text           0x00000000        0x0
 .text          0x00000000        0x0 c:/program files (x86)/microchip/xc32/v1.44/bin/bin/../../lib/gcc/pic32mx/4.8.3/../../../../pic32mx/lib\libpic32.a(vector2.o)

.text           0x00000000        0x0
 .text          0x00000000        0x0 c:/program files (x86)/microchip/xc32/v1.44/bin/bin/../../lib/gcc/pic32mx/4.8.3/../../../../pic32mx/lib\libpic32.a(vector0.o)

.text           0x00000000        0x0
 .text          0x00000000        0x0 c:/program files (x86)/microchip/xc32/v1.44/bin/bin/../../lib/gcc/pic32mx/4.8.3/../../../../pic32mx/lib\libpic32.a(general-exception.o)

.text           0x00000000        0x0
 .text          0x00000000        0x0 c:/program files (x86)/microchip/xc32/v1.44/bin/bin/../../lib/gcc/pic32mx/4.8.3/../../../../pic32mx/lib\libpic32.a(default-on-bootstrap.o)

.text           0x00000000        0x0
 .text          0x00000000        0x0 c:/program files (x86)/microchip/xc32/v1.44/bin/bin/../../lib/gcc/pic32mx/4.8.3/../../../../pic32mx/lib\libpic32.a(default-on-reset.o)

.text           0x00000000        0x0
 .text          0x00000000        0x0 c:/program files (x86)/microchip/xc32/v1.44/bin/bin/../../lib/gcc/pic32mx/4.8.3/../../../../pic32mx/lib\libpic32.a(default-bootstrap-exception-handler.o)

.text           0x00000000        0x0
 .text          0x00000000        0x0 c:/program files (x86)/microchip/xc32/v1.44/bin/bin/../../lib/gcc/pic32mx/4.8.3/../../../../pic32mx/lib/./proc/32MX795F512L\processor.o

.text           0x00000000        0x0
 .text          0x00000000        0x0 c:/program files (x86)/microchip/xc32/v1.44/bin/bin/../../lib/gcc/pic32mx/4.8.3/../../../../pic32mx/lib/./proc/32MX795F512L\default_isr_vectors.o

.text           0x00000000        0x0
 .text          0x00000000        0x0 build/default/production/_ext/1128951024/event_groups.o

.text           0x00000000        0x0
 .text          0x00000000        0x0 build/default/production/_ext/1128951024/timers.o

.text           0x00000000        0x0
 .text          0x00000000        0x0 build/default/production/_ext/1128951024/tasks.o

.text           0x00000000        0x0
 .text          0x00000000        0x0 build/default/production/_ext/1128951024/queue.o

.text           0x00000000        0x0
 .text          0x00000000        0x0 build/default/production/_ext/1128951024/list.o

.text           0x00000000        0x0
 .text          0x00000000        0x0 build/default/production/_ext/1128951024/croutine.o

.text           0x00000000        0x0
 .text          0x00000000        0x0 build/default/production/_ext/12131622/port.o

.text           0x00000000        0x0
 .text          0x00000000        0x0 build/default/production/_ext/1856876499/heap_1.o

.text           0x00000000        0x0
 .text          0x00000000        0x0 build/default/production/_ext/122796885/sys_int_pic32.o

.text           0x00000000        0x0
 .text          0x00000000        0x0 build/default/production/_ext/24337685/osal_freertos.o

.text           0x00000000        0x0
 .text          0x00000000        0x0 build/default/production/_ext/1360937237/statemachine.o

.text           0x00000000        0x0
 .text          0x00000000        0x0 build/default/production/_ext/1360937237/jsmn.o

.text           0x00000000        0x0
 .text          0x00000000        0x0 build/default/production/_ext/1360937237/main.o

.text           0x00000000        0x0
 .text          0x00000000        0x0 build/default/production/_ext/1360937237/Control.o

.text           0x00000000        0x0
 .text          0x00000000        0x0 build/default/production/_ext/1360937237/motor_encoder_thread.o

.text           0x00000000        0x0
 .text          0x00000000        0x0 build/default/production/_ext/1360937237/WiFiTransmit.o

.text           0x00000000        0x0
 .text          0x00000000        0x0 build/default/production/_ext/1360937237/WiFiReceive.o

.text           0x00000000        0x0
 .text          0x00000000        0x0 build/default/production/_ext/1688732426/rtos_hooks.o

.text           0x00000000        0x0
 .text          0x00000000        0x0 build/default/production/_ext/1688732426/system_interrupt_a.o

.text           0x00000000        0x0
 .text          0x00000000        0x0 build/default/production/_ext/1688732426/system_tasks.o

.text           0x00000000        0x0
 .text          0x00000000        0x0 build/default/production/_ext/1688732426/system_exceptions.o

.text           0x00000000        0x0
 .text          0x00000000        0x0 build/default/production/_ext/1688732426/system_interrupt.o

.text           0x00000000        0x0
 .text          0x00000000        0x0 build/default/production/_ext/1688732426/system_init.o

.text           0x00000000        0x0
 .text          0x00000000        0x0 build/default/production/_ext/822048611/sys_ports_static.o

.text           0x00000000        0x0
 .text          0x00000000        0x0 build/default/production/_ext/340578644/sys_devcon_pic32mx.o

.text           0x00000000        0x0
 .text          0x00000000        0x0 build/default/production/_ext/340578644/sys_devcon.o

.text           0x00000000        0x0
 .text          0x00000000        0x0 build/default/production/_ext/639803181/sys_clk_pic32mx.o

.text           0x00000000        0x0
 .text          0x00000000        0x0 build/default/production/_ext/327000265/drv_usart_static_byte_model.o

.text           0x00000000        0x0
 .text          0x00000000        0x0 build/default/production/_ext/327000265/drv_usart_static.o

.text           0x00000000        0x0
 .text          0x00000000        0x0 build/default/production/_ext/327000265/drv_usart_mapping.o

.text           0x00000000        0x0
 .text          0x00000000        0x0 build/default/production/_ext/1407244131/drv_tmr_mapping.o

.text           0x00000000        0x0
 .text          0x00000000        0x0 build/default/production/_ext/1407244131/drv_tmr_static.o

.text           0x00000000        0x0
 .text          0x00000000        0x0 build/default/production/_ext/1047219354/drv_oc_static.o

.text           0x00000000        0x0
 .text          0x00000000        0x0 build/default/production/_ext/1047219354/drv_oc_mapping.o

.text           0x00000000        0x0
 .text          0x00000000        0x0 build/default/production/_ext/1361460060/drv_adc_static.o

.text           0x00000000        0x0
 .text          0x00000000        0x0 c:/program files (x86)/microchip/xc32/v1.44/bin/bin/../../lib/gcc/pic32mx/4.8.3/../../../../pic32mx/lib\debug-exception-return.o

.text           0x00000000        0x0
 .text          0x00000000        0x0 c:/program files (x86)/microchip/xc32/v1.44/bin/bin/../../lib/gcc/pic32mx/4.8.3/../../../../pic32mx/lib/./proc/32MX795F512L/crt0_mips32r2.o
