
Optional file libmchp_peripheral.a not found

Optional file libmchp_peripheral_32MX795F512L.a not found
Archive member included because of file (symbol)

c:/program files (x86)/microchip/xc32/v1.44/bin/bin/../../lib/gcc/pic32mx/4.8.3/../../../../pic32mx/lib\libpic32.a(memcpy.o)
                              build/default/debug/_ext/1128951024/queue.o (memcpy)
c:/program files (x86)/microchip/xc32/v1.44/bin/bin/../../lib/gcc/pic32mx/4.8.3/../../../../pic32mx/lib\libpic32.a(memset.o)
                              build/default/debug/_ext/1128951024/tasks.o (memset)
c:/program files (x86)/microchip/xc32/v1.44/bin/bin/../../lib/gcc/pic32mx/4.8.3/../../../../pic32mx/lib\libpic32.a(strlen.o)
                              build/default/debug/_ext/1360937237/WiFiReceive.o (strlen)
c:/program files (x86)/microchip/xc32/v1.44/bin/bin/../../lib/gcc/pic32mx/4.8.3/../../../../pic32mx/lib\libpic32.a(default-bootstrap-exception-handler.o)
                              c:/program files (x86)/microchip/xc32/v1.44/bin/bin/../../lib/gcc/pic32mx/4.8.3/../../../../pic32mx/lib/./proc/32MX795F512L/crt0_mips32r2.o (_bootstrap_exception_handler)
c:/program files (x86)/microchip/xc32/v1.44/bin/bin/../../lib/gcc/pic32mx/4.8.3/../../../../pic32mx/lib\libpic32.a(default-on-reset.o)
                              c:/program files (x86)/microchip/xc32/v1.44/bin/bin/../../lib/gcc/pic32mx/4.8.3/../../../../pic32mx/lib/./proc/32MX795F512L/crt0_mips32r2.o (_on_reset)
c:/program files (x86)/microchip/xc32/v1.44/bin/bin/../../lib/gcc/pic32mx/4.8.3/../../../../pic32mx/lib\libpic32.a(default-on-bootstrap.o)
                              c:/program files (x86)/microchip/xc32/v1.44/bin/bin/../../lib/gcc/pic32mx/4.8.3/../../../../pic32mx/lib/./proc/32MX795F512L/crt0_mips32r2.o (_on_bootstrap)
c:/program files (x86)/microchip/xc32/v1.44/bin/bin/../../lib/gcc/pic32mx/4.8.3/../../../../pic32mx/lib\libpic32.a(default-nmi-handler.o)
                              c:/program files (x86)/microchip/xc32/v1.44/bin/bin/../../lib/gcc/pic32mx/4.8.3/../../../../pic32mx/lib/./proc/32MX795F512L/crt0_mips32r2.o (_nmi_handler)
c:/program files (x86)/microchip/xc32/v1.44/bin/bin/../../lib/gcc/pic32mx/4.8.3/../../../../pic32mx/lib\libpic32.a(general-exception.o)
                              c:/program files (x86)/microchip/xc32/v1.44/bin/bin/../../lib/gcc/pic32mx/4.8.3/../../../../pic32mx/lib/./proc/32MX795F512L/crt0_mips32r2.o (_general_exception_context)
c:/program files (x86)/microchip/xc32/v1.44/bin/bin/../../lib/gcc/pic32mx/4.8.3/../../../../pic32mx/lib\libpic32.a(vector0.o)
                              c:/program files (x86)/microchip/xc32/v1.44/bin/bin/../../lib/gcc/pic32mx/4.8.3/../../../../pic32mx/lib/./proc/32MX795F512L\default_isr_vectors.o (__vector_dispatch_0)
c:/program files (x86)/microchip/xc32/v1.44/bin/bin/../../lib/gcc/pic32mx/4.8.3/../../../../pic32mx/lib\libpic32.a(vector2.o)
                              c:/program files (x86)/microchip/xc32/v1.44/bin/bin/../../lib/gcc/pic32mx/4.8.3/../../../../pic32mx/lib/./proc/32MX795F512L\default_isr_vectors.o (__vector_dispatch_2)
c:/program files (x86)/microchip/xc32/v1.44/bin/bin/../../lib/gcc/pic32mx/4.8.3/../../../../pic32mx/lib\libpic32.a(vector3.o)
                              c:/program files (x86)/microchip/xc32/v1.44/bin/bin/../../lib/gcc/pic32mx/4.8.3/../../../../pic32mx/lib/./proc/32MX795F512L\default_isr_vectors.o (__vector_dispatch_3)
c:/program files (x86)/microchip/xc32/v1.44/bin/bin/../../lib/gcc/pic32mx/4.8.3/../../../../pic32mx/lib\libpic32.a(vector5.o)
                              c:/program files (x86)/microchip/xc32/v1.44/bin/bin/../../lib/gcc/pic32mx/4.8.3/../../../../pic32mx/lib/./proc/32MX795F512L\default_isr_vectors.o (__vector_dispatch_5)
c:/program files (x86)/microchip/xc32/v1.44/bin/bin/../../lib/gcc/pic32mx/4.8.3/../../../../pic32mx/lib\libpic32.a(vector6.o)
                              c:/program files (x86)/microchip/xc32/v1.44/bin/bin/../../lib/gcc/pic32mx/4.8.3/../../../../pic32mx/lib/./proc/32MX795F512L\default_isr_vectors.o (__vector_dispatch_6)
c:/program files (x86)/microchip/xc32/v1.44/bin/bin/../../lib/gcc/pic32mx/4.8.3/../../../../pic32mx/lib\libpic32.a(vector7.o)
                              c:/program files (x86)/microchip/xc32/v1.44/bin/bin/../../lib/gcc/pic32mx/4.8.3/../../../../pic32mx/lib/./proc/32MX795F512L\default_isr_vectors.o (__vector_dispatch_7)
c:/program files (x86)/microchip/xc32/v1.44/bin/bin/../../lib/gcc/pic32mx/4.8.3/../../../../pic32mx/lib\libpic32.a(vector9.o)
                              c:/program files (x86)/microchip/xc32/v1.44/bin/bin/../../lib/gcc/pic32mx/4.8.3/../../../../pic32mx/lib/./proc/32MX795F512L\default_isr_vectors.o (__vector_dispatch_9)
c:/program files (x86)/microchip/xc32/v1.44/bin/bin/../../lib/gcc/pic32mx/4.8.3/../../../../pic32mx/lib\libpic32.a(vector10.o)
                              c:/program files (x86)/microchip/xc32/v1.44/bin/bin/../../lib/gcc/pic32mx/4.8.3/../../../../pic32mx/lib/./proc/32MX795F512L\default_isr_vectors.o (__vector_dispatch_10)
c:/program files (x86)/microchip/xc32/v1.44/bin/bin/../../lib/gcc/pic32mx/4.8.3/../../../../pic32mx/lib\libpic32.a(vector11.o)
                              c:/program files (x86)/microchip/xc32/v1.44/bin/bin/../../lib/gcc/pic32mx/4.8.3/../../../../pic32mx/lib/./proc/32MX795F512L\default_isr_vectors.o (__vector_dispatch_11)
c:/program files (x86)/microchip/xc32/v1.44/bin/bin/../../lib/gcc/pic32mx/4.8.3/../../../../pic32mx/lib\libpic32.a(vector13.o)
                              c:/program files (x86)/microchip/xc32/v1.44/bin/bin/../../lib/gcc/pic32mx/4.8.3/../../../../pic32mx/lib/./proc/32MX795F512L\default_isr_vectors.o (__vector_dispatch_13)
c:/program files (x86)/microchip/xc32/v1.44/bin/bin/../../lib/gcc/pic32mx/4.8.3/../../../../pic32mx/lib\libpic32.a(vector14.o)
                              c:/program files (x86)/microchip/xc32/v1.44/bin/bin/../../lib/gcc/pic32mx/4.8.3/../../../../pic32mx/lib/./proc/32MX795F512L\default_isr_vectors.o (__vector_dispatch_14)
c:/program files (x86)/microchip/xc32/v1.44/bin/bin/../../lib/gcc/pic32mx/4.8.3/../../../../pic32mx/lib\libpic32.a(vector17.o)
                              c:/program files (x86)/microchip/xc32/v1.44/bin/bin/../../lib/gcc/pic32mx/4.8.3/../../../../pic32mx/lib/./proc/32MX795F512L\default_isr_vectors.o (__vector_dispatch_17)
c:/program files (x86)/microchip/xc32/v1.44/bin/bin/../../lib/gcc/pic32mx/4.8.3/../../../../pic32mx/lib\libpic32.a(vector18.o)
                              c:/program files (x86)/microchip/xc32/v1.44/bin/bin/../../lib/gcc/pic32mx/4.8.3/../../../../pic32mx/lib/./proc/32MX795F512L\default_isr_vectors.o (__vector_dispatch_18)
c:/program files (x86)/microchip/xc32/v1.44/bin/bin/../../lib/gcc/pic32mx/4.8.3/../../../../pic32mx/lib\libpic32.a(vector21.o)
                              c:/program files (x86)/microchip/xc32/v1.44/bin/bin/../../lib/gcc/pic32mx/4.8.3/../../../../pic32mx/lib/./proc/32MX795F512L\default_isr_vectors.o (__vector_dispatch_21)
c:/program files (x86)/microchip/xc32/v1.44/bin/bin/../../lib/gcc/pic32mx/4.8.3/../../../../pic32mx/lib\libpic32.a(vector22.o)
                              c:/program files (x86)/microchip/xc32/v1.44/bin/bin/../../lib/gcc/pic32mx/4.8.3/../../../../pic32mx/lib/./proc/32MX795F512L\default_isr_vectors.o (__vector_dispatch_22)
c:/program files (x86)/microchip/xc32/v1.44/bin/bin/../../lib/gcc/pic32mx/4.8.3/../../../../pic32mx/lib\libpic32.a(vector23.o)
                              c:/program files (x86)/microchip/xc32/v1.44/bin/bin/../../lib/gcc/pic32mx/4.8.3/../../../../pic32mx/lib/./proc/32MX795F512L\default_isr_vectors.o (__vector_dispatch_23)
c:/program files (x86)/microchip/xc32/v1.44/bin/bin/../../lib/gcc/pic32mx/4.8.3/../../../../pic32mx/lib\libpic32.a(vector25.o)
                              c:/program files (x86)/microchip/xc32/v1.44/bin/bin/../../lib/gcc/pic32mx/4.8.3/../../../../pic32mx/lib/./proc/32MX795F512L\default_isr_vectors.o (__vector_dispatch_25)
c:/program files (x86)/microchip/xc32/v1.44/bin/bin/../../lib/gcc/pic32mx/4.8.3/../../../../pic32mx/lib\libpic32.a(vector26.o)
                              c:/program files (x86)/microchip/xc32/v1.44/bin/bin/../../lib/gcc/pic32mx/4.8.3/../../../../pic32mx/lib/./proc/32MX795F512L\default_isr_vectors.o (__vector_dispatch_26)
c:/program files (x86)/microchip/xc32/v1.44/bin/bin/../../lib/gcc/pic32mx/4.8.3/../../../../pic32mx/lib\libpic32.a(vector27.o)
                              c:/program files (x86)/microchip/xc32/v1.44/bin/bin/../../lib/gcc/pic32mx/4.8.3/../../../../pic32mx/lib/./proc/32MX795F512L\default_isr_vectors.o (__vector_dispatch_27)
c:/program files (x86)/microchip/xc32/v1.44/bin/bin/../../lib/gcc/pic32mx/4.8.3/../../../../pic32mx/lib\libpic32.a(vector28.o)
                              c:/program files (x86)/microchip/xc32/v1.44/bin/bin/../../lib/gcc/pic32mx/4.8.3/../../../../pic32mx/lib/./proc/32MX795F512L\default_isr_vectors.o (__vector_dispatch_28)
c:/program files (x86)/microchip/xc32/v1.44/bin/bin/../../lib/gcc/pic32mx/4.8.3/../../../../pic32mx/lib\libpic32.a(vector29.o)
                              c:/program files (x86)/microchip/xc32/v1.44/bin/bin/../../lib/gcc/pic32mx/4.8.3/../../../../pic32mx/lib/./proc/32MX795F512L\default_isr_vectors.o (__vector_dispatch_29)
c:/program files (x86)/microchip/xc32/v1.44/bin/bin/../../lib/gcc/pic32mx/4.8.3/../../../../pic32mx/lib\libpic32.a(vector30.o)
                              c:/program files (x86)/microchip/xc32/v1.44/bin/bin/../../lib/gcc/pic32mx/4.8.3/../../../../pic32mx/lib/./proc/32MX795F512L\default_isr_vectors.o (__vector_dispatch_30)
c:/program files (x86)/microchip/xc32/v1.44/bin/bin/../../lib/gcc/pic32mx/4.8.3/../../../../pic32mx/lib\libpic32.a(vector31.o)
                              c:/program files (x86)/microchip/xc32/v1.44/bin/bin/../../lib/gcc/pic32mx/4.8.3/../../../../pic32mx/lib/./proc/32MX795F512L\default_isr_vectors.o (__vector_dispatch_31)
c:/program files (x86)/microchip/xc32/v1.44/bin/bin/../../lib/gcc/pic32mx/4.8.3/../../../../pic32mx/lib\libpic32.a(vector32.o)
                              c:/program files (x86)/microchip/xc32/v1.44/bin/bin/../../lib/gcc/pic32mx/4.8.3/../../../../pic32mx/lib/./proc/32MX795F512L\default_isr_vectors.o (__vector_dispatch_32)
c:/program files (x86)/microchip/xc32/v1.44/bin/bin/../../lib/gcc/pic32mx/4.8.3/../../../../pic32mx/lib\libpic32.a(vector33.o)
                              c:/program files (x86)/microchip/xc32/v1.44/bin/bin/../../lib/gcc/pic32mx/4.8.3/../../../../pic32mx/lib/./proc/32MX795F512L\default_isr_vectors.o (__vector_dispatch_33)
c:/program files (x86)/microchip/xc32/v1.44/bin/bin/../../lib/gcc/pic32mx/4.8.3/../../../../pic32mx/lib\libpic32.a(vector34.o)
                              c:/program files (x86)/microchip/xc32/v1.44/bin/bin/../../lib/gcc/pic32mx/4.8.3/../../../../pic32mx/lib/./proc/32MX795F512L\default_isr_vectors.o (__vector_dispatch_34)
c:/program files (x86)/microchip/xc32/v1.44/bin/bin/../../lib/gcc/pic32mx/4.8.3/../../../../pic32mx/lib\libpic32.a(vector35.o)
                              c:/program files (x86)/microchip/xc32/v1.44/bin/bin/../../lib/gcc/pic32mx/4.8.3/../../../../pic32mx/lib/./proc/32MX795F512L\default_isr_vectors.o (__vector_dispatch_35)
c:/program files (x86)/microchip/xc32/v1.44/bin/bin/../../lib/gcc/pic32mx/4.8.3/../../../../pic32mx/lib\libpic32.a(vector36.o)
                              c:/program files (x86)/microchip/xc32/v1.44/bin/bin/../../lib/gcc/pic32mx/4.8.3/../../../../pic32mx/lib/./proc/32MX795F512L\default_isr_vectors.o (__vector_dispatch_36)
c:/program files (x86)/microchip/xc32/v1.44/bin/bin/../../lib/gcc/pic32mx/4.8.3/../../../../pic32mx/lib\libpic32.a(vector37.o)
                              c:/program files (x86)/microchip/xc32/v1.44/bin/bin/../../lib/gcc/pic32mx/4.8.3/../../../../pic32mx/lib/./proc/32MX795F512L\default_isr_vectors.o (__vector_dispatch_37)
c:/program files (x86)/microchip/xc32/v1.44/bin/bin/../../lib/gcc/pic32mx/4.8.3/../../../../pic32mx/lib\libpic32.a(vector38.o)
                              c:/program files (x86)/microchip/xc32/v1.44/bin/bin/../../lib/gcc/pic32mx/4.8.3/../../../../pic32mx/lib/./proc/32MX795F512L\default_isr_vectors.o (__vector_dispatch_38)
c:/program files (x86)/microchip/xc32/v1.44/bin/bin/../../lib/gcc/pic32mx/4.8.3/../../../../pic32mx/lib\libpic32.a(vector39.o)
                              c:/program files (x86)/microchip/xc32/v1.44/bin/bin/../../lib/gcc/pic32mx/4.8.3/../../../../pic32mx/lib/./proc/32MX795F512L\default_isr_vectors.o (__vector_dispatch_39)
c:/program files (x86)/microchip/xc32/v1.44/bin/bin/../../lib/gcc/pic32mx/4.8.3/../../../../pic32mx/lib\libpic32.a(vector40.o)
                              c:/program files (x86)/microchip/xc32/v1.44/bin/bin/../../lib/gcc/pic32mx/4.8.3/../../../../pic32mx/lib/./proc/32MX795F512L\default_isr_vectors.o (__vector_dispatch_40)
c:/program files (x86)/microchip/xc32/v1.44/bin/bin/../../lib/gcc/pic32mx/4.8.3/../../../../pic32mx/lib\libpic32.a(vector41.o)
                              c:/program files (x86)/microchip/xc32/v1.44/bin/bin/../../lib/gcc/pic32mx/4.8.3/../../../../pic32mx/lib/./proc/32MX795F512L\default_isr_vectors.o (__vector_dispatch_41)
c:/program files (x86)/microchip/xc32/v1.44/bin/bin/../../lib/gcc/pic32mx/4.8.3/../../../../pic32mx/lib\libpic32.a(vector42.o)
                              c:/program files (x86)/microchip/xc32/v1.44/bin/bin/../../lib/gcc/pic32mx/4.8.3/../../../../pic32mx/lib/./proc/32MX795F512L\default_isr_vectors.o (__vector_dispatch_42)
c:/program files (x86)/microchip/xc32/v1.44/bin/bin/../../lib/gcc/pic32mx/4.8.3/../../../../pic32mx/lib\libpic32.a(vector43.o)
                              c:/program files (x86)/microchip/xc32/v1.44/bin/bin/../../lib/gcc/pic32mx/4.8.3/../../../../pic32mx/lib/./proc/32MX795F512L\default_isr_vectors.o (__vector_dispatch_43)
c:/program files (x86)/microchip/xc32/v1.44/bin/bin/../../lib/gcc/pic32mx/4.8.3/../../../../pic32mx/lib\libpic32.a(vector44.o)
                              c:/program files (x86)/microchip/xc32/v1.44/bin/bin/../../lib/gcc/pic32mx/4.8.3/../../../../pic32mx/lib/./proc/32MX795F512L\default_isr_vectors.o (__vector_dispatch_44)
c:/program files (x86)/microchip/xc32/v1.44/bin/bin/../../lib/gcc/pic32mx/4.8.3/../../../../pic32mx/lib\libpic32.a(vector45.o)
                              c:/program files (x86)/microchip/xc32/v1.44/bin/bin/../../lib/gcc/pic32mx/4.8.3/../../../../pic32mx/lib/./proc/32MX795F512L\default_isr_vectors.o (__vector_dispatch_45)
c:/program files (x86)/microchip/xc32/v1.44/bin/bin/../../lib/gcc/pic32mx/4.8.3/../../../../pic32mx/lib\libpic32.a(vector46.o)
                              c:/program files (x86)/microchip/xc32/v1.44/bin/bin/../../lib/gcc/pic32mx/4.8.3/../../../../pic32mx/lib/./proc/32MX795F512L\default_isr_vectors.o (__vector_dispatch_46)
c:/program files (x86)/microchip/xc32/v1.44/bin/bin/../../lib/gcc/pic32mx/4.8.3/../../../../pic32mx/lib\libpic32.a(vector47.o)
                              c:/program files (x86)/microchip/xc32/v1.44/bin/bin/../../lib/gcc/pic32mx/4.8.3/../../../../pic32mx/lib/./proc/32MX795F512L\default_isr_vectors.o (__vector_dispatch_47)
c:/program files (x86)/microchip/xc32/v1.44/bin/bin/../../lib/gcc/pic32mx/4.8.3/../../../../pic32mx/lib\libpic32.a(vector48.o)
                              c:/program files (x86)/microchip/xc32/v1.44/bin/bin/../../lib/gcc/pic32mx/4.8.3/../../../../pic32mx/lib/./proc/32MX795F512L\default_isr_vectors.o (__vector_dispatch_48)
c:/program files (x86)/microchip/xc32/v1.44/bin/bin/../../lib/gcc/pic32mx/4.8.3/../../../../pic32mx/lib\libpic32.a(vector49.o)
                              c:/program files (x86)/microchip/xc32/v1.44/bin/bin/../../lib/gcc/pic32mx/4.8.3/../../../../pic32mx/lib/./proc/32MX795F512L\default_isr_vectors.o (__vector_dispatch_49)
c:/program files (x86)/microchip/xc32/v1.44/bin/bin/../../lib/gcc/pic32mx/4.8.3/../../../../pic32mx/lib\libpic32.a(vector50.o)
                              c:/program files (x86)/microchip/xc32/v1.44/bin/bin/../../lib/gcc/pic32mx/4.8.3/../../../../pic32mx/lib/./proc/32MX795F512L\default_isr_vectors.o (__vector_dispatch_50)
c:/program files (x86)/microchip/xc32/v1.44/bin/bin/../../lib/gcc/pic32mx/4.8.3/../../../../pic32mx/lib\libpic32.a(vector51.o)
                              c:/program files (x86)/microchip/xc32/v1.44/bin/bin/../../lib/gcc/pic32mx/4.8.3/../../../../pic32mx/lib/./proc/32MX795F512L\default_isr_vectors.o (__vector_dispatch_51)
c:/program files (x86)/microchip/xc32/v1.44/bin/bin/../../lib/gcc/pic32mx/4.8.3/../../../../pic32mx/lib\libpic32.a(defaultinterrupt.o)
                              c:/program files (x86)/microchip/xc32/v1.44/bin/bin/../../lib/gcc/pic32mx/4.8.3/../../../../pic32mx/lib\libpic32.a(vector0.o) (_DefaultInterrupt)
c:/program files (x86)/microchip/xc32/v1.44/bin/bin/../../lib/gcc/pic32mx/4.8.3/../../../../pic32mx/lib\libc.a(atoi.o)
                              build/default/debug/_ext/1360937237/WiFiReceive.o (atoi)
c:/program files (x86)/microchip/xc32/v1.44/bin/bin/../../lib/gcc/pic32mx/4.8.3/../../../../pic32mx/lib\libc.a(ctype.o)
                              c:/program files (x86)/microchip/xc32/v1.44/bin/bin/../../lib/gcc/pic32mx/4.8.3/../../../../pic32mx/lib\libc.a(atoi.o) (_ctype)
c:/program files (x86)/microchip/xc32/v1.44/bin/bin/../../lib/gcc/pic32mx/4.8.3/../../../../pic32mx/lib\libc.a(strncmp.o)
                              build/default/debug/_ext/1360937237/WiFiReceive.o (strncmp)
c:/program files (x86)/microchip/xc32/v1.44/bin/bin/../../lib/gcc/pic32mx/4.8.3/../../../../pic32mx/lib\libc.a(sprintf_cdnopuxX.eo)
                              build/default/debug/_ext/1360937237/WiFiTransmit.o (_sprintf_cdnopuxX)
c:/program files (x86)/microchip/xc32/v1.44/bin/bin/../../lib/gcc/pic32mx/4.8.3/../../../../pic32mx/lib\libc.a(doprnt_cdnopuxX.eo)
                              c:/program files (x86)/microchip/xc32/v1.44/bin/bin/../../lib/gcc/pic32mx/4.8.3/../../../../pic32mx/lib\libc.a(sprintf_cdnopuxX.eo) (_vfprintf_cdnopuxX)
c:/program files (x86)/microchip/xc32/v1.44/bin/bin/../../lib/gcc/pic32mx/4.8.3/../../../../pic32mx/lib\libc.a(_fputc_simple.o)
                              c:/program files (x86)/microchip/xc32/v1.44/bin/bin/../../lib/gcc/pic32mx/4.8.3/../../../../pic32mx/lib\libc.a(doprnt_cdnopuxX.eo) (fputc)
c:/program files (x86)/microchip/xc32/v1.44/bin/bin/../../lib/gcc/pic32mx/4.8.3/../../../../pic32mx/lib\libc.a(_iob.o)
                              c:/program files (x86)/microchip/xc32/v1.44/bin/bin/../../lib/gcc/pic32mx/4.8.3/../../../../pic32mx/lib\libc.a(_fputc_simple.o) (_outdone)
c:/program files (x86)/microchip/xc32/v1.44/bin/bin/../../lib/gcc/pic32mx/4.8.3/../../../../pic32mx/lib\libc.a(_flsbuf_simple.o)
                              c:/program files (x86)/microchip/xc32/v1.44/bin/bin/../../lib/gcc/pic32mx/4.8.3/../../../../pic32mx/lib\libc.a(_fputc_simple.o) (_flsbuf)
c:/program files (x86)/microchip/xc32/v1.44/bin/bin/../../lib/gcc/pic32mx/4.8.3/../../../../pic32mx/lib\libm.a(fp32div.o)
                              build/default/debug/_ext/1360937237/motor_encoder_thread.o (fpdiv)
c:/program files (x86)/microchip/xc32/v1.44/bin/bin/../../lib/gcc/pic32mx/4.8.3/../../../../pic32mx/lib\libm.a(fp32mul.o)
                              build/default/debug/_ext/1360937237/motor_encoder_thread.o (fpmul)
c:/program files (x86)/microchip/xc32/v1.44/bin/bin/../../lib/gcc/pic32mx/4.8.3/../../../../pic32mx/lib\libm.a(fp32subadd.o)
                              build/default/debug/_ext/1360937237/motor_encoder_thread.o (fpadd)
c:/program files (x86)/microchip/xc32/v1.44/bin/bin/../../lib/gcc/pic32mx/4.8.3/../../../../pic32mx/lib\libm.a(fpcmp.o)
                              build/default/debug/_ext/1360937237/motor_encoder_thread.o (fpcmp)
c:/program files (x86)/microchip/xc32/v1.44/bin/bin/../../lib/gcc/pic32mx/4.8.3/../../../../pic32mx/lib\libm.a(fptoli.o)
                              build/default/debug/_ext/1360937237/motor_encoder_thread.o (fptosi)
c:/program files (x86)/microchip/xc32/v1.44/bin/bin/../../lib/gcc/pic32mx/4.8.3/../../../../pic32mx/lib\libm.a(sitofp.o)
                              build/default/debug/_ext/1360937237/motor_encoder_thread.o (sitofp)
c:/program files (x86)/microchip/xc32/v1.44/bin/bin/../../lib/gcc/pic32mx/4.8.3\libgcc.a(_udivdi3.o)
                              c:/program files (x86)/microchip/xc32/v1.44/bin/bin/../../lib/gcc/pic32mx/4.8.3/../../../../pic32mx/lib\libc.a(doprnt_cdnopuxX.eo) (__udivdi3)
c:/program files (x86)/microchip/xc32/v1.44/bin/bin/../../lib/gcc/pic32mx/4.8.3\libgcc.a(_umoddi3.o)
                              c:/program files (x86)/microchip/xc32/v1.44/bin/bin/../../lib/gcc/pic32mx/4.8.3/../../../../pic32mx/lib\libc.a(doprnt_cdnopuxX.eo) (__umoddi3)
c:/program files (x86)/microchip/xc32/v1.44/bin/bin/../../lib/gcc/pic32mx/4.8.3/../../../../pic32mx/lib\libpic32.a(write.o)
                              c:/program files (x86)/microchip/xc32/v1.44/bin/bin/../../lib/gcc/pic32mx/4.8.3/../../../../pic32mx/lib\libc.a(_fputc_simple.o) (write)
c:/program files (x86)/microchip/xc32/v1.44/bin/bin/../../lib/gcc/pic32mx/4.8.3/../../../../pic32mx/lib\libpic32.a(_mon_putc.o)
                              c:/program files (x86)/microchip/xc32/v1.44/bin/bin/../../lib/gcc/pic32mx/4.8.3/../../../../pic32mx/lib\libpic32.a(write.o) (_mon_putc)
c:/program files (x86)/microchip/xc32/v1.44/bin/bin/../../lib/gcc/pic32mx/4.8.3/../../../../pic32mx/lib\libpic32.a(xc32_uart.o)
                              c:/program files (x86)/microchip/xc32/v1.44/bin/bin/../../lib/gcc/pic32mx/4.8.3/../../../../pic32mx/lib\libpic32.a(_mon_putc.o) (__XC_UART)

Allocating common symbols
Common symbol       size              file

myUART              0x4               build/default/debug/_ext/1360937237/WiFiReceive.o
pxDelayedTaskList   0x4               build/default/debug/_ext/1128951024/tasks.o
usartreceivequeue   0x4               build/default/debug/_ext/1360937237/WiFiReceive.o
gDrvUSART0Obj       0x8               build/default/debug/_ext/327000265/drv_usart_static.o
sysObj              0x14              build/default/debug/_ext/1688732426/system_init.o
pxReadyTasksLists   0x64              build/default/debug/_ext/1128951024/tasks.o
pxOverflowDelayedTaskList
                    0x4               build/default/debug/_ext/1128951024/tasks.o
xPendingReadyList   0x14              build/default/debug/_ext/1128951024/tasks.o
wifitransmitqueue   0x4               build/default/debug/_ext/1360937237/WiFiTransmit.o
xTasksWaitingTermination
                    0x14              build/default/debug/_ext/1128951024/tasks.o
Encoder_Q           0x4               build/default/debug/_ext/1047219354/drv_oc_mapping.o
receive_q           0x4               build/default/debug/_ext/1360937237/Control.o
usarttransmitqueue  0x4               build/default/debug/_ext/1360937237/WiFiTransmit.o
controltimer        0x4               build/default/debug/_ext/1360937237/Control.o
wifireceiveData     0x4               build/default/debug/_ext/1360937237/WiFiReceive.o
sysDevconObj        0x8               build/default/debug/_ext/340578644/sys_devcon.o
xSuspendedTaskList  0x14              build/default/debug/_ext/1128951024/tasks.o
xDelayedTaskList2   0x14              build/default/debug/_ext/1128951024/tasks.o
xDelayedTaskList1   0x14              build/default/debug/_ext/1128951024/tasks.o

Microchip PIC32 Memory-Usage Report

kseg0 Program-Memory Usage
section                    address  length [bytes]      (dec)  Description
-------                 ----------  -------------------------  -----------
.text._vfprintf_cdnopux 0x9d000000          0xc8c        3212   
.text.jsmn_parse        0x9d000c8c          0x844        2116   
.text                   0x9d0014d0          0x8bc        2236  App's exec code 
.text                   0x9d001d8c          0x454        1108  App's exec code 
.text.fpsubadd          0x9d0021e0          0x278         632   
.text.prvTimerTask      0x9d002458          0x274         628   
.text.xQueueGenericRece 0x9d0026cc          0x264         612   
.text.fp32div           0x9d002930          0x230         560   
.text.xQueueGenericSend 0x9d002b60          0x20c         524   
.dinit                  0x9d002d6c          0x200         512   
.text.ParseJson         0x9d002f6c          0x1e4         484   
.text.fp32mul           0x9d003150          0x1bc         444   
.ExternalInterruptInsta 0x9d00330c          0x1b4         436   
.ExternalInterruptInsta 0x9d0034c0          0x1b4         436   
.DrvTmrInstance0_vector 0x9d003674          0x1b4         436   
.DrvTmrInstance1_vector 0x9d003828          0x1b4         436   
.DrvTmrInstance2_vector 0x9d0039dc          0x1b4         436   
.DrvTmrInstance3_vector 0x9d003b90          0x1b4         436   
.DrvUsartInstance0_vect 0x9d003d44          0x1b4         436   
.text.xTaskGenericNotif 0x9d003ef8          0x1a8         424   
.text.WIFIRECEIVE_Tasks 0x9d0040a0          0x1a4         420   
.text.SYS_Initialize    0x9d004244          0x19c         412   
.text.xTaskIncrementTic 0x9d0043e0          0x198         408   
.text.DRV_USART0_Initia 0x9d004578          0x190         400   
.text.CONTROL_Tasks     0x9d004708          0x174         372   
.text.xTaskGenericNotif 0x9d00487c          0x170         368   
.text.Left_PID_module   0x9d0049ec          0x16c         364   
.text.Right_PID_module  0x9d004b58          0x16c         364   
.text                   0x9d004cc4          0x2d0         720  App's exec code 
.text.vTaskPrioritySet  0x9d004f94          0x15c         348   
.text._state_machine_wa 0x9d0050f0          0x154         340   
.text.cipango_state     0x9d005244          0x154         340   
.text.WIFITRANSMIT_Task 0x9d005398          0x148         328   
.text.xTaskResumeAll    0x9d0054e0          0x148         328   
.text.xEventGroupWaitBi 0x9d005628          0x148         328   
.text.fputc             0x9d005770          0x144         324   
.text.vTaskSuspend      0x9d0058b4          0x130         304   
.text.prvInitialiseNewT 0x9d0059e4          0x12c         300   
.text.vTaskPriorityInhe 0x9d005b10          0x12c         300   
.text._flsbuf           0x9d005c3c          0x12c         300   
.rodata                 0x9d005d68          0x128         296  Read-only const 
.text._state_machine_ar 0x9d005e90          0x120         288   
.text.vTaskDelete       0x9d005fb0          0x120         288   
.text._state_machine_tr 0x9d0060d0          0x11c         284   
.text._state_machine_ar 0x9d0061ec          0x11c         284   
.text._state_machine_tr 0x9d006308          0x118         280   
.text.xEventGroupSync   0x9d006420          0x110         272   
.text._state_machine_wa 0x9d006530          0x108         264   
.text.xTaskNotifyWait   0x9d006638          0x108         264   
.text._state_machine_wa 0x9d006740          0x104         260   
.text.prvAddNewTaskToRe 0x9d006844          0x104         260   
.text.vTaskNotifyGiveFr 0x9d006948          0x104         260   
.text.prvSampleTimeNow  0x9d006a4c          0x104         260   
.rodata                 0x9d006b50          0x104         260  Read-only const 
.text.prvUnlockQueue    0x9d006c54           0xfc         252   
.text.xEventGroupSetBit 0x9d006d50           0xfc         252   
.text.xTaskPriorityDisi 0x9d006e4c           0xf8         248   
.text.prvCopyDataToQueu 0x9d006f44           0xf4         244   
.text.DRV_USART0_BaudSe 0x9d007038           0xf0         240   
.text.xQueueGenericSend 0x9d007128           0xf0         240   
.text.prvAddCurrentTask 0x9d007218           0xe4         228   
.text.SYS_DEVCON_Perfor 0x9d0072fc           0xe0         224   
.text.xQueueReceiveFrom 0x9d0073dc           0xe0         224   
.text.vTaskSwitchContex 0x9d0074bc           0xe0         224   
.text.SYS_Tasks         0x9d00759c           0xdc         220   
.text.general_exception 0x9d007678           0xdc         220   
.text.xTaskResumeFromIS 0x9d007754           0xd8         216   
.text._mon_putc         0x9d00782c           0xd4         212   
.rodata                 0x9d007900           0xd0         208  Read-only const 
.text.DRV_ADC_Initializ 0x9d0079d0           0xc4         196   
.text.ulTaskNotifyTake  0x9d007a94           0xc4         196   
.text.xQueueGenericRese 0x9d007b58           0xc0         192   
.text.xQueueGiveFromISR 0x9d007c18           0xc0         192   
.text.xTaskCreate       0x9d007cd8           0xc0         192   
.text.vTaskResume       0x9d007d98           0xc0         192   
.text.xTaskRemoveFromEv 0x9d007e58           0xbc         188   
.text.pvPortMalloc      0x9d007f14           0xb8         184   
.text.DRV_TMR0_ClockSet 0x9d007fcc           0xb4         180   
.text.DRV_TMR1_ClockSet 0x9d008080           0xb4         180   
.text.DRV_TMR2_ClockSet 0x9d008134           0xb4         180   
.text.DRV_TMR3_ClockSet 0x9d0081e8           0xb4         180   
.text._DRV_TMR_ClockSou 0x9d00829c           0xa8         168   
.text.SYS_PORTS_Initial 0x9d008344           0xa8         168   
.text.vTaskDelayUntil   0x9d0083ec           0xa8         168   
.text                   0x9d008494           0xa8         168  App's exec code 
.text.atoi              0x9d00853c           0xa8         168   
.text.DRV_TMR0_Prescale 0x9d0085e4           0xa4         164   
.text.DRV_TMR1_Prescale 0x9d008688           0xa4         164   
.text.DRV_TMR2_Prescale 0x9d00872c           0xa4         164   
.text.DRV_TMR3_Prescale 0x9d0087d0           0xa4         164   
.text.xTaskCheckForTime 0x9d008874           0xa0         160   
.text.JsonToString      0x9d008914           0x9c         156   
.text.xTaskRemoveFromUn 0x9d0089b0           0x9c         156   
.text.fpcmp             0x9d008a4c           0x9c         156   
.text.write             0x9d008ae8           0x9c         156   
.text.DRV_OC_Initialize 0x9d008b84           0x94         148   
.text.DRV_OC_Start      0x9d008c18           0x94         148   
.text.MOTOR_ENCODER_THR 0x9d008cac           0x94         148   
.text.xQueueGenericCrea 0x9d008d40           0x94         148   
.text.xTimerGenericComm 0x9d008dd4           0x94         148   
.text.CONTROL_Initializ 0x9d008e68           0x90         144   
.text.prvInitialiseTask 0x9d008ef8           0x90         144   
.text.prvCheckTasksWait 0x9d008f88           0x90         144   
.text._state_machine_st 0x9d009018           0x8c         140   
.text.OSAL_SEM_Create   0x9d0090a4           0x8c         140   
.text.vQueueWaitForMess 0x9d009130           0x8c         140   
.text.vTaskStartSchedul 0x9d0091bc           0x8c         140   
.text.DRV_TMR_ClockSet  0x9d009248           0x88         136   
.text.xTimerCreate      0x9d0092d0           0x88         136   
.text.DRV_OC_FaultHasOc 0x9d009358           0x84         132   
.text.DRV_TMR_ClientSta 0x9d0093dc           0x84         132   
.text.DRV_TMR_CounterVa 0x9d009460           0x84         132   
.text.DRV_TMR_Start     0x9d0094e4           0x84         132   
.text.DRV_TMR_Prescaler 0x9d009568           0x84         132   
.text.DRV_TMR_CounterFr 0x9d0095ec           0x84         132   
.text.DRV_TMR_DividerRa 0x9d009670           0x84         132   
.text.jsoneq            0x9d0096f4           0x84         132   
.text.DRV_TMR_Initializ 0x9d009778           0x80         128   
.text._DRV_USART0_Error 0x9d0097f8           0x80         128   
.text.fptoli            0x9d009878           0x80         128   
.text.DRV_TMR0_Initiali 0x9d0098f8           0x7c         124   
.text.DRV_TMR2_Initiali 0x9d009974           0x78         120   
.text.DRV_OC_Stop       0x9d0099ec           0x74         116   
.text.DRV_OC_PulseWidth 0x9d009a60           0x74         116   
.text.DRV_TMR3_Initiali 0x9d009ad4           0x74         116   
.text.DRV_TMR_Deinitial 0x9d009b48           0x74         116   
.text.DRV_TMR_Close     0x9d009bbc           0x74         116   
.text.DRV_TMR_CounterVa 0x9d009c30           0x74         116   
.text.DRV_TMR_CounterCl 0x9d009ca4           0x74         116   
.text.DRV_TMR_Stop      0x9d009d18           0x74         116   
.text.DRV_USART0_LineCo 0x9d009d8c           0x74         116   
.text.xQueuePeekFromISR 0x9d009e00           0x74         116   
.text.prvInsertTimerInA 0x9d009e74           0x74         116   
.text.prvCheckForValidL 0x9d009ee8           0x74         116   
.text.DRV_TMR1_Initiali 0x9d009f5c           0x70         112   
.text.SendToTransmitQue 0x9d009fcc           0x70         112   
.text.strncmp           0x9d00a03c           0x70         112   
.text.ISR_UART_RECEIVE  0x9d00a0ac           0x6c         108   
.text.Dispatch          0x9d00a118           0x6c         108   
.text.ISR_UART_TRANSMIT 0x9d00a184           0x6c         108   
.text.vApplicationSetup 0x9d00a1f0           0x6c         108   
.text.IntHandlerDrvUsar 0x9d00a25c           0x68         104   
.text.MOTOR_ENCODER_THR 0x9d00a2c4           0x68         104   
.text._sprintf_cdnopuxX 0x9d00a32c           0x68         104   
.text.DRV_USART0_WriteB 0x9d00a394           0x60          96   
.text.SYS_PORTS_PinWrit 0x9d00a3f4           0x60          96   
.text.SYS_PORTS_PinDire 0x9d00a454           0x60          96   
.rodata                 0x9d00a4b4           0x60          96  Read-only const 
.text.vTaskExitCritical 0x9d00a514           0x60          96   
.text.xTaskNotifyStateC 0x9d00a574           0x60          96   
.text.sitofp            0x9d00a5d4           0x60          96   
.text.xPortStartSchedul 0x9d00a634           0x5c          92   
.text.vListInsert       0x9d00a690           0x5c          92   
.text.xTimerCreateTimer 0x9d00a6ec           0x5c          92   
.text.SYS_DEVCON_System 0x9d00a748           0x58          88   
.text.WIFIRECEIVE_Initi 0x9d00a7a0           0x58          88   
.text.SendToControlQueu 0x9d00a7f8           0x58          88   
.text.xQueueCreateMutex 0x9d00a850           0x58          88   
.text.vTaskDelay        0x9d00a8a8           0x58          88   
.text.vEventGroupDelete 0x9d00a900           0x58          88   
.text.main_entry        0x9d00a958           0x54          84   
.text.SYS_PORTS_Directi 0x9d00a9ac           0x54          84   
.text.CheckString       0x9d00aa00           0x54          84   
.rodata                 0x9d00aa54           0x54          84  Read-only const 
.text.SYS_INT_SourceDis 0x9d00aaa8           0x54          84   
.text.pxPortInitialiseS 0x9d00aafc           0x54          84   
.text.vPortIncrementTic 0x9d00ab50           0x54          84   
.text.DRV_USART0_ReadBy 0x9d00aba4           0x50          80   
.text.SYS_PORTS_ChangeN 0x9d00abf4           0x50          80   
.text.IntHandlerExterna 0x9d00ac44           0x50          80   
.text.IntHandlerExterna 0x9d00ac94           0x50          80   
.text.SendToQueue       0x9d00ace4           0x50          80   
.text._state_machine_se 0x9d00ad34           0x50          80   
.text.requeststatus     0x9d00ad84           0x50          80   
.text.prvCopyDataFromQu 0x9d00add4           0x50          80   
.text.xEventGroupClearB 0x9d00ae24           0x50          80   
.text.DRV_TMR0_CounterF 0x9d00ae74           0x4c          76   
.text.DRV_TMR3_CounterF 0x9d00aec0           0x4c          76   
.text.DRV_USART0_Deinit 0x9d00af0c           0x4c          76   
.text.OSAL_SEM_PostISR  0x9d00af58           0x4c          76   
.text.DRV_USART0_Transf 0x9d00afa4           0x48          72   
.text.SYS_CLK_Secondary 0x9d00afec           0x48          72   
.text.SYS_CLK_Secondary 0x9d00b034           0x48          72   
.text.SYS_DEVCON_System 0x9d00b07c           0x48          72   
.text.Motor_Left_Set    0x9d00b0c4           0x48          72   
.text.Motor_Right_Set   0x9d00b10c           0x48          72   
.text.OSAL_CRIT_Enter   0x9d00b154           0x48          72   
.text.vTaskEnterCritica 0x9d00b19c           0x48          72   
.text.vTaskPlaceOnUnord 0x9d00b1e4           0x48          72   
.text.vTaskPlaceOnEvent 0x9d00b22c           0x48          72   
.text._bootstrap_except 0x9d00b274           0x48          72   
.vector_default         0x9d00b2bc           0x48          72   
.text.DRV_USART0_TasksT 0x9d00b304           0x44          68   
.text.SYS_CLK_Initializ 0x9d00b348           0x44          68   
.text.SYS_DEVCON_PowerM 0x9d00b38c           0x44          68   
.text.IntHandlerDrvTmrI 0x9d00b3d0           0x44          68   
.text._general_exceptio 0x9d00b414           0x44          68   
.text.OSAL_CRIT_Leave   0x9d00b458           0x44          68   
.text.uxListRemove      0x9d00b49c           0x44          68   
.text                   0x9d00b4e0           0x44          68  App's exec code 
.text.DRV_OC2_Initializ 0x9d00b524           0x40          64   
.text.DRV_OC3_Initializ 0x9d00b564           0x40          64   
.text.OSAL_SEM_Pend     0x9d00b5a4           0x40          64   
.text.OSAL_MUTEX_Lock   0x9d00b5e4           0x40          64   
.text.prvIdleTask       0x9d00b624           0x40          64   
.text.DRV_ADC_NegativeI 0x9d00b664           0x3c          60   
.text.DRV_ADC_PositiveI 0x9d00b6a0           0x3c          60   
.text.DRV_OC0_Initializ 0x9d00b6dc           0x3c          60   
.text.DRV_OC1_Initializ 0x9d00b718           0x3c          60   
.text.DRV_TMR0_Stop     0x9d00b754           0x3c          60   
.text.DRV_TMR1_Stop     0x9d00b790           0x3c          60   
.text.DRV_TMR2_Stop     0x9d00b7cc           0x3c          60   
.text.DRV_TMR3_Stop     0x9d00b808           0x3c          60   
.text.hash              0x9d00b844           0x3c          60   
.text.WIFITRANSMIT_Init 0x9d00b880           0x3c          60   
.text.SendOverWiFi      0x9d00b8bc           0x3c          60   
.text.OSAL_MUTEX_Create 0x9d00b8f8           0x3c          60   
.text.OSAL_MUTEX_Delete 0x9d00b934           0x3c          60   
.text.uxPortSetInterrup 0x9d00b970           0x3c          60   
.text.uxTaskPriorityGet 0x9d00b9ac           0x3c          60   
.text.xEventGroupCreate 0x9d00b9e8           0x3c          60   
.text.DRV_TMR0_Start    0x9d00ba24           0x38          56   
.text.DRV_TMR1_Start    0x9d00ba5c           0x38          56   
.text.DRV_TMR2_Start    0x9d00ba94           0x38          56   
.text.DRV_TMR3_Start    0x9d00bacc           0x38          56   
.text.GetMessageStat    0x9d00bb04           0x38          56   
.text.Forward           0x9d00bb3c           0x38          56   
.text.Backward          0x9d00bb74           0x38          56   
.text.uxQueueSpacesAvai 0x9d00bbac           0x38          56   
.text.prvTaskIsTaskSusp 0x9d00bbe4           0x38          56   
.text.prvResetNextTaskU 0x9d00bc1c           0x38          56   
.text.uxTaskPriorityGet 0x9d00bc54           0x38          56   
.text.vTaskPlaceOnEvent 0x9d00bc8c           0x38          56   
.text.vTimerSetTimerID  0x9d00bcc4           0x38          56   
.text.DRV_USART_ClientS 0x9d00bcfc           0x34          52   
.text.DRV_USART_Transfe 0x9d00bd30           0x34          52   
.text.DRV_USART_ErrorGe 0x9d00bd64           0x34          52   
.text.DRV_USART_ReadByt 0x9d00bd98           0x34          52   
.text.DRV_USART_Receive 0x9d00bdcc           0x34          52   
.text.DRV_USART_Transmi 0x9d00be00           0x34          52   
.text.DRV_USART_Receive 0x9d00be34           0x34          52   
.text.DRV_USART_Transmi 0x9d00be68           0x34          52   
.text.DRV_USART_BaudSet 0x9d00be9c           0x34          52   
.text.DRV_USART_LineCon 0x9d00bed0           0x34          52   
.text.Read_Encoders     0x9d00bf04           0x34          52   
.text.xQueueCreateCount 0x9d00bf38           0x34          52   
.text.uxQueueMessagesWa 0x9d00bf6c           0x34          52   
.text.vTaskEndScheduler 0x9d00bfa0           0x34          52   
.text.xTimerIsTimerActi 0x9d00bfd4           0x34          52   
.text.xEventGroupGetBit 0x9d00c008           0x34          52   
.text.DRV_TMR_Open      0x9d00c03c           0x30          48   
.text.DRV_USART_Initial 0x9d00c06c           0x30          48   
.text.DRV_USART_Status  0x9d00c09c           0x30          48   
.text.DRV_USART_Open    0x9d00c0cc           0x30          48   
.text.SYS_PORTS_PinTogg 0x9d00c0fc           0x30          48   
.text.SYS_PORTS_PinSet  0x9d00c12c           0x30          48   
.text.SYS_PORTS_PinClea 0x9d00c15c           0x30          48   
.text.SYS_PORTS_PinOpen 0x9d00c18c           0x30          48   
.text.SYS_PORTS_PinOpen 0x9d00c1bc           0x30          48   
.text.GetConnectionStat 0x9d00c1ec           0x30          48   
.text.OSAL_SEM_Delete   0x9d00c21c           0x30          48   
.text.OSAL_SEM_Post     0x9d00c24c           0x30          48   
.text.OSAL_MUTEX_Unlock 0x9d00c27c           0x30          48   
.text.vListInsertEnd    0x9d00c2ac           0x30          48   
.text.prvDeleteTCB      0x9d00c2dc           0x30          48   
.text.pvTimerGetTimerID 0x9d00c30c           0x30          48   
.text.DRV_TMR0_DividerR 0x9d00c33c           0x2c          44   
.text.DRV_TMR1_DividerR 0x9d00c368           0x2c          44   
.text.DRV_TMR2_DividerR 0x9d00c394           0x2c          44   
.text.DRV_TMR3_DividerR 0x9d00c3c0           0x2c          44   
.text.DRV_USART_Close   0x9d00c3ec           0x2c          44   
.text.DRV_USART_WriteBy 0x9d00c418           0x2c          44   
.text.SYS_PORTS_Set     0x9d00c444           0x2c          44   
.text.SYS_PORTS_PinMode 0x9d00c470           0x2c          44   
.text.SYS_PORTS_PinRead 0x9d00c49c           0x2c          44   
.text.Pause             0x9d00c4c8           0x2c          44   
.text.OSAL_SEM_GetCount 0x9d00c4f4           0x2c          44   
.text.DRV_USART_Deiniti 0x9d00c520           0x28          40   
.text.DRV_USART_TasksTr 0x9d00c548           0x28          40   
.text.DRV_USART_TasksRe 0x9d00c570           0x28          40   
.text.DRV_USART_TasksEr 0x9d00c598           0x28          40   
.text.DRV_USART0_TasksR 0x9d00c5c0           0x28          40   
.text.DRV_USART0_TasksE 0x9d00c5e8           0x28          40   
.text.SYS_PORTS_Read    0x9d00c610           0x28          40   
.text.SYS_PORTS_Write   0x9d00c638           0x28          40   
.text.SYS_PORTS_Clear   0x9d00c660           0x28          40   
.text.SYS_PORTS_Directi 0x9d00c688           0x28          40   
.text.SYS_PORTS_Toggle  0x9d00c6b0           0x28          40   
.text.SYS_PORTS_OpenDra 0x9d00c6d8           0x28          40   
.text.SYS_PORTS_OpenDra 0x9d00c700           0x28          40   
.text.SYS_INT_ExternalI 0x9d00c728           0x28          40   
.text.pvTaskIncrementMu 0x9d00c750           0x28          40   
.text.vApplicationStack 0x9d00c778           0x24          36   
.text.vApplicationMallo 0x9d00c79c           0x24          36   
.text.Left_Motor_PID    0x9d00c7c0           0x24          36   
.text.Right_Motor_PID   0x9d00c7e4           0x24          36   
.text.prvTaskExitError  0x9d00c808           0x24          36   
.text.uxTaskResetEventI 0x9d00c82c           0x24          36   
.text.DRV_ADC_Open      0x9d00c850           0x20          32   
.text.DRV_ADC_SamplesRe 0x9d00c870           0x20          32   
.text.main              0x9d00c890           0x20          32   
.text.SYS_INT_Disable   0x9d00c8b0           0x20          32   
.text.vListInitialise   0x9d00c8d0           0x20          32   
.text.xTaskGetScheduler 0x9d00c8f0           0x20          32   
.text.DRV_ADC_DeInitial 0x9d00c910           0x1c          28   
.text.DRV_ADC_Close     0x9d00c92c           0x1c          28   
.text.DRV_ADC_ChannelSc 0x9d00c948           0x1c          28   
.text.SYS_DEVCON_TraceE 0x9d00c964           0x1c          28   
.text.SYS_INT_StatusGet 0x9d00c980           0x1c          28   
.text.SYS_INT_StatusRes 0x9d00c99c           0x1c          28   
.text.vPortClearInterru 0x9d00c9b8           0x1c          28   
.text.vQueueDelete      0x9d00c9d4           0x1c          28   
.text.vEventGroupSetBit 0x9d00c9f0           0x1c          28   
.text.vEventGroupClearB 0x9d00ca0c           0x1c          28   
.text.DRV_ADC_Start     0x9d00ca28           0x18          24   
.text.DRV_ADC_Stop      0x9d00ca40           0x18          24   
.text.DRV_USART0_Receiv 0x9d00ca58           0x18          24   
.text.SYS_DEVCON_JTAGEn 0x9d00ca70           0x18          24   
.text.SYS_DEVCON_JTAGDi 0x9d00ca88           0x18          24   
.text.SYS_DEVCON_TraceD 0x9d00caa0           0x18          24   
.text.SYS_PORTS_ChangeN 0x9d00cab8           0x18          24   
.text.SYS_PORTS_ChangeN 0x9d00cad0           0x18          24   
.text.SYS_PORTS_ChangeN 0x9d00cae8           0x18          24   
.text.IntHandlerDrvTmrI 0x9d00cb00           0x18          24   
.text.IntHandlerDrvTmrI 0x9d00cb18           0x18          24   
.text.IntHandlerDrvTmrI 0x9d00cb30           0x18          24   
.text._CONTROL_Tasks    0x9d00cb48           0x18          24   
.text._MOTOR_ENCODER_TH 0x9d00cb60           0x18          24   
.text._WIFITRANSMIT_Tas 0x9d00cb78           0x18          24   
.text._WIFIRECEIVE_Task 0x9d00cb90           0x18          24   
.rodata                 0x9d00cba8           0x18          24  Read-only const 
.text                   0x9d00cbc0           0x18          24  App's exec code 
.text.DRV_ADC_ChannelSc 0x9d00cbd8           0x14          20   
.text.DRV_ADC_SamplesAv 0x9d00cbec           0x14          20   
.text.DRV_OC0_Enable    0x9d00cc00           0x14          20   
.text.DRV_OC0_Disable   0x9d00cc14           0x14          20   
.text.DRV_OC0_Start     0x9d00cc28           0x14          20   
.text.DRV_OC0_Stop      0x9d00cc3c           0x14          20   
.text.DRV_OC0_PulseWidt 0x9d00cc50           0x14          20   
.text.DRV_OC1_Enable    0x9d00cc64           0x14          20   
.text.DRV_OC1_Disable   0x9d00cc78           0x14          20   
.text.DRV_OC1_Start     0x9d00cc8c           0x14          20   
.text.DRV_OC1_Stop      0x9d00cca0           0x14          20   
.text.DRV_OC1_PulseWidt 0x9d00ccb4           0x14          20   
.text.DRV_OC2_Enable    0x9d00ccc8           0x14          20   
.text.DRV_OC2_Disable   0x9d00ccdc           0x14          20   
.text.DRV_OC2_Start     0x9d00ccf0           0x14          20   
.text.DRV_OC2_Stop      0x9d00cd04           0x14          20   
.text.DRV_OC2_PulseWidt 0x9d00cd18           0x14          20   
.text.DRV_OC3_Enable    0x9d00cd2c           0x14          20   
.text.DRV_OC3_Disable   0x9d00cd40           0x14          20   
.text.DRV_OC3_Start     0x9d00cd54           0x14          20   
.text.DRV_OC3_Stop      0x9d00cd68           0x14          20   
.text.DRV_OC3_PulseWidt 0x9d00cd7c           0x14          20   
.text.DRV_TMR0_ClientSt 0x9d00cd90           0x14          20   
.text.DRV_TMR0_CounterV 0x9d00cda4           0x14          20   
.text.DRV_TMR0_CounterV 0x9d00cdb8           0x14          20   
.text.DRV_TMR0_PeriodVa 0x9d00cdcc           0x14          20   
.text.DRV_TMR0_PeriodVa 0x9d00cde0           0x14          20   
.text.DRV_TMR0_StopInId 0x9d00cdf4           0x14          20   
.text.DRV_TMR0_StopInId 0x9d00ce08           0x14          20   
.text.DRV_TMR1_ClientSt 0x9d00ce1c           0x14          20   
.text.DRV_TMR1_CounterV 0x9d00ce30           0x14          20   
.text.DRV_TMR1_CounterV 0x9d00ce44           0x14          20   
.text.DRV_TMR1_PeriodVa 0x9d00ce58           0x14          20   
.text.DRV_TMR1_PeriodVa 0x9d00ce6c           0x14          20   
.text.DRV_TMR1_StopInId 0x9d00ce80           0x14          20   
.text.DRV_TMR1_StopInId 0x9d00ce94           0x14          20   
.text.DRV_TMR2_ClientSt 0x9d00cea8           0x14          20   
.text.DRV_TMR2_CounterV 0x9d00cebc           0x14          20   
.text.DRV_TMR2_CounterV 0x9d00ced0           0x14          20   
.text.DRV_TMR2_PeriodVa 0x9d00cee4           0x14          20   
.text.DRV_TMR2_PeriodVa 0x9d00cef8           0x14          20   
.text.DRV_TMR2_StopInId 0x9d00cf0c           0x14          20   
.text.DRV_TMR2_StopInId 0x9d00cf20           0x14          20   
.text.DRV_TMR3_ClientSt 0x9d00cf34           0x14          20   
.text.DRV_TMR3_CounterV 0x9d00cf48           0x14          20   
.text.DRV_TMR3_CounterV 0x9d00cf5c           0x14          20   
.text.DRV_TMR3_PeriodVa 0x9d00cf70           0x14          20   
.text.DRV_TMR3_PeriodVa 0x9d00cf84           0x14          20   
.text.DRV_TMR3_StopInId 0x9d00cf98           0x14          20   
.text.DRV_TMR3_StopInId 0x9d00cfac           0x14          20   
.text.DRV_USART0_Transm 0x9d00cfc0           0x14          20   
.text.SYS_DEVCON_Initia 0x9d00cfd4           0x14          20   
.text.SYS_PORTS_ChangeN 0x9d00cfe8           0x14          20   
.text.SYS_PORTS_ChangeN 0x9d00cffc           0x14          20   
.text.SYS_PORTS_GlobalC 0x9d00d010           0x14          20   
.text.SYS_PORTS_ChangeN 0x9d00d024           0x14          20   
.text.SYS_PORTS_ChangeN 0x9d00d038           0x14          20   
.text.jsmn_init         0x9d00d04c           0x14          20   
.text.SYS_INT_Initializ 0x9d00d060           0x14          20   
.text.xPortGetFreeHeapS 0x9d00d074           0x14          20   
.text.xQueueIsQueueFull 0x9d00d088           0x14          20   
.text.vTaskSuspendAll   0x9d00d09c           0x14          20   
.text.vTaskSetTimeOutSt 0x9d00d0b0           0x14          20   
.text.DRV_OC0_FaultHasO 0x9d00d0c4           0x10          16   
.text.DRV_OC1_FaultHasO 0x9d00d0d4           0x10          16   
.text.DRV_OC2_FaultHasO 0x9d00d0e4           0x10          16   
.text.DRV_OC3_FaultHasO 0x9d00d0f4           0x10          16   
.text.DRV_TMR0_CounterC 0x9d00d104           0x10          16   
.text.DRV_TMR1_CounterC 0x9d00d114           0x10          16   
.text.DRV_TMR2_CounterC 0x9d00d124           0x10          16   
.text.DRV_TMR3_CounterC 0x9d00d134           0x10          16   
.text.DRV_USART0_ErrorG 0x9d00d144           0x10          16   
.text.SYS_CLK_Secondary 0x9d00d154           0x10          16   
.text.SYS_DEVCON_Reinit 0x9d00d164           0x10          16   
.rodata                 0x9d00d174           0x10          16  Read-only const 
.text.pcTaskGetName     0x9d00d184           0x10          16   
.text.vTaskMissedYield  0x9d00d194           0x10          16   
.text.__exception_handl 0x9d00d1a4            0xc          12   
.text.SYS_CLK_SystemFre 0x9d00d1b0            0xc          12   
.text.SYS_CLK_Periphera 0x9d00d1bc            0xc          12   
.rodata                 0x9d00d1c8           0x18          24  Read-only const 
.text.OSAL_Name         0x9d00d1e0            0xc          12   
.text.uxQueueMessagesWa 0x9d00d1ec            0xc          12   
.text.xQueueIsQueueEmpt 0x9d00d1f8            0xc          12   
.text.xTaskGetTickCount 0x9d00d204            0xc          12   
.text.xTaskGetTickCount 0x9d00d210            0xc          12   
.text.uxTaskGetNumberOf 0x9d00d21c            0xc          12   
.text.xTaskGetCurrentTa 0x9d00d228            0xc          12   
.text.DRV_OC_CompareVal 0x9d00d234            0x8           8   
.text.DRV_OC_CompareVal 0x9d00d23c            0x8           8   
.text.DRV_TMR1_CounterF 0x9d00d244            0x8           8   
.text.DRV_TMR2_CounterF 0x9d00d24c            0x8           8   
.text.DRV_TMR_Status    0x9d00d254            0x8           8   
.text.DRV_TMR_Tasks     0x9d00d25c            0x8           8   
.text.DRV_TMR_AlarmRegi 0x9d00d264            0x8           8   
.text.DRV_TMR_AlarmDisa 0x9d00d26c            0x8           8   
.text.DRV_TMR_AlarmEnab 0x9d00d274            0x8           8   
.text.DRV_TMR_AlarmPeri 0x9d00d27c            0x8           8   
.text.DRV_TMR_AlarmPeri 0x9d00d284            0x8           8   
.text.DRV_TMR_AlarmDere 0x9d00d28c            0x8           8   
.text.DRV_TMR_AlarmHasE 0x9d00d294            0x8           8   
.text.DRV_TMR_Operation 0x9d00d29c            0x8           8   
.text.DRV_TMR_GateModeS 0x9d00d2a4            0x8           8   
.text.DRV_TMR_GateModeC 0x9d00d2ac            0x8           8   
.text.DRV_USART0_Status 0x9d00d2b4            0x8           8   
.text.DRV_USART0_Open   0x9d00d2bc            0x8           8   
.text.DRV_USART0_Close  0x9d00d2c4            0x8           8   
.text.DRV_USART0_Client 0x9d00d2cc            0x8           8   
.text.DRV_USART0_Receiv 0x9d00d2d4            0x8           8   
.text.DRV_USART0_Transm 0x9d00d2dc            0x8           8   
.text.SYS_CLK_Reference 0x9d00d2e4            0x8           8   
.text.SYS_DEVCON_Deinit 0x9d00d2ec            0x8           8   
.text.SYS_DEVCON_Status 0x9d00d2f4            0x8           8   
.text.SYS_DEVCON_Tasks  0x9d00d2fc            0x8           8   
.text.SYS_PORTS_Latched 0x9d00d304            0x8           8   
.text.SYS_PORTS_Interru 0x9d00d30c            0x8           8   
.text.SYS_PORTS_PinLatc 0x9d00d314            0x8           8   
.text.SYS_PORTS_PinPull 0x9d00d31c            0x8           8   
.text.SYS_PORTS_PinPull 0x9d00d324            0x8           8   
.text.SYS_PORTS_PinPull 0x9d00d32c            0x8           8   
.text.SYS_PORTS_PinPull 0x9d00d334            0x8           8   
.text.SYS_PORTS_Interru 0x9d00d33c            0x8           8   
.text.SYS_PORTS_RemapIn 0x9d00d344            0x8           8   
.text.SYS_PORTS_RemapOu 0x9d00d34c            0x8           8   
.text._SYS_Tasks        0x9d00d354            0x8           8   
.text.OSAL_Initialize   0x9d00d35c            0x8           8   
.text.vPortFree         0x9d00d364            0x8           8   
.text.vPortInitialiseBl 0x9d00d36c            0x8           8   
.text.vPortEndScheduler 0x9d00d374            0x8           8   
.text.vListInitialiseIt 0x9d00d37c            0x8           8   
.rodata                 0x9d00d384           0x10          16  Read-only const 
.text.xTimerGetTimerDae 0x9d00d394            0x8           8   
.text.xTimerGetPeriod   0x9d00d39c            0x8           8   
.text.xTimerGetExpiryTi 0x9d00d3a4            0x8           8   
.text.pcTimerGetName    0x9d00d3ac            0x8           8   
.text._on_reset         0x9d00d3b4            0x8           8   
.text._on_bootstrap     0x9d00d3bc            0x8           8   
.rodata                 0x9d00d3c4            0x4           4  Read-only const 
      Total kseg0_program_mem used  :      0xd3c8       54216  10.3% of 0x80000

kseg0 Boot-Memory Usage
section                    address  length [bytes]      (dec)  Description
-------                 ----------  -------------------------  -----------
         Total kseg0_boot_mem used  :           0           0  <1% of 0x970

Exception-Memory Usage 
section                    address  length [bytes]      (dec)  Description
-------                 ----------  -------------------------  -----------
.app_excpt              0x9fc01180           0x10          16  General-Exception 
.vector_0               0x9fc01200            0x8           8  Interrupt Vector 0 
.vector_1               0x9fc01220            0x8           8  Interrupt Vector 1 
.vector_2               0x9fc01240            0x8           8  Interrupt Vector 2 
.vector_3               0x9fc01260            0x8           8  Interrupt Vector 3 
.vector_4               0x9fc01280            0x8           8  Interrupt Vector 4 
.vector_5               0x9fc012a0            0x8           8  Interrupt Vector 5 
.vector_6               0x9fc012c0            0x8           8  Interrupt Vector 6 
.vector_7               0x9fc012e0            0x8           8  Interrupt Vector 7 
.vector_8               0x9fc01300           0x10          16  Interrupt Vector 8 
.vector_9               0x9fc01320            0x8           8  Interrupt Vector 9 
.vector_10              0x9fc01340            0x8           8  Interrupt Vector 10 
.vector_11              0x9fc01360            0x8           8  Interrupt Vector 11 
.vector_12              0x9fc01380           0x10          16  Interrupt Vector 12 
.vector_13              0x9fc013a0            0x8           8  Interrupt Vector 13 
.vector_14              0x9fc013c0            0x8           8  Interrupt Vector 14 
.vector_15              0x9fc013e0           0x10          16  Interrupt Vector 15 
.vector_16              0x9fc01400           0x10          16  Interrupt Vector 16 
.vector_17              0x9fc01420            0x8           8  Interrupt Vector 17 
.vector_18              0x9fc01440            0x8           8  Interrupt Vector 18 
.vector_19              0x9fc01460           0x10          16  Interrupt Vector 19 
.vector_20              0x9fc01480           0x10          16  Interrupt Vector 20 
.vector_21              0x9fc014a0            0x8           8  Interrupt Vector 21 
.vector_22              0x9fc014c0            0x8           8  Interrupt Vector 22 
.vector_23              0x9fc014e0            0x8           8  Interrupt Vector 23 
.vector_24              0x9fc01500           0x10          16  Interrupt Vector 24 
.vector_25              0x9fc01520            0x8           8  Interrupt Vector 25 
.vector_26              0x9fc01540            0x8           8  Interrupt Vector 26 
.vector_27              0x9fc01560            0x8           8  Interrupt Vector 27 
.vector_28              0x9fc01580            0x8           8  Interrupt Vector 28 
.vector_29              0x9fc015a0            0x8           8  Interrupt Vector 29 
.vector_30              0x9fc015c0            0x8           8  Interrupt Vector 30 
.vector_31              0x9fc015e0            0x8           8  Interrupt Vector 31 
.vector_32              0x9fc01600            0x8           8  Interrupt Vector 32 
.vector_33              0x9fc01620            0x8           8  Interrupt Vector 33 
.vector_34              0x9fc01640            0x8           8  Interrupt Vector 34 
.vector_35              0x9fc01660            0x8           8  Interrupt Vector 35 
.vector_36              0x9fc01680            0x8           8  Interrupt Vector 36 
.vector_37              0x9fc016a0            0x8           8  Interrupt Vector 37 
.vector_38              0x9fc016c0            0x8           8  Interrupt Vector 38 
.vector_39              0x9fc016e0            0x8           8  Interrupt Vector 39 
.vector_40              0x9fc01700            0x8           8  Interrupt Vector 40 
.vector_41              0x9fc01720            0x8           8  Interrupt Vector 41 
.vector_42              0x9fc01740            0x8           8  Interrupt Vector 42 
.vector_43              0x9fc01760            0x8           8  Interrupt Vector 43 
.vector_44              0x9fc01780            0x8           8  Interrupt Vector 44 
.vector_45              0x9fc017a0            0x8           8  Interrupt Vector 45 
.vector_46              0x9fc017c0            0x8           8  Interrupt Vector 46 
.vector_47              0x9fc017e0            0x8           8  Interrupt Vector 47 
.vector_48              0x9fc01800            0x8           8  Interrupt Vector 48 
.vector_49              0x9fc01820            0x8           8  Interrupt Vector 49 
.vector_50              0x9fc01840            0x8           8  Interrupt Vector 50 
.vector_51              0x9fc01860            0x8           8  Interrupt Vector 51 
          Total exception_mem used  :       0x1e8         488  11.9% of 0x1000

kseg1 Boot-Memory Usage
section                    address  length [bytes]      (dec)  Description
-------                 ----------  -------------------------  -----------
.reset                  0xbfc00000          0x208         520  Reset handler 
.bev_excpt              0xbfc00380           0x10          16  BEV-Exception 
         Total kseg1_boot_mem used  :       0x218         536  45.9% of 0x490
        --------------------------------------------------------------------------
         Total Program Memory used  :      0xd7c8       55240  10.4% of 0x81e00
        --------------------------------------------------------------------------


kseg0 Data-Memory Usage
section                    address  length [bytes]      (dec)  Description
-------                 ----------  -------------------------  -----------
reserve_data_0_kseg0    0x80000000          0x200         512   
         Total kseg0_data_mem used  :       0x200         512  100.0% of 0x200

kseg1 Data-Memory Usage
section                    address  length [bytes]      (dec)  Description
-------                 ----------  -------------------------  -----------
reserve_data_0_kseg1    0xa0000000          0x200         512   
.sdata                  0xa0000200            0x8           8  Small init data 
.sbss                   0xa0000208           0xb4         180  Small uninit data 
.bss                    0xa00002bc           0xdc         220  Uninitialized data 
.bss                    0xa0000398        0x19640      104000  Uninitialized data 
.data                   0xa00199d8           0xec         236  Initialized data 
.bss                    0xa0019ac4           0x6c         108  Uninitialized data 
.bss                    0xa0019b30            0xc          12  Uninitialized data 
         Total kseg1_data_mem used  :     0x19b3c      105276  80.3% of 0x20000
        --------------------------------------------------------------------------
            Total Data Memory used  :     0x19d3c      105788  80.4% of 0x20200
        --------------------------------------------------------------------------


Dynamic Data-Memory Reservation
section                    address  length [bytes]      (dec)  Description
-------                 ----------  -------------------------  -----------
heap                    0xa0019b40           0x10          16  Reserved for heap 
stack                   0xa0019b68         0x6488       25736  Reserved for stack 

        --------------------------------------------------------------------------

Discarded input sections

 .reginfo       0x00000000       0x18 c:/program files (x86)/microchip/xc32/v1.44/bin/bin/../../lib/gcc/pic32mx/4.8.3/../../../../pic32mx/lib\software-debug-break.o
 .reginfo       0x00000000       0x18 build/default/debug/_ext/1361460060/drv_adc_static.o
 .reginfo       0x00000000       0x18 build/default/debug/_ext/1047219354/drv_oc_mapping.o
 .reginfo       0x00000000       0x18 build/default/debug/_ext/1047219354/drv_oc_static.o
 .reginfo       0x00000000       0x18 build/default/debug/_ext/1407244131/drv_tmr_static.o
 .reginfo       0x00000000       0x18 build/default/debug/_ext/1407244131/drv_tmr_mapping.o
 .reginfo       0x00000000       0x18 build/default/debug/_ext/327000265/drv_usart_mapping.o
 .reginfo       0x00000000       0x18 build/default/debug/_ext/327000265/drv_usart_static.o
 .reginfo       0x00000000       0x18 build/default/debug/_ext/327000265/drv_usart_static_byte_model.o
 .reginfo       0x00000000       0x18 build/default/debug/_ext/639803181/sys_clk_pic32mx.o
 .reginfo       0x00000000       0x18 build/default/debug/_ext/340578644/sys_devcon.o
 .reginfo       0x00000000       0x18 build/default/debug/_ext/340578644/sys_devcon_pic32mx.o
 .reginfo       0x00000000       0x18 build/default/debug/_ext/822048611/sys_ports_static.o
 .reginfo       0x00000000       0x18 build/default/debug/_ext/1688732426/system_init.o
 .reginfo       0x00000000       0x18 build/default/debug/_ext/1688732426/system_interrupt.o
 .reginfo       0x00000000       0x18 build/default/debug/_ext/1688732426/system_exceptions.o
 .reginfo       0x00000000       0x18 build/default/debug/_ext/1688732426/system_tasks.o
 .reginfo       0x00000000       0x18 build/default/debug/_ext/1688732426/system_interrupt_a.o
 .reginfo       0x00000000       0x18 build/default/debug/_ext/1688732426/rtos_hooks.o
 .reginfo       0x00000000       0x18 build/default/debug/_ext/1360937237/WiFiReceive.o
 .reginfo       0x00000000       0x18 build/default/debug/_ext/1360937237/WiFiTransmit.o
 .reginfo       0x00000000       0x18 build/default/debug/_ext/1360937237/motor_encoder_thread.o
 .reginfo       0x00000000       0x18 build/default/debug/_ext/1360937237/Control.o
 .reginfo       0x00000000       0x18 build/default/debug/_ext/1360937237/main.o
 .reginfo       0x00000000       0x18 build/default/debug/_ext/1360937237/jsmn.o
 .reginfo       0x00000000       0x18 build/default/debug/_ext/1360937237/statemachine.o
 .reginfo       0x00000000       0x18 build/default/debug/_ext/24337685/osal_freertos.o
 .reginfo       0x00000000       0x18 build/default/debug/_ext/122796885/sys_int_pic32.o
 .reginfo       0x00000000       0x18 build/default/debug/_ext/1856876499/heap_1.o
 .reginfo       0x00000000       0x18 build/default/debug/_ext/12131622/port.o
 .reginfo       0x00000000       0x18 build/default/debug/_ext/12131622/port_asm.o
 .reginfo       0x00000000       0x18 build/default/debug/_ext/1128951024/croutine.o
 .reginfo       0x00000000       0x18 build/default/debug/_ext/1128951024/list.o
 .reginfo       0x00000000       0x18 build/default/debug/_ext/1128951024/queue.o
 .reginfo       0x00000000       0x18 build/default/debug/_ext/1128951024/tasks.o
 .reginfo       0x00000000       0x18 build/default/debug/_ext/1128951024/timers.o
 .reginfo       0x00000000       0x18 build/default/debug/_ext/1128951024/event_groups.o
 .reginfo       0x00000000       0x18 c:/program files (x86)/microchip/xc32/v1.44/bin/bin/../../lib/gcc/pic32mx/4.8.3/../../../../pic32mx/lib/./proc/32MX795F512L\default_isr_vectors.o
 .discard       0x00000000       0xd0 c:/program files (x86)/microchip/xc32/v1.44/bin/bin/../../lib/gcc/pic32mx/4.8.3/../../../../pic32mx/lib/./proc/32MX795F512L\default_isr_vectors.o
 .reginfo       0x00000000       0x18 c:/program files (x86)/microchip/xc32/v1.44/bin/bin/../../lib/gcc/pic32mx/4.8.3/../../../../pic32mx/lib\pic32_software_reset.o
 .reginfo       0x00000000       0x18 c:/program files (x86)/microchip/xc32/v1.44/bin/bin/../../lib/gcc/pic32mx/4.8.3/../../../../pic32mx/lib/./proc/32MX795F512L\processor.o
 .reginfo       0x00000000       0x18 c:/program files (x86)/microchip/xc32/v1.44/bin/bin/../../lib/gcc/pic32mx/4.8.3/../../../../pic32mx/lib\libpic32.a(memcpy.o)
 .reginfo       0x00000000       0x18 c:/program files (x86)/microchip/xc32/v1.44/bin/bin/../../lib/gcc/pic32mx/4.8.3/../../../../pic32mx/lib\libpic32.a(memset.o)
 .reginfo       0x00000000       0x18 c:/program files (x86)/microchip/xc32/v1.44/bin/bin/../../lib/gcc/pic32mx/4.8.3/../../../../pic32mx/lib\libpic32.a(strlen.o)
 .reginfo       0x00000000       0x18 c:/program files (x86)/microchip/xc32/v1.44/bin/bin/../../lib/gcc/pic32mx/4.8.3/../../../../pic32mx/lib\libpic32.a(default-bootstrap-exception-handler.o)
 .reginfo       0x00000000       0x18 c:/program files (x86)/microchip/xc32/v1.44/bin/bin/../../lib/gcc/pic32mx/4.8.3/../../../../pic32mx/lib\libpic32.a(default-on-reset.o)
 .reginfo       0x00000000       0x18 c:/program files (x86)/microchip/xc32/v1.44/bin/bin/../../lib/gcc/pic32mx/4.8.3/../../../../pic32mx/lib\libpic32.a(default-on-bootstrap.o)
 .reginfo       0x00000000       0x18 c:/program files (x86)/microchip/xc32/v1.44/bin/bin/../../lib/gcc/pic32mx/4.8.3/../../../../pic32mx/lib\libpic32.a(default-nmi-handler.o)
 .reginfo       0x00000000       0x18 c:/program files (x86)/microchip/xc32/v1.44/bin/bin/../../lib/gcc/pic32mx/4.8.3/../../../../pic32mx/lib\libpic32.a(general-exception.o)
 .reginfo       0x00000000       0x18 c:/program files (x86)/microchip/xc32/v1.44/bin/bin/../../lib/gcc/pic32mx/4.8.3/../../../../pic32mx/lib\libpic32.a(vector0.o)
 .reginfo       0x00000000       0x18 c:/program files (x86)/microchip/xc32/v1.44/bin/bin/../../lib/gcc/pic32mx/4.8.3/../../../../pic32mx/lib\libpic32.a(vector2.o)
 .reginfo       0x00000000       0x18 c:/program files (x86)/microchip/xc32/v1.44/bin/bin/../../lib/gcc/pic32mx/4.8.3/../../../../pic32mx/lib\libpic32.a(vector3.o)
 .reginfo       0x00000000       0x18 c:/program files (x86)/microchip/xc32/v1.44/bin/bin/../../lib/gcc/pic32mx/4.8.3/../../../../pic32mx/lib\libpic32.a(vector5.o)
 .reginfo       0x00000000       0x18 c:/program files (x86)/microchip/xc32/v1.44/bin/bin/../../lib/gcc/pic32mx/4.8.3/../../../../pic32mx/lib\libpic32.a(vector6.o)
 .reginfo       0x00000000       0x18 c:/program files (x86)/microchip/xc32/v1.44/bin/bin/../../lib/gcc/pic32mx/4.8.3/../../../../pic32mx/lib\libpic32.a(vector7.o)
 .reginfo       0x00000000       0x18 c:/program files (x86)/microchip/xc32/v1.44/bin/bin/../../lib/gcc/pic32mx/4.8.3/../../../../pic32mx/lib\libpic32.a(vector9.o)
 .reginfo       0x00000000       0x18 c:/program files (x86)/microchip/xc32/v1.44/bin/bin/../../lib/gcc/pic32mx/4.8.3/../../../../pic32mx/lib\libpic32.a(vector10.o)
 .reginfo       0x00000000       0x18 c:/program files (x86)/microchip/xc32/v1.44/bin/bin/../../lib/gcc/pic32mx/4.8.3/../../../../pic32mx/lib\libpic32.a(vector11.o)
 .reginfo       0x00000000       0x18 c:/program files (x86)/microchip/xc32/v1.44/bin/bin/../../lib/gcc/pic32mx/4.8.3/../../../../pic32mx/lib\libpic32.a(vector13.o)
 .reginfo       0x00000000       0x18 c:/program files (x86)/microchip/xc32/v1.44/bin/bin/../../lib/gcc/pic32mx/4.8.3/../../../../pic32mx/lib\libpic32.a(vector14.o)
 .reginfo       0x00000000       0x18 c:/program files (x86)/microchip/xc32/v1.44/bin/bin/../../lib/gcc/pic32mx/4.8.3/../../../../pic32mx/lib\libpic32.a(vector17.o)
 .reginfo       0x00000000       0x18 c:/program files (x86)/microchip/xc32/v1.44/bin/bin/../../lib/gcc/pic32mx/4.8.3/../../../../pic32mx/lib\libpic32.a(vector18.o)
 .reginfo       0x00000000       0x18 c:/program files (x86)/microchip/xc32/v1.44/bin/bin/../../lib/gcc/pic32mx/4.8.3/../../../../pic32mx/lib\libpic32.a(vector21.o)
 .reginfo       0x00000000       0x18 c:/program files (x86)/microchip/xc32/v1.44/bin/bin/../../lib/gcc/pic32mx/4.8.3/../../../../pic32mx/lib\libpic32.a(vector22.o)
 .reginfo       0x00000000       0x18 c:/program files (x86)/microchip/xc32/v1.44/bin/bin/../../lib/gcc/pic32mx/4.8.3/../../../../pic32mx/lib\libpic32.a(vector23.o)
 .reginfo       0x00000000       0x18 c:/program files (x86)/microchip/xc32/v1.44/bin/bin/../../lib/gcc/pic32mx/4.8.3/../../../../pic32mx/lib\libpic32.a(vector25.o)
 .reginfo       0x00000000       0x18 c:/program files (x86)/microchip/xc32/v1.44/bin/bin/../../lib/gcc/pic32mx/4.8.3/../../../../pic32mx/lib\libpic32.a(vector26.o)
 .reginfo       0x00000000       0x18 c:/program files (x86)/microchip/xc32/v1.44/bin/bin/../../lib/gcc/pic32mx/4.8.3/../../../../pic32mx/lib\libpic32.a(vector27.o)
 .reginfo       0x00000000       0x18 c:/program files (x86)/microchip/xc32/v1.44/bin/bin/../../lib/gcc/pic32mx/4.8.3/../../../../pic32mx/lib\libpic32.a(vector28.o)
 .reginfo       0x00000000       0x18 c:/program files (x86)/microchip/xc32/v1.44/bin/bin/../../lib/gcc/pic32mx/4.8.3/../../../../pic32mx/lib\libpic32.a(vector29.o)
 .reginfo       0x00000000       0x18 c:/program files (x86)/microchip/xc32/v1.44/bin/bin/../../lib/gcc/pic32mx/4.8.3/../../../../pic32mx/lib\libpic32.a(vector30.o)
 .reginfo       0x00000000       0x18 c:/program files (x86)/microchip/xc32/v1.44/bin/bin/../../lib/gcc/pic32mx/4.8.3/../../../../pic32mx/lib\libpic32.a(vector31.o)
 .reginfo       0x00000000       0x18 c:/program files (x86)/microchip/xc32/v1.44/bin/bin/../../lib/gcc/pic32mx/4.8.3/../../../../pic32mx/lib\libpic32.a(vector32.o)
 .reginfo       0x00000000       0x18 c:/program files (x86)/microchip/xc32/v1.44/bin/bin/../../lib/gcc/pic32mx/4.8.3/../../../../pic32mx/lib\libpic32.a(vector33.o)
 .reginfo       0x00000000       0x18 c:/program files (x86)/microchip/xc32/v1.44/bin/bin/../../lib/gcc/pic32mx/4.8.3/../../../../pic32mx/lib\libpic32.a(vector34.o)
 .reginfo       0x00000000       0x18 c:/program files (x86)/microchip/xc32/v1.44/bin/bin/../../lib/gcc/pic32mx/4.8.3/../../../../pic32mx/lib\libpic32.a(vector35.o)
 .reginfo       0x00000000       0x18 c:/program files (x86)/microchip/xc32/v1.44/bin/bin/../../lib/gcc/pic32mx/4.8.3/../../../../pic32mx/lib\libpic32.a(vector36.o)
 .reginfo       0x00000000       0x18 c:/program files (x86)/microchip/xc32/v1.44/bin/bin/../../lib/gcc/pic32mx/4.8.3/../../../../pic32mx/lib\libpic32.a(vector37.o)
 .reginfo       0x00000000       0x18 c:/program files (x86)/microchip/xc32/v1.44/bin/bin/../../lib/gcc/pic32mx/4.8.3/../../../../pic32mx/lib\libpic32.a(vector38.o)
 .reginfo       0x00000000       0x18 c:/program files (x86)/microchip/xc32/v1.44/bin/bin/../../lib/gcc/pic32mx/4.8.3/../../../../pic32mx/lib\libpic32.a(vector39.o)
 .reginfo       0x00000000       0x18 c:/program files (x86)/microchip/xc32/v1.44/bin/bin/../../lib/gcc/pic32mx/4.8.3/../../../../pic32mx/lib\libpic32.a(vector40.o)
 .reginfo       0x00000000       0x18 c:/program files (x86)/microchip/xc32/v1.44/bin/bin/../../lib/gcc/pic32mx/4.8.3/../../../../pic32mx/lib\libpic32.a(vector41.o)
 .reginfo       0x00000000       0x18 c:/program files (x86)/microchip/xc32/v1.44/bin/bin/../../lib/gcc/pic32mx/4.8.3/../../../../pic32mx/lib\libpic32.a(vector42.o)
 .reginfo       0x00000000       0x18 c:/program files (x86)/microchip/xc32/v1.44/bin/bin/../../lib/gcc/pic32mx/4.8.3/../../../../pic32mx/lib\libpic32.a(vector43.o)
 .reginfo       0x00000000       0x18 c:/program files (x86)/microchip/xc32/v1.44/bin/bin/../../lib/gcc/pic32mx/4.8.3/../../../../pic32mx/lib\libpic32.a(vector44.o)
 .reginfo       0x00000000       0x18 c:/program files (x86)/microchip/xc32/v1.44/bin/bin/../../lib/gcc/pic32mx/4.8.3/../../../../pic32mx/lib\libpic32.a(vector45.o)
 .reginfo       0x00000000       0x18 c:/program files (x86)/microchip/xc32/v1.44/bin/bin/../../lib/gcc/pic32mx/4.8.3/../../../../pic32mx/lib\libpic32.a(vector46.o)
 .reginfo       0x00000000       0x18 c:/program files (x86)/microchip/xc32/v1.44/bin/bin/../../lib/gcc/pic32mx/4.8.3/../../../../pic32mx/lib\libpic32.a(vector47.o)
 .reginfo       0x00000000       0x18 c:/program files (x86)/microchip/xc32/v1.44/bin/bin/../../lib/gcc/pic32mx/4.8.3/../../../../pic32mx/lib\libpic32.a(vector48.o)
 .reginfo       0x00000000       0x18 c:/program files (x86)/microchip/xc32/v1.44/bin/bin/../../lib/gcc/pic32mx/4.8.3/../../../../pic32mx/lib\libpic32.a(vector49.o)
 .reginfo       0x00000000       0x18 c:/program files (x86)/microchip/xc32/v1.44/bin/bin/../../lib/gcc/pic32mx/4.8.3/../../../../pic32mx/lib\libpic32.a(vector50.o)
 .reginfo       0x00000000       0x18 c:/program files (x86)/microchip/xc32/v1.44/bin/bin/../../lib/gcc/pic32mx/4.8.3/../../../../pic32mx/lib\libpic32.a(vector51.o)
 .reginfo       0x00000000       0x18 c:/program files (x86)/microchip/xc32/v1.44/bin/bin/../../lib/gcc/pic32mx/4.8.3/../../../../pic32mx/lib\libpic32.a(defaultinterrupt.o)
 .reginfo       0x00000000       0x18 c:/program files (x86)/microchip/xc32/v1.44/bin/bin/../../lib/gcc/pic32mx/4.8.3/../../../../pic32mx/lib\libc.a(atoi.o)
 .reginfo       0x00000000       0x18 c:/program files (x86)/microchip/xc32/v1.44/bin/bin/../../lib/gcc/pic32mx/4.8.3/../../../../pic32mx/lib\libc.a(ctype.o)
 .reginfo       0x00000000       0x18 c:/program files (x86)/microchip/xc32/v1.44/bin/bin/../../lib/gcc/pic32mx/4.8.3/../../../../pic32mx/lib\libc.a(strncmp.o)
 .reginfo       0x00000000       0x18 c:/program files (x86)/microchip/xc32/v1.44/bin/bin/../../lib/gcc/pic32mx/4.8.3/../../../../pic32mx/lib\libc.a(sprintf_cdnopuxX.eo)
 .reginfo       0x00000000       0x18 c:/program files (x86)/microchip/xc32/v1.44/bin/bin/../../lib/gcc/pic32mx/4.8.3/../../../../pic32mx/lib\libc.a(doprnt_cdnopuxX.eo)
 .reginfo       0x00000000       0x18 c:/program files (x86)/microchip/xc32/v1.44/bin/bin/../../lib/gcc/pic32mx/4.8.3/../../../../pic32mx/lib\libc.a(_fputc_simple.o)
 .reginfo       0x00000000       0x18 c:/program files (x86)/microchip/xc32/v1.44/bin/bin/../../lib/gcc/pic32mx/4.8.3/../../../../pic32mx/lib\libc.a(_iob.o)
 .reginfo       0x00000000       0x18 c:/program files (x86)/microchip/xc32/v1.44/bin/bin/../../lib/gcc/pic32mx/4.8.3/../../../../pic32mx/lib\libc.a(_flsbuf_simple.o)
 .reginfo       0x00000000       0x18 c:/program files (x86)/microchip/xc32/v1.44/bin/bin/../../lib/gcc/pic32mx/4.8.3/../../../../pic32mx/lib\libm.a(fp32div.o)
 .reginfo       0x00000000       0x18 c:/program files (x86)/microchip/xc32/v1.44/bin/bin/../../lib/gcc/pic32mx/4.8.3/../../../../pic32mx/lib\libm.a(fp32mul.o)
 .reginfo       0x00000000       0x18 c:/program files (x86)/microchip/xc32/v1.44/bin/bin/../../lib/gcc/pic32mx/4.8.3/../../../../pic32mx/lib\libm.a(fp32subadd.o)
 .reginfo       0x00000000       0x18 c:/program files (x86)/microchip/xc32/v1.44/bin/bin/../../lib/gcc/pic32mx/4.8.3/../../../../pic32mx/lib\libm.a(fpcmp.o)
 .reginfo       0x00000000       0x18 c:/program files (x86)/microchip/xc32/v1.44/bin/bin/../../lib/gcc/pic32mx/4.8.3/../../../../pic32mx/lib\libm.a(fptoli.o)
 .reginfo       0x00000000       0x18 c:/program files (x86)/microchip/xc32/v1.44/bin/bin/../../lib/gcc/pic32mx/4.8.3/../../../../pic32mx/lib\libm.a(sitofp.o)
 .reginfo       0x00000000       0x18 c:/program files (x86)/microchip/xc32/v1.44/bin/bin/../../lib/gcc/pic32mx/4.8.3\libgcc.a(_udivdi3.o)
 .reginfo       0x00000000       0x18 c:/program files (x86)/microchip/xc32/v1.44/bin/bin/../../lib/gcc/pic32mx/4.8.3\libgcc.a(_umoddi3.o)
 .reginfo       0x00000000       0x18 c:/program files (x86)/microchip/xc32/v1.44/bin/bin/../../lib/gcc/pic32mx/4.8.3/../../../../pic32mx/lib\libpic32.a(write.o)
 .reginfo       0x00000000       0x18 c:/program files (x86)/microchip/xc32/v1.44/bin/bin/../../lib/gcc/pic32mx/4.8.3/../../../../pic32mx/lib\libpic32.a(_mon_putc.o)
 .reginfo       0x00000000       0x18 c:/program files (x86)/microchip/xc32/v1.44/bin/bin/../../lib/gcc/pic32mx/4.8.3/../../../../pic32mx/lib\libpic32.a(xc32_uart.o)

Memory Configuration

Name             Origin             Length             Attributes
kseg0_data_mem   0x80000000         0x00000200
kseg1_data_mem   0xa0000000         0x00020000         w !x
kseg0_boot_mem   0x9fc00490         0x00000970
kseg1_boot_mem   0xbfc00000         0x00000490
kseg0_program_mem 0x9d000000         0x00080000         xr
exception_mem    0x9fc01000         0x00001000
debug_exec_mem   0xbfc02000         0x00000ff0
config3          0xbfc02ff0         0x00000004
config2          0xbfc02ff4         0x00000004
config1          0xbfc02ff8         0x00000004
config0          0xbfc02ffc         0x00000004
sfrs             0xbf800000         0x00100000
configsfrs       0xbfc02ff0         0x00000010
*default*        0x00000000         0xffffffff

Linker script and memory map


reserve_data_0_kseg0
                0x80000000      0x200
                0x80000000        0x2 SHORT 0x0
                0x000001fd                . = 0x1fd
 *fill*         0x80000002      0x1fb 
                0x80000200                . = ALIGN (0x4)
 *fill*         0x800001fd        0x3 

reserve_data_0_kseg1
                0xa0000000      0x200
                0xa0000000        0x2 SHORT 0x0
                0x000001fd                . = 0x1fd
 *fill*         0xa0000002      0x1fb 
                0xa0000200                . = ALIGN (0x4)
 *fill*         0xa00001fd        0x3 

reserve_boot_0x1fc02000_kseg0
                0x9fc02000      0xff0
                0x9fc02000        0x2 SHORT 0x0
                0x00000500                . = 0x500
 *fill*         0x9fc02002      0x4fe 
                0x9fc02500                . = ALIGN (0x4)
                0x9fc02500        0x2 SHORT 0x0
                0x00000ff0                . = 0xff0
 *fill*         0x9fc02502      0xaee 
                0x9fc02ff0                . = ALIGN (0x4)

reserve_boot_0x1fc02000_kseg1
                0xbfc02000      0xff0
                0xbfc02000        0x2 SHORT 0x0
                0x00000500                . = 0x500
 *fill*         0xbfc02002      0x4fe 
                0xbfc02500                . = ALIGN (0x4)
                0xbfc02500        0x2 SHORT 0x0
                0x00000ff0                . = 0xff0
 *fill*         0xbfc02502      0xaee 
                0xbfc02ff0                . = ALIGN (0x4)
LOAD c:/program files (x86)/microchip/xc32/v1.44/bin/bin/../../lib/gcc/pic32mx/4.8.3/../../../../pic32mx/lib/./proc/32MX795F512L/crt0_mips32r2.o
LOAD c:/program files (x86)/microchip/xc32/v1.44/bin/bin/../../lib/gcc/pic32mx/4.8.3/../../../../pic32mx/lib\software-debug-break.o
LOAD build/default/debug/_ext/1361460060/drv_adc_static.o
LOAD build/default/debug/_ext/1047219354/drv_oc_mapping.o
LOAD build/default/debug/_ext/1047219354/drv_oc_static.o
LOAD build/default/debug/_ext/1407244131/drv_tmr_static.o
LOAD build/default/debug/_ext/1407244131/drv_tmr_mapping.o
LOAD build/default/debug/_ext/327000265/drv_usart_mapping.o
LOAD build/default/debug/_ext/327000265/drv_usart_static.o
LOAD build/default/debug/_ext/327000265/drv_usart_static_byte_model.o
LOAD build/default/debug/_ext/639803181/sys_clk_pic32mx.o
LOAD build/default/debug/_ext/340578644/sys_devcon.o
LOAD build/default/debug/_ext/340578644/sys_devcon_pic32mx.o
LOAD build/default/debug/_ext/822048611/sys_ports_static.o
LOAD build/default/debug/_ext/1688732426/system_init.o
LOAD build/default/debug/_ext/1688732426/system_interrupt.o
LOAD build/default/debug/_ext/1688732426/system_exceptions.o
LOAD build/default/debug/_ext/1688732426/system_tasks.o
LOAD build/default/debug/_ext/1688732426/system_interrupt_a.o
LOAD build/default/debug/_ext/1688732426/rtos_hooks.o
LOAD build/default/debug/_ext/1360937237/WiFiReceive.o
LOAD build/default/debug/_ext/1360937237/WiFiTransmit.o
LOAD build/default/debug/_ext/1360937237/motor_encoder_thread.o
LOAD build/default/debug/_ext/1360937237/Control.o
LOAD build/default/debug/_ext/1360937237/main.o
LOAD build/default/debug/_ext/1360937237/jsmn.o
LOAD build/default/debug/_ext/1360937237/statemachine.o
LOAD build/default/debug/_ext/24337685/osal_freertos.o
LOAD build/default/debug/_ext/122796885/sys_int_pic32.o
LOAD build/default/debug/_ext/1856876499/heap_1.o
LOAD build/default/debug/_ext/12131622/port.o
LOAD build/default/debug/_ext/12131622/port_asm.o
LOAD build/default/debug/_ext/1128951024/croutine.o
LOAD build/default/debug/_ext/1128951024/list.o
LOAD build/default/debug/_ext/1128951024/queue.o
LOAD build/default/debug/_ext/1128951024/tasks.o
LOAD build/default/debug/_ext/1128951024/timers.o
LOAD build/default/debug/_ext/1128951024/event_groups.o
LOAD ..\..\..\..\bin\framework\peripheral\PIC32MX795F512L_peripherals.a
                0x00000001                __MPLAB_BUILD = 0x1
                0x00000001                __MPLAB_DEBUG = 0x1
                0x00000001                __DEBUG = 0x1
                0x00000001                __MPLAB_DEBUGGER_PK3 = 0x1
LOAD c:/program files (x86)/microchip/xc32/v1.44/bin/bin/../../lib/gcc/pic32mx/4.8.3/../../../../pic32mx/lib/./proc/32MX795F512L\default_isr_vectors.o
LOAD c:/program files (x86)/microchip/xc32/v1.44/bin/bin/../../lib/gcc/pic32mx/4.8.3/../../../../pic32mx/lib\pic32_software_reset.o
                0x00000400                PROVIDE (_min_stack_size, 0x400)
LOAD c:/program files (x86)/microchip/xc32/v1.44/bin/bin/../../lib/gcc/pic32mx/4.8.3/../../../../pic32mx/lib/./proc/32MX795F512L\processor.o
START GROUP
LOAD libmchp_peripheral.a
END GROUP
START GROUP
LOAD libmchp_peripheral_32MX795F512L.a
END GROUP
                0x00000001                PROVIDE (_vector_spacing, 0x1)
                0x9fc01000                PROVIDE (_ebase_address, 0x9fc01000)
                0xbfc00000                _RESET_ADDR = 0xbfc00000
                0xbfc00380                _BEV_EXCPT_ADDR = 0xbfc00380
                0xbfc00480                _DBG_EXCPT_ADDR = 0xbfc00480
                0xbfc02000                _DBG_CODE_ADDR = 0xbfc02000
                0x00000ff0                _DBG_CODE_SIZE = 0xff0
                0x9fc01180                _GEN_EXCPT_ADDR = (_ebase_address + 0x180)

.config_BFC02FF0
                0xbfc02ff0        0x4
 *(.config_BFC02FF0)
 .config_BFC02FF0
                0xbfc02ff0        0x4 build/default/debug/_ext/1688732426/system_init.o

.config_BFC02FF4
                0xbfc02ff4        0x4
 *(.config_BFC02FF4)
 .config_BFC02FF4
                0xbfc02ff4        0x4 build/default/debug/_ext/1688732426/system_init.o

.config_BFC02FF8
                0xbfc02ff8        0x4
 *(.config_BFC02FF8)
 .config_BFC02FF8
                0xbfc02ff8        0x4 build/default/debug/_ext/1688732426/system_init.o

.config_BFC02FFC
                0xbfc02ffc        0x4
 *(.config_BFC02FFC)
 .config_BFC02FFC
                0xbfc02ffc        0x4 build/default/debug/_ext/1688732426/system_init.o
                0xbfc02000                PROVIDE (_DBG_CODE_ADDR, 0xbfc02000)
                0x00000ff0                PROVIDE (_DBG_CODE_SIZE, 0xff0)

.reset          0xbfc00000      0x208
 *(.reset)
 .reset         0xbfc00000        0x8 c:/program files (x86)/microchip/xc32/v1.44/bin/bin/../../lib/gcc/pic32mx/4.8.3/../../../../pic32mx/lib/./proc/32MX795F512L/crt0_mips32r2.o
                0xbfc00000                _reset
 *(.reset.startup)
 .reset.startup
                0xbfc00008      0x200 c:/program files (x86)/microchip/xc32/v1.44/bin/bin/../../lib/gcc/pic32mx/4.8.3/../../../../pic32mx/lib/./proc/32MX795F512L/crt0_mips32r2.o
                0xbfc00008                _startup

.bev_excpt      0xbfc00380       0x10
 *(.bev_handler)
 .bev_handler   0xbfc00380       0x10 c:/program files (x86)/microchip/xc32/v1.44/bin/bin/../../lib/gcc/pic32mx/4.8.3/../../../../pic32mx/lib/./proc/32MX795F512L/crt0_mips32r2.o

.dbg_excpt      0xbfc00480        0x0
                0xbfc00480                . = (. + DEFINED (_DEBUGGER)?0x8:0x0)

.dbg_code       0xbfc02000        0x0
                0xbfc02000                . = (. + DEFINED (_DEBUGGER)?_DBG_CODE_SIZE:0x0)

.app_excpt      0x9fc01180       0x10
 *(.gen_handler)
 .gen_handler   0x9fc01180       0x10 c:/program files (x86)/microchip/xc32/v1.44/bin/bin/../../lib/gcc/pic32mx/4.8.3/../../../../pic32mx/lib/./proc/32MX795F512L/crt0_mips32r2.o

.vector_0       0x9fc01200        0x8
 *(.vector_0)
 .vector_0      0x9fc01200        0x8 c:/program files (x86)/microchip/xc32/v1.44/bin/bin/../../lib/gcc/pic32mx/4.8.3/../../../../pic32mx/lib\libpic32.a(vector0.o)
                0x9fc01200                __vector_dispatch_0
                0x00000001                ASSERT (((_vector_spacing == 0x0) || (SIZEOF (.vector_0) <= (_vector_spacing << 0x5))), function at exception vector 0 too large)

.vector_1       0x9fc01220        0x8
 *(.vector_1)
 .vector_1      0x9fc01220        0x8 build/default/debug/_ext/12131622/port.o
                0x9fc01220                __vector_dispatch_1
                0x00000001                ASSERT (((_vector_spacing == 0x0) || (SIZEOF (.vector_1) <= (_vector_spacing << 0x5))), function at exception vector 1 too large)

.vector_2       0x9fc01240        0x8
 *(.vector_2)
 .vector_2      0x9fc01240        0x8 c:/program files (x86)/microchip/xc32/v1.44/bin/bin/../../lib/gcc/pic32mx/4.8.3/../../../../pic32mx/lib\libpic32.a(vector2.o)
                0x9fc01240                __vector_dispatch_2
                0x00000001                ASSERT (((_vector_spacing == 0x0) || (SIZEOF (.vector_2) <= (_vector_spacing << 0x5))), function at exception vector 2 too large)

.vector_3       0x9fc01260        0x8
 *(.vector_3)
 .vector_3      0x9fc01260        0x8 c:/program files (x86)/microchip/xc32/v1.44/bin/bin/../../lib/gcc/pic32mx/4.8.3/../../../../pic32mx/lib\libpic32.a(vector3.o)
                0x9fc01260                __vector_dispatch_3
                0x00000001                ASSERT (((_vector_spacing == 0x0) || (SIZEOF (.vector_3) <= (_vector_spacing << 0x5))), function at exception vector 3 too large)

.vector_4       0x9fc01280        0x8
 *(.vector_4)
 .vector_4      0x9fc01280        0x8 build/default/debug/_ext/12131622/port.o
                0x9fc01280                __vector_dispatch_4
                0x00000001                ASSERT (((_vector_spacing == 0x0) || (SIZEOF (.vector_4) <= (_vector_spacing << 0x5))), function at exception vector 4 too large)

.vector_5       0x9fc012a0        0x8
 *(.vector_5)
 .vector_5      0x9fc012a0        0x8 c:/program files (x86)/microchip/xc32/v1.44/bin/bin/../../lib/gcc/pic32mx/4.8.3/../../../../pic32mx/lib\libpic32.a(vector5.o)
                0x9fc012a0                __vector_dispatch_5
                0x00000001                ASSERT (((_vector_spacing == 0x0) || (SIZEOF (.vector_5) <= (_vector_spacing << 0x5))), function at exception vector 5 too large)

.vector_6       0x9fc012c0        0x8
 *(.vector_6)
 .vector_6      0x9fc012c0        0x8 c:/program files (x86)/microchip/xc32/v1.44/bin/bin/../../lib/gcc/pic32mx/4.8.3/../../../../pic32mx/lib\libpic32.a(vector6.o)
                0x9fc012c0                __vector_dispatch_6
                0x00000001                ASSERT (((_vector_spacing == 0x0) || (SIZEOF (.vector_6) <= (_vector_spacing << 0x5))), function at exception vector 6 too large)

.vector_7       0x9fc012e0        0x8
 *(.vector_7)
 .vector_7      0x9fc012e0        0x8 c:/program files (x86)/microchip/xc32/v1.44/bin/bin/../../lib/gcc/pic32mx/4.8.3/../../../../pic32mx/lib\libpic32.a(vector7.o)
                0x9fc012e0                __vector_dispatch_7
                0x00000001                ASSERT (((_vector_spacing == 0x0) || (SIZEOF (.vector_7) <= (_vector_spacing << 0x5))), function at exception vector 7 too large)

.vector_8       0x9fc01300       0x10
 *(.vector_8)
 .vector_8      0x9fc01300       0x10 build/default/debug/_ext/1688732426/system_interrupt_a.o
                0x9fc01300                __vector_dispatch_8
                0x00000001                ASSERT (((_vector_spacing == 0x0) || (SIZEOF (.vector_8) <= (_vector_spacing << 0x5))), function at exception vector 8 too large)

.vector_9       0x9fc01320        0x8
 *(.vector_9)
 .vector_9      0x9fc01320        0x8 c:/program files (x86)/microchip/xc32/v1.44/bin/bin/../../lib/gcc/pic32mx/4.8.3/../../../../pic32mx/lib\libpic32.a(vector9.o)
                0x9fc01320                __vector_dispatch_9
                0x00000001                ASSERT (((_vector_spacing == 0x0) || (SIZEOF (.vector_9) <= (_vector_spacing << 0x5))), function at exception vector 9 too large)

.vector_10      0x9fc01340        0x8
 *(.vector_10)
 .vector_10     0x9fc01340        0x8 c:/program files (x86)/microchip/xc32/v1.44/bin/bin/../../lib/gcc/pic32mx/4.8.3/../../../../pic32mx/lib\libpic32.a(vector10.o)
                0x9fc01340                __vector_dispatch_10
                0x00000001                ASSERT (((_vector_spacing == 0x0) || (SIZEOF (.vector_10) <= (_vector_spacing << 0x5))), function at exception vector 10 too large)

.vector_11      0x9fc01360        0x8
 *(.vector_11)
 .vector_11     0x9fc01360        0x8 c:/program files (x86)/microchip/xc32/v1.44/bin/bin/../../lib/gcc/pic32mx/4.8.3/../../../../pic32mx/lib\libpic32.a(vector11.o)
                0x9fc01360                __vector_dispatch_11
                0x00000001                ASSERT (((_vector_spacing == 0x0) || (SIZEOF (.vector_11) <= (_vector_spacing << 0x5))), function at exception vector 11 too large)

.vector_12      0x9fc01380       0x10
 *(.vector_12)
 .vector_12     0x9fc01380       0x10 build/default/debug/_ext/1688732426/system_interrupt_a.o
                0x9fc01380                __vector_dispatch_12
                0x00000001                ASSERT (((_vector_spacing == 0x0) || (SIZEOF (.vector_12) <= (_vector_spacing << 0x5))), function at exception vector 12 too large)

.vector_13      0x9fc013a0        0x8
 *(.vector_13)
 .vector_13     0x9fc013a0        0x8 c:/program files (x86)/microchip/xc32/v1.44/bin/bin/../../lib/gcc/pic32mx/4.8.3/../../../../pic32mx/lib\libpic32.a(vector13.o)
                0x9fc013a0                __vector_dispatch_13
                0x00000001                ASSERT (((_vector_spacing == 0x0) || (SIZEOF (.vector_13) <= (_vector_spacing << 0x5))), function at exception vector 13 too large)

.vector_14      0x9fc013c0        0x8
 *(.vector_14)
 .vector_14     0x9fc013c0        0x8 c:/program files (x86)/microchip/xc32/v1.44/bin/bin/../../lib/gcc/pic32mx/4.8.3/../../../../pic32mx/lib\libpic32.a(vector14.o)
                0x9fc013c0                __vector_dispatch_14
                0x00000001                ASSERT (((_vector_spacing == 0x0) || (SIZEOF (.vector_14) <= (_vector_spacing << 0x5))), function at exception vector 14 too large)

.vector_15      0x9fc013e0       0x10
 *(.vector_15)
 .vector_15     0x9fc013e0       0x10 build/default/debug/_ext/1688732426/system_interrupt_a.o
                0x9fc013e0                __vector_dispatch_15
                0x00000001                ASSERT (((_vector_spacing == 0x0) || (SIZEOF (.vector_15) <= (_vector_spacing << 0x5))), function at exception vector 15 too large)

.vector_16      0x9fc01400       0x10
 *(.vector_16)
 .vector_16     0x9fc01400       0x10 build/default/debug/_ext/1688732426/system_interrupt_a.o
                0x9fc01400                __vector_dispatch_16
                0x00000001                ASSERT (((_vector_spacing == 0x0) || (SIZEOF (.vector_16) <= (_vector_spacing << 0x5))), function at exception vector 16 too large)

.vector_17      0x9fc01420        0x8
 *(.vector_17)
 .vector_17     0x9fc01420        0x8 c:/program files (x86)/microchip/xc32/v1.44/bin/bin/../../lib/gcc/pic32mx/4.8.3/../../../../pic32mx/lib\libpic32.a(vector17.o)
                0x9fc01420                __vector_dispatch_17
                0x00000001                ASSERT (((_vector_spacing == 0x0) || (SIZEOF (.vector_17) <= (_vector_spacing << 0x5))), function at exception vector 17 too large)

.vector_18      0x9fc01440        0x8
 *(.vector_18)
 .vector_18     0x9fc01440        0x8 c:/program files (x86)/microchip/xc32/v1.44/bin/bin/../../lib/gcc/pic32mx/4.8.3/../../../../pic32mx/lib\libpic32.a(vector18.o)
                0x9fc01440                __vector_dispatch_18
                0x00000001                ASSERT (((_vector_spacing == 0x0) || (SIZEOF (.vector_18) <= (_vector_spacing << 0x5))), function at exception vector 18 too large)

.vector_19      0x9fc01460       0x10
 *(.vector_19)
 .vector_19     0x9fc01460       0x10 build/default/debug/_ext/1688732426/system_interrupt_a.o
                0x9fc01460                __vector_dispatch_19
                0x00000001                ASSERT (((_vector_spacing == 0x0) || (SIZEOF (.vector_19) <= (_vector_spacing << 0x5))), function at exception vector 19 too large)

.vector_20      0x9fc01480       0x10
 *(.vector_20)
 .vector_20     0x9fc01480       0x10 build/default/debug/_ext/1688732426/system_interrupt_a.o
                0x9fc01480                __vector_dispatch_20
                0x00000001                ASSERT (((_vector_spacing == 0x0) || (SIZEOF (.vector_20) <= (_vector_spacing << 0x5))), function at exception vector 20 too large)

.vector_21      0x9fc014a0        0x8
 *(.vector_21)
 .vector_21     0x9fc014a0        0x8 c:/program files (x86)/microchip/xc32/v1.44/bin/bin/../../lib/gcc/pic32mx/4.8.3/../../../../pic32mx/lib\libpic32.a(vector21.o)
                0x9fc014a0                __vector_dispatch_21
                0x00000001                ASSERT (((_vector_spacing == 0x0) || (SIZEOF (.vector_21) <= (_vector_spacing << 0x5))), function at exception vector 21 too large)

.vector_22      0x9fc014c0        0x8
 *(.vector_22)
 .vector_22     0x9fc014c0        0x8 c:/program files (x86)/microchip/xc32/v1.44/bin/bin/../../lib/gcc/pic32mx/4.8.3/../../../../pic32mx/lib\libpic32.a(vector22.o)
                0x9fc014c0                __vector_dispatch_22
                0x00000001                ASSERT (((_vector_spacing == 0x0) || (SIZEOF (.vector_22) <= (_vector_spacing << 0x5))), function at exception vector 22 too large)

.vector_23      0x9fc014e0        0x8
 *(.vector_23)
 .vector_23     0x9fc014e0        0x8 c:/program files (x86)/microchip/xc32/v1.44/bin/bin/../../lib/gcc/pic32mx/4.8.3/../../../../pic32mx/lib\libpic32.a(vector23.o)
                0x9fc014e0                __vector_dispatch_23
                0x00000001                ASSERT (((_vector_spacing == 0x0) || (SIZEOF (.vector_23) <= (_vector_spacing << 0x5))), function at exception vector 23 too large)

.vector_24      0x9fc01500       0x10
 *(.vector_24)
 .vector_24     0x9fc01500       0x10 build/default/debug/_ext/1688732426/system_interrupt_a.o
                0x9fc01500                __vector_dispatch_24
                0x00000001                ASSERT (((_vector_spacing == 0x0) || (SIZEOF (.vector_24) <= (_vector_spacing << 0x5))), function at exception vector 24 too large)

.vector_25      0x9fc01520        0x8
 *(.vector_25)
 .vector_25     0x9fc01520        0x8 c:/program files (x86)/microchip/xc32/v1.44/bin/bin/../../lib/gcc/pic32mx/4.8.3/../../../../pic32mx/lib\libpic32.a(vector25.o)
                0x9fc01520                __vector_dispatch_25
                0x00000001                ASSERT (((_vector_spacing == 0x0) || (SIZEOF (.vector_25) <= (_vector_spacing << 0x5))), function at exception vector 25 too large)

.vector_26      0x9fc01540        0x8
 *(.vector_26)
 .vector_26     0x9fc01540        0x8 c:/program files (x86)/microchip/xc32/v1.44/bin/bin/../../lib/gcc/pic32mx/4.8.3/../../../../pic32mx/lib\libpic32.a(vector26.o)
                0x9fc01540                __vector_dispatch_26
                0x00000001                ASSERT (((_vector_spacing == 0x0) || (SIZEOF (.vector_26) <= (_vector_spacing << 0x5))), function at exception vector 26 too large)

.vector_27      0x9fc01560        0x8
 *(.vector_27)
 .vector_27     0x9fc01560        0x8 c:/program files (x86)/microchip/xc32/v1.44/bin/bin/../../lib/gcc/pic32mx/4.8.3/../../../../pic32mx/lib\libpic32.a(vector27.o)
                0x9fc01560                __vector_dispatch_27
                0x00000001                ASSERT (((_vector_spacing == 0x0) || (SIZEOF (.vector_27) <= (_vector_spacing << 0x5))), function at exception vector 27 too large)

.vector_28      0x9fc01580        0x8
 *(.vector_28)
 .vector_28     0x9fc01580        0x8 c:/program files (x86)/microchip/xc32/v1.44/bin/bin/../../lib/gcc/pic32mx/4.8.3/../../../../pic32mx/lib\libpic32.a(vector28.o)
                0x9fc01580                __vector_dispatch_28
                0x00000001                ASSERT (((_vector_spacing == 0x0) || (SIZEOF (.vector_28) <= (_vector_spacing << 0x5))), function at exception vector 28 too large)

.vector_29      0x9fc015a0        0x8
 *(.vector_29)
 .vector_29     0x9fc015a0        0x8 c:/program files (x86)/microchip/xc32/v1.44/bin/bin/../../lib/gcc/pic32mx/4.8.3/../../../../pic32mx/lib\libpic32.a(vector29.o)
                0x9fc015a0                __vector_dispatch_29
                0x00000001                ASSERT (((_vector_spacing == 0x0) || (SIZEOF (.vector_29) <= (_vector_spacing << 0x5))), function at exception vector 29 too large)

.vector_30      0x9fc015c0        0x8
 *(.vector_30)
 .vector_30     0x9fc015c0        0x8 c:/program files (x86)/microchip/xc32/v1.44/bin/bin/../../lib/gcc/pic32mx/4.8.3/../../../../pic32mx/lib\libpic32.a(vector30.o)
                0x9fc015c0                __vector_dispatch_30
                0x00000001                ASSERT (((_vector_spacing == 0x0) || (SIZEOF (.vector_30) <= (_vector_spacing << 0x5))), function at exception vector 30 too large)

.vector_31      0x9fc015e0        0x8
 *(.vector_31)
 .vector_31     0x9fc015e0        0x8 c:/program files (x86)/microchip/xc32/v1.44/bin/bin/../../lib/gcc/pic32mx/4.8.3/../../../../pic32mx/lib\libpic32.a(vector31.o)
                0x9fc015e0                __vector_dispatch_31
                0x00000001                ASSERT (((_vector_spacing == 0x0) || (SIZEOF (.vector_31) <= (_vector_spacing << 0x5))), function at exception vector 31 too large)

.vector_32      0x9fc01600        0x8
 *(.vector_32)
 .vector_32     0x9fc01600        0x8 c:/program files (x86)/microchip/xc32/v1.44/bin/bin/../../lib/gcc/pic32mx/4.8.3/../../../../pic32mx/lib\libpic32.a(vector32.o)
                0x9fc01600                __vector_dispatch_32
                0x00000001                ASSERT (((_vector_spacing == 0x0) || (SIZEOF (.vector_32) <= (_vector_spacing << 0x5))), function at exception vector 32 too large)

.vector_33      0x9fc01620        0x8
 *(.vector_33)
 .vector_33     0x9fc01620        0x8 c:/program files (x86)/microchip/xc32/v1.44/bin/bin/../../lib/gcc/pic32mx/4.8.3/../../../../pic32mx/lib\libpic32.a(vector33.o)
                0x9fc01620                __vector_dispatch_33
                0x00000001                ASSERT (((_vector_spacing == 0x0) || (SIZEOF (.vector_33) <= (_vector_spacing << 0x5))), function at exception vector 33 too large)

.vector_34      0x9fc01640        0x8
 *(.vector_34)
 .vector_34     0x9fc01640        0x8 c:/program files (x86)/microchip/xc32/v1.44/bin/bin/../../lib/gcc/pic32mx/4.8.3/../../../../pic32mx/lib\libpic32.a(vector34.o)
                0x9fc01640                __vector_dispatch_34
                0x00000001                ASSERT (((_vector_spacing == 0x0) || (SIZEOF (.vector_34) <= (_vector_spacing << 0x5))), function at exception vector 34 too large)

.vector_35      0x9fc01660        0x8
 *(.vector_35)
 .vector_35     0x9fc01660        0x8 c:/program files (x86)/microchip/xc32/v1.44/bin/bin/../../lib/gcc/pic32mx/4.8.3/../../../../pic32mx/lib\libpic32.a(vector35.o)
                0x9fc01660                __vector_dispatch_35
                0x00000001                ASSERT (((_vector_spacing == 0x0) || (SIZEOF (.vector_35) <= (_vector_spacing << 0x5))), function at exception vector 35 too large)

.vector_36      0x9fc01680        0x8
 *(.vector_36)
 .vector_36     0x9fc01680        0x8 c:/program files (x86)/microchip/xc32/v1.44/bin/bin/../../lib/gcc/pic32mx/4.8.3/../../../../pic32mx/lib\libpic32.a(vector36.o)
                0x9fc01680                __vector_dispatch_36
                0x00000001                ASSERT (((_vector_spacing == 0x0) || (SIZEOF (.vector_36) <= (_vector_spacing << 0x5))), function at exception vector 36 too large)

.vector_37      0x9fc016a0        0x8
 *(.vector_37)
 .vector_37     0x9fc016a0        0x8 c:/program files (x86)/microchip/xc32/v1.44/bin/bin/../../lib/gcc/pic32mx/4.8.3/../../../../pic32mx/lib\libpic32.a(vector37.o)
                0x9fc016a0                __vector_dispatch_37
                0x00000001                ASSERT (((_vector_spacing == 0x0) || (SIZEOF (.vector_37) <= (_vector_spacing << 0x5))), function at exception vector 37 too large)

.vector_38      0x9fc016c0        0x8
 *(.vector_38)
 .vector_38     0x9fc016c0        0x8 c:/program files (x86)/microchip/xc32/v1.44/bin/bin/../../lib/gcc/pic32mx/4.8.3/../../../../pic32mx/lib\libpic32.a(vector38.o)
                0x9fc016c0                __vector_dispatch_38
                0x00000001                ASSERT (((_vector_spacing == 0x0) || (SIZEOF (.vector_38) <= (_vector_spacing << 0x5))), function at exception vector 38 too large)

.vector_39      0x9fc016e0        0x8
 *(.vector_39)
 .vector_39     0x9fc016e0        0x8 c:/program files (x86)/microchip/xc32/v1.44/bin/bin/../../lib/gcc/pic32mx/4.8.3/../../../../pic32mx/lib\libpic32.a(vector39.o)
                0x9fc016e0                __vector_dispatch_39
                0x00000001                ASSERT (((_vector_spacing == 0x0) || (SIZEOF (.vector_39) <= (_vector_spacing << 0x5))), function at exception vector 39 too large)

.vector_40      0x9fc01700        0x8
 *(.vector_40)
 .vector_40     0x9fc01700        0x8 c:/program files (x86)/microchip/xc32/v1.44/bin/bin/../../lib/gcc/pic32mx/4.8.3/../../../../pic32mx/lib\libpic32.a(vector40.o)
                0x9fc01700                __vector_dispatch_40
                0x00000001                ASSERT (((_vector_spacing == 0x0) || (SIZEOF (.vector_40) <= (_vector_spacing << 0x5))), function at exception vector 40 too large)

.vector_41      0x9fc01720        0x8
 *(.vector_41)
 .vector_41     0x9fc01720        0x8 c:/program files (x86)/microchip/xc32/v1.44/bin/bin/../../lib/gcc/pic32mx/4.8.3/../../../../pic32mx/lib\libpic32.a(vector41.o)
                0x9fc01720                __vector_dispatch_41
                0x00000001                ASSERT (((_vector_spacing == 0x0) || (SIZEOF (.vector_41) <= (_vector_spacing << 0x5))), function at exception vector 41 too large)

.vector_42      0x9fc01740        0x8
 *(.vector_42)
 .vector_42     0x9fc01740        0x8 c:/program files (x86)/microchip/xc32/v1.44/bin/bin/../../lib/gcc/pic32mx/4.8.3/../../../../pic32mx/lib\libpic32.a(vector42.o)
                0x9fc01740                __vector_dispatch_42
                0x00000001                ASSERT (((_vector_spacing == 0x0) || (SIZEOF (.vector_42) <= (_vector_spacing << 0x5))), function at exception vector 42 too large)

.vector_43      0x9fc01760        0x8
 *(.vector_43)
 .vector_43     0x9fc01760        0x8 c:/program files (x86)/microchip/xc32/v1.44/bin/bin/../../lib/gcc/pic32mx/4.8.3/../../../../pic32mx/lib\libpic32.a(vector43.o)
                0x9fc01760                __vector_dispatch_43
                0x00000001                ASSERT (((_vector_spacing == 0x0) || (SIZEOF (.vector_43) <= (_vector_spacing << 0x5))), function at exception vector 43 too large)

.vector_44      0x9fc01780        0x8
 *(.vector_44)
 .vector_44     0x9fc01780        0x8 c:/program files (x86)/microchip/xc32/v1.44/bin/bin/../../lib/gcc/pic32mx/4.8.3/../../../../pic32mx/lib\libpic32.a(vector44.o)
                0x9fc01780                __vector_dispatch_44
                0x00000001                ASSERT (((_vector_spacing == 0x0) || (SIZEOF (.vector_44) <= (_vector_spacing << 0x5))), function at exception vector 44 too large)

.vector_45      0x9fc017a0        0x8
 *(.vector_45)
 .vector_45     0x9fc017a0        0x8 c:/program files (x86)/microchip/xc32/v1.44/bin/bin/../../lib/gcc/pic32mx/4.8.3/../../../../pic32mx/lib\libpic32.a(vector45.o)
                0x9fc017a0                __vector_dispatch_45
                0x00000001                ASSERT (((_vector_spacing == 0x0) || (SIZEOF (.vector_45) <= (_vector_spacing << 0x5))), function at exception vector 45 too large)

.vector_46      0x9fc017c0        0x8
 *(.vector_46)
 .vector_46     0x9fc017c0        0x8 c:/program files (x86)/microchip/xc32/v1.44/bin/bin/../../lib/gcc/pic32mx/4.8.3/../../../../pic32mx/lib\libpic32.a(vector46.o)
                0x9fc017c0                __vector_dispatch_46
                0x00000001                ASSERT (((_vector_spacing == 0x0) || (SIZEOF (.vector_46) <= (_vector_spacing << 0x5))), function at exception vector 46 too large)

.vector_47      0x9fc017e0        0x8
 *(.vector_47)
 .vector_47     0x9fc017e0        0x8 c:/program files (x86)/microchip/xc32/v1.44/bin/bin/../../lib/gcc/pic32mx/4.8.3/../../../../pic32mx/lib\libpic32.a(vector47.o)
                0x9fc017e0                __vector_dispatch_47
                0x00000001                ASSERT (((_vector_spacing == 0x0) || (SIZEOF (.vector_47) <= (_vector_spacing << 0x5))), function at exception vector 47 too large)

.vector_48      0x9fc01800        0x8
 *(.vector_48)
 .vector_48     0x9fc01800        0x8 c:/program files (x86)/microchip/xc32/v1.44/bin/bin/../../lib/gcc/pic32mx/4.8.3/../../../../pic32mx/lib\libpic32.a(vector48.o)
                0x9fc01800                __vector_dispatch_48
                0x00000001                ASSERT (((_vector_spacing == 0x0) || (SIZEOF (.vector_48) <= (_vector_spacing << 0x5))), function at exception vector 48 too large)

.vector_49      0x9fc01820        0x8
 *(.vector_49)
 .vector_49     0x9fc01820        0x8 c:/program files (x86)/microchip/xc32/v1.44/bin/bin/../../lib/gcc/pic32mx/4.8.3/../../../../pic32mx/lib\libpic32.a(vector49.o)
                0x9fc01820                __vector_dispatch_49
                0x00000001                ASSERT (((_vector_spacing == 0x0) || (SIZEOF (.vector_49) <= (_vector_spacing << 0x5))), function at exception vector 49 too large)

.vector_50      0x9fc01840        0x8
 *(.vector_50)
 .vector_50     0x9fc01840        0x8 c:/program files (x86)/microchip/xc32/v1.44/bin/bin/../../lib/gcc/pic32mx/4.8.3/../../../../pic32mx/lib\libpic32.a(vector50.o)
                0x9fc01840                __vector_dispatch_50
                0x00000001                ASSERT (((_vector_spacing == 0x0) || (SIZEOF (.vector_50) <= (_vector_spacing << 0x5))), function at exception vector 50 too large)

.vector_51      0x9fc01860        0x8
 *(.vector_51)
 .vector_51     0x9fc01860        0x8 c:/program files (x86)/microchip/xc32/v1.44/bin/bin/../../lib/gcc/pic32mx/4.8.3/../../../../pic32mx/lib\libpic32.a(vector51.o)
                0x9fc01860                __vector_dispatch_51
                0x00000001                ASSERT (((_vector_spacing == 0x0) || (SIZEOF (.vector_51) <= (_vector_spacing << 0x5))), function at exception vector 51 too large)

.vector_52      0x9fc01880        0x0
 *(.vector_52)
                0x00000001                ASSERT (((_vector_spacing == 0x0) || (SIZEOF (.vector_52) <= (_vector_spacing << 0x5))), function at exception vector 52 too large)

.vector_53      0x9fc018a0        0x0
 *(.vector_53)
                0x00000001                ASSERT (((_vector_spacing == 0x0) || (SIZEOF (.vector_53) <= (_vector_spacing << 0x5))), function at exception vector 53 too large)

.vector_54      0x9fc018c0        0x0
 *(.vector_54)
                0x00000001                ASSERT (((_vector_spacing == 0x0) || (SIZEOF (.vector_54) <= (_vector_spacing << 0x5))), function at exception vector 54 too large)

.vector_55      0x9fc018e0        0x0
 *(.vector_55)
                0x00000001                ASSERT (((_vector_spacing == 0x0) || (SIZEOF (.vector_55) <= (_vector_spacing << 0x5))), function at exception vector 55 too large)

.vector_56      0x9fc01900        0x0
 *(.vector_56)
                0x00000001                ASSERT (((_vector_spacing == 0x0) || (SIZEOF (.vector_56) <= (_vector_spacing << 0x5))), function at exception vector 56 too large)

.vector_57      0x9fc01920        0x0
 *(.vector_57)
                0x00000001                ASSERT (((_vector_spacing == 0x0) || (SIZEOF (.vector_57) <= (_vector_spacing << 0x5))), function at exception vector 57 too large)

.vector_58      0x9fc01940        0x0
 *(.vector_58)
                0x00000001                ASSERT (((_vector_spacing == 0x0) || (SIZEOF (.vector_58) <= (_vector_spacing << 0x5))), function at exception vector 58 too large)

.vector_59      0x9fc01960        0x0
 *(.vector_59)
                0x00000001                ASSERT (((_vector_spacing == 0x0) || (SIZEOF (.vector_59) <= (_vector_spacing << 0x5))), function at exception vector 59 too large)

.vector_60      0x9fc01980        0x0
 *(.vector_60)
                0x00000001                ASSERT (((_vector_spacing == 0x0) || (SIZEOF (.vector_60) <= (_vector_spacing << 0x5))), function at exception vector 60 too large)

.vector_61      0x9fc019a0        0x0
 *(.vector_61)
                0x00000001                ASSERT (((_vector_spacing == 0x0) || (SIZEOF (.vector_61) <= (_vector_spacing << 0x5))), function at exception vector 61 too large)

.vector_62      0x9fc019c0        0x0
 *(.vector_62)
                0x00000001                ASSERT (((_vector_spacing == 0x0) || (SIZEOF (.vector_62) <= (_vector_spacing << 0x5))), function at exception vector 62 too large)

.vector_63      0x9fc019e0        0x0
 *(.vector_63)
                0x00000001                ASSERT (((_vector_spacing == 0x0) || (SIZEOF (.vector_63) <= (_vector_spacing << 0x5))), function at exception vector 63 too large)

.startup
 *(.startup)

.text           0x9d000000        0x0
 *(.stub .gnu.linkonce.t.*)
 *(.text.*personality*)
 *(.mips16.fn.*)
 *(.mips16.call.*)
 *(.gnu.warning)
                0x9d000000                . = ALIGN (0x4)

.init           0x9d000000        0x0
 *crti.o(.init)
 *crtbegin.o(.init)
 *(EXCLUDE_FILE(*crtn.o *crtend?.o *crtend.o) .init)
 *crtend.o(.init)
 *crtn.o(.init)
                0x9d000000                . = ALIGN (0x4)

.fini           0x9d000000        0x0
 *(.fini)
                0x9d000000                . = ALIGN (0x4)

.preinit_array  0x9d000000        0x0
                0x9d000000                PROVIDE (__preinit_array_start, .)
 *(.preinit_array)
                0x9d000000                PROVIDE (__preinit_array_end, .)
                0x9d000000                . = ALIGN (0x4)

.init_array     0x9d000000        0x0
                0x9d000000                PROVIDE (__init_array_start, .)
 *(SORT(.init_array.*))
 *(.init_array)
                0x9d000000                PROVIDE (__init_array_end, .)
                0x9d000000                . = ALIGN (0x4)

.fini_array     0x9d000000        0x0
                0x9d000000                PROVIDE (__fini_array_start, .)
 *(SORT(.fini_array.*))
 *(.fini_array)
                0x9d000000                PROVIDE (__fini_array_end, .)
                0x9d000000                . = ALIGN (0x4)

.ctors          0x9d000000        0x0
 *crtbegin.o(.ctors)
 *crtbegin?.o(.ctors)
 *(EXCLUDE_FILE(*crtend?.o *crtend.o) .ctors)
 *(SORT(.ctors.*))
 *(.ctors)
                0x9d000000                . = ALIGN (0x4)

.dtors          0x9d000000        0x0
 *crtbegin.o(.dtors)
 *crtbegin?.o(.dtors)
 *(EXCLUDE_FILE(*crtend?.o *crtend.o) .dtors)
 *(SORT(.dtors.*))
 *(.dtors)
                0x9d000000                . = ALIGN (0x4)

.rodata         0x9d000000        0x0
 *(.gnu.linkonce.r.*)
 *(.rodata1)
                0x9d000000                . = ALIGN (0x4)

.sdata2         0x9fc00490        0x0
 *(.sdata2 .sdata2.* .gnu.linkonce.s2.*)
                0x9fc00490                . = ALIGN (0x4)

.sbss2          0x9fc00490        0x0
 *(.sbss2 .sbss2.* .gnu.linkonce.sb2.*)
                0x9fc00490                . = ALIGN (0x4)

.eh_frame_hdr
 *(.eh_frame_hdr)
                0x9fc00490                . = ALIGN (0x4)

.eh_frame
 *(.eh_frame)
                0x9fc00490                . = ALIGN (0x4)

.gcc_except_table
 *(.gcc_except_table .gcc_except_table.*)
                0x9fc00490                . = ALIGN (0x4)

.dbg_data       0xa0000200        0x0
                0xa0000200                . = (. + DEFINED (_DEBUGGER)?0x200:0x0)

.jcr            0xa0000200        0x0
 *(.jcr)
                0xa0000200                . = ALIGN (0x4)

.eh_frame
 *(.eh_frame)
                0xa0000200                . = ALIGN (0x4)

.gcc_except_table
 *(.gcc_except_table .gcc_except_table.*)
                0xa0000200                . = ALIGN (0x4)

.persist        0xa0000200        0x0
                0xa0000200                _persist_begin = .
 *(.persist .persist.*)
 *(.pbss .pbss.*)
                0xa0000200                . = ALIGN (0x4)
                0xa0000200                _persist_end = .

.data           0xa0000200        0x0
 *(.gnu.linkonce.d.*)
 *(.data1)
                0xa0000200                . = ALIGN (0x4)
                0xa0000200                . = .
                0xa00081f0                _gp = (ALIGN (0x10) + 0x7ff0)

.got            0xa0000200        0x0
 *(.got.plt)
 *(.got)
                0xa0000200                . = ALIGN (0x4)

.sdata          0xa0000200        0x8
                0xa0000200                _sdata_begin = .
 *(.sdata .sdata.* .gnu.linkonce.s.*)
 .sdata         0xa0000200        0x4 build/default/debug/_ext/12131622/port.o
                0xa0000200                uxInterruptNesting
 .sdata         0xa0000204        0x4 c:/program files (x86)/microchip/xc32/v1.44/bin/bin/../../lib/gcc/pic32mx/4.8.3/../../../../pic32mx/lib\libpic32.a(xc32_uart.o)
                0xa0000204                __XC_UART
                0xa0000208                . = ALIGN (0x4)
                0xa0000208                _sdata_end = .

.lit8
 *(.lit8)

.lit4
 *(.lit4)
                0xa0000208                . = ALIGN (0x4)
                0xa0000208                _data_end = .
                0xa0000208                _bss_begin = .

.sbss           0xa0000208       0xb4
                0xa0000208                _sbss_begin = .
 *(.dynsbss)
 *(.sbss .sbss.* .gnu.linkonce.sb.*)
 .sbss          0xa0000208        0x4 build/default/debug/_ext/1407244131/drv_tmr_static.o
 .sbss          0xa000020c        0x4 build/default/debug/_ext/1688732426/system_interrupt.o
 .sbss          0xa0000210        0xc build/default/debug/_ext/1688732426/system_exceptions.o
 .sbss          0xa000021c        0x4 build/default/debug/_ext/1360937237/WiFiTransmit.o
                0xa000021c                is_wifi_connected
                0xa000021e                picsequence
 .sbss          0xa0000220        0x8 build/default/debug/_ext/1360937237/Control.o
 .sbss          0xa0000228        0x8 build/default/debug/_ext/1360937237/statemachine.o
 .sbss          0xa0000230        0x8 build/default/debug/_ext/1856876499/heap_1.o
 .sbss          0xa0000238        0x4 build/default/debug/_ext/12131622/port.o
                0xa0000238                uxSavedTaskStackPointer
 .sbss          0xa000023c       0x34 build/default/debug/_ext/1128951024/tasks.o
                0xa000023c                uxSchedulerSuspended
                0xa0000240                xIdleTaskHandle
                0xa0000244                xNextTaskUnblockTime
                0xa0000248                uxTaskNumber
                0xa000024c                xNumOfOverflows
                0xa0000250                xYieldPending
                0xa0000254                uxPendedTicks
                0xa0000258                xSchedulerRunning
                0xa000025c                uxTopReadyPriority
                0xa0000260                xTickCount
                0xa0000264                uxCurrentNumberOfTasks
                0xa0000268                uxDeletedTasksWaitingCleanUp
                0xa000026c                pxCurrentTCB
 .sbss          0xa0000270       0x14 build/default/debug/_ext/1128951024/timers.o
 *(.scommon)
 .scommon       0xa0000284        0x4 build/default/debug/_ext/1047219354/drv_oc_mapping.o
                0xa0000284                Encoder_Q
 .scommon       0xa0000288        0x0 build/default/debug/_ext/327000265/drv_usart_mapping.o
 .scommon       0xa0000288        0x8 build/default/debug/_ext/327000265/drv_usart_static.o
                0xa0000288                gDrvUSART0Obj
 .scommon       0xa0000290        0x0 build/default/debug/_ext/327000265/drv_usart_static_byte_model.o
 .scommon       0xa0000290        0x0 build/default/debug/_ext/639803181/sys_clk_pic32mx.o
 .scommon       0xa0000290        0x8 build/default/debug/_ext/340578644/sys_devcon.o
                0xa0000290                sysDevconObj
 .scommon       0xa0000298        0x0 build/default/debug/_ext/1688732426/system_init.o
 .scommon       0xa0000298        0x0 build/default/debug/_ext/1688732426/system_interrupt.o
 .scommon       0xa0000298        0x0 build/default/debug/_ext/1688732426/system_exceptions.o
 .scommon       0xa0000298        0x0 build/default/debug/_ext/1688732426/system_tasks.o
 .scommon       0xa0000298        0xc build/default/debug/_ext/1360937237/WiFiReceive.o
                0xa0000298                myUART
                0xa000029c                usartreceivequeue
                0xa00002a0                wifireceiveData
 .scommon       0xa00002a4        0x8 build/default/debug/_ext/1360937237/WiFiTransmit.o
                0xa00002a4                wifitransmitqueue
                0xa00002a8                usarttransmitqueue
 .scommon       0xa00002ac        0x0 build/default/debug/_ext/1360937237/motor_encoder_thread.o
 .scommon       0xa00002ac        0x8 build/default/debug/_ext/1360937237/Control.o
                0xa00002ac                receive_q
                0xa00002b0                controltimer
 .scommon       0xa00002b4        0x8 build/default/debug/_ext/1128951024/tasks.o
                0xa00002b4                pxDelayedTaskList
                0xa00002b8                pxOverflowDelayedTaskList
                0xa00002bc                _sbss_end = .
                0xa00002bc                . = ALIGN (0x4)

.bss            0xa00002bc       0xdc
 *(.dynbss)
 *(COMMON)
 COMMON         0xa00002bc       0x14 build/default/debug/_ext/1688732426/system_init.o
                0xa00002bc                sysObj
 COMMON         0xa00002d0       0xc8 build/default/debug/_ext/1128951024/tasks.o
                0xa00002d0                pxReadyTasksLists
                0xa0000334                xPendingReadyList
                0xa0000348                xTasksWaitingTermination
                0xa000035c                xSuspendedTaskList
                0xa0000370                xDelayedTaskList2
                0xa0000384                xDelayedTaskList1
                0xa0000398                . = ALIGN ((. != 0x0)?0x4:0x1)
                0xa0000398                . = ALIGN (0x4)
                0xa0000398                _end = .
                0xa0000398                _bss_end = .
                0x00020000                _bmxdudba_address = 0x20000
                0x00020000                _bmxdupba_address = 0x20000

/DISCARD/
 *(.pdr)
 *(.rel.dyn)
 *(.note.GNU-stack)
 *(.note.GNU-stack)
 *(.gnu_debuglink)
 *(.gnu.lto_*)
 *(.discard)

.gptab.sdata
 *(.gptab.data)
 *(.gptab.sdata)

.gptab.sbss
 *(.gptab.bss)
 *(.gptab.sbss)

.mdebug.abi32   0xa0000398        0x0
 *(.mdebug.abi32)
 .mdebug.abi32  0xa0000398        0x0 c:/program files (x86)/microchip/xc32/v1.44/bin/bin/../../lib/gcc/pic32mx/4.8.3/../../../../pic32mx/lib\software-debug-break.o
 .mdebug.abi32  0xa0000398        0x0 build/default/debug/_ext/1361460060/drv_adc_static.o
 .mdebug.abi32  0xa0000398        0x0 build/default/debug/_ext/1047219354/drv_oc_mapping.o
 .mdebug.abi32  0xa0000398        0x0 build/default/debug/_ext/1047219354/drv_oc_static.o
 .mdebug.abi32  0xa0000398        0x0 build/default/debug/_ext/1407244131/drv_tmr_static.o
 .mdebug.abi32  0xa0000398        0x0 build/default/debug/_ext/1407244131/drv_tmr_mapping.o
 .mdebug.abi32  0xa0000398        0x0 build/default/debug/_ext/327000265/drv_usart_mapping.o
 .mdebug.abi32  0xa0000398        0x0 build/default/debug/_ext/327000265/drv_usart_static.o
 .mdebug.abi32  0xa0000398        0x0 build/default/debug/_ext/327000265/drv_usart_static_byte_model.o
 .mdebug.abi32  0xa0000398        0x0 build/default/debug/_ext/639803181/sys_clk_pic32mx.o
 .mdebug.abi32  0xa0000398        0x0 build/default/debug/_ext/340578644/sys_devcon.o
 .mdebug.abi32  0xa0000398        0x0 build/default/debug/_ext/340578644/sys_devcon_pic32mx.o
 .mdebug.abi32  0xa0000398        0x0 build/default/debug/_ext/822048611/sys_ports_static.o
 .mdebug.abi32  0xa0000398        0x0 build/default/debug/_ext/1688732426/system_init.o
 .mdebug.abi32  0xa0000398        0x0 build/default/debug/_ext/1688732426/system_interrupt.o
 .mdebug.abi32  0xa0000398        0x0 build/default/debug/_ext/1688732426/system_exceptions.o
 .mdebug.abi32  0xa0000398        0x0 build/default/debug/_ext/1688732426/system_tasks.o
 .mdebug.abi32  0xa0000398        0x0 build/default/debug/_ext/1688732426/rtos_hooks.o
 .mdebug.abi32  0xa0000398        0x0 build/default/debug/_ext/1360937237/WiFiReceive.o
 .mdebug.abi32  0xa0000398        0x0 build/default/debug/_ext/1360937237/WiFiTransmit.o
 .mdebug.abi32  0xa0000398        0x0 build/default/debug/_ext/1360937237/motor_encoder_thread.o
 .mdebug.abi32  0xa0000398        0x0 build/default/debug/_ext/1360937237/Control.o
 .mdebug.abi32  0xa0000398        0x0 build/default/debug/_ext/1360937237/main.o
 .mdebug.abi32  0xa0000398        0x0 build/default/debug/_ext/1360937237/jsmn.o
 .mdebug.abi32  0xa0000398        0x0 build/default/debug/_ext/1360937237/statemachine.o
 .mdebug.abi32  0xa0000398        0x0 build/default/debug/_ext/24337685/osal_freertos.o
 .mdebug.abi32  0xa0000398        0x0 build/default/debug/_ext/122796885/sys_int_pic32.o
 .mdebug.abi32  0xa0000398        0x0 build/default/debug/_ext/1856876499/heap_1.o
 .mdebug.abi32  0xa0000398        0x0 build/default/debug/_ext/12131622/port.o
 .mdebug.abi32  0xa0000398        0x0 build/default/debug/_ext/1128951024/croutine.o
 .mdebug.abi32  0xa0000398        0x0 build/default/debug/_ext/1128951024/list.o
 .mdebug.abi32  0xa0000398        0x0 build/default/debug/_ext/1128951024/queue.o
 .mdebug.abi32  0xa0000398        0x0 build/default/debug/_ext/1128951024/tasks.o
 .mdebug.abi32  0xa0000398        0x0 build/default/debug/_ext/1128951024/timers.o
 .mdebug.abi32  0xa0000398        0x0 build/default/debug/_ext/1128951024/event_groups.o
 .mdebug.abi32  0xa0000398        0x0 c:/program files (x86)/microchip/xc32/v1.44/bin/bin/../../lib/gcc/pic32mx/4.8.3/../../../../pic32mx/lib\libpic32.a(default-bootstrap-exception-handler.o)
 .mdebug.abi32  0xa0000398        0x0 c:/program files (x86)/microchip/xc32/v1.44/bin/bin/../../lib/gcc/pic32mx/4.8.3/../../../../pic32mx/lib\libpic32.a(default-on-reset.o)
 .mdebug.abi32  0xa0000398        0x0 c:/program files (x86)/microchip/xc32/v1.44/bin/bin/../../lib/gcc/pic32mx/4.8.3/../../../../pic32mx/lib\libpic32.a(default-on-bootstrap.o)
 .mdebug.abi32  0xa0000398        0x0 c:/program files (x86)/microchip/xc32/v1.44/bin/bin/../../lib/gcc/pic32mx/4.8.3/../../../../pic32mx/lib\libpic32.a(defaultinterrupt.o)
 .mdebug.abi32  0xa0000398        0x0 c:/program files (x86)/microchip/xc32/v1.44/bin/bin/../../lib/gcc/pic32mx/4.8.3/../../../../pic32mx/lib\libc.a(atoi.o)
 .mdebug.abi32  0xa0000398        0x0 c:/program files (x86)/microchip/xc32/v1.44/bin/bin/../../lib/gcc/pic32mx/4.8.3/../../../../pic32mx/lib\libc.a(ctype.o)
 .mdebug.abi32  0xa0000398        0x0 c:/program files (x86)/microchip/xc32/v1.44/bin/bin/../../lib/gcc/pic32mx/4.8.3/../../../../pic32mx/lib\libc.a(strncmp.o)
 .mdebug.abi32  0xa0000398        0x0 c:/program files (x86)/microchip/xc32/v1.44/bin/bin/../../lib/gcc/pic32mx/4.8.3/../../../../pic32mx/lib\libc.a(sprintf_cdnopuxX.eo)
 .mdebug.abi32  0xa0000398        0x0 c:/program files (x86)/microchip/xc32/v1.44/bin/bin/../../lib/gcc/pic32mx/4.8.3/../../../../pic32mx/lib\libc.a(doprnt_cdnopuxX.eo)
 .mdebug.abi32  0xa0000398        0x0 c:/program files (x86)/microchip/xc32/v1.44/bin/bin/../../lib/gcc/pic32mx/4.8.3/../../../../pic32mx/lib\libc.a(_fputc_simple.o)
 .mdebug.abi32  0xa0000398        0x0 c:/program files (x86)/microchip/xc32/v1.44/bin/bin/../../lib/gcc/pic32mx/4.8.3/../../../../pic32mx/lib\libc.a(_iob.o)
 .mdebug.abi32  0xa0000398        0x0 c:/program files (x86)/microchip/xc32/v1.44/bin/bin/../../lib/gcc/pic32mx/4.8.3/../../../../pic32mx/lib\libc.a(_flsbuf_simple.o)
 .mdebug.abi32  0xa0000398        0x0 c:/program files (x86)/microchip/xc32/v1.44/bin/bin/../../lib/gcc/pic32mx/4.8.3\libgcc.a(_udivdi3.o)
 .mdebug.abi32  0xa0000398        0x0 c:/program files (x86)/microchip/xc32/v1.44/bin/bin/../../lib/gcc/pic32mx/4.8.3\libgcc.a(_umoddi3.o)
 .mdebug.abi32  0xa0000398        0x0 c:/program files (x86)/microchip/xc32/v1.44/bin/bin/../../lib/gcc/pic32mx/4.8.3/../../../../pic32mx/lib\libpic32.a(write.o)
 .mdebug.abi32  0xa0000398        0x0 c:/program files (x86)/microchip/xc32/v1.44/bin/bin/../../lib/gcc/pic32mx/4.8.3/../../../../pic32mx/lib\libpic32.a(_mon_putc.o)
 .mdebug.abi32  0xa0000398        0x0 c:/program files (x86)/microchip/xc32/v1.44/bin/bin/../../lib/gcc/pic32mx/4.8.3/../../../../pic32mx/lib\libpic32.a(xc32_uart.o)

.mdebug.abiN32
 *(.mdebug.abiN32)

.mdebug.abi64
 *(.mdebug.abi64)

.mdebug.abiO64
 *(.mdebug.abiO64)

.mdebug.eabi32
 *(.mdebug.eabi32)

.mdebug.eabi64
 *(.mdebug.eabi64)

.gcc_compiled_long32
 *(.gcc_compiled_long32)

.gcc_compiled_long64
 *(.gcc_compiled_long64)

.stab
 *(.stab)

.stabstr
 *(.stabstr)

.stab.excl
 *(.stab.excl)

.stab.exclstr
 *(.stab.exclstr)

.stab.index
 *(.stab.index)

.stab.indexstr
 *(.stab.indexstr)

.comment        0x00000000       0xbb
 *(.comment)
 .comment       0x00000000       0x3c c:/program files (x86)/microchip/xc32/v1.44/bin/bin/../../lib/gcc/pic32mx/4.8.3/../../../../pic32mx/lib\software-debug-break.o
                                 0x3d (size before relaxing)
 .comment       0x00000000       0x3d build/default/debug/_ext/1361460060/drv_adc_static.o
 .comment       0x00000000       0x3d build/default/debug/_ext/1047219354/drv_oc_mapping.o
 .comment       0x00000000       0x3d build/default/debug/_ext/1047219354/drv_oc_static.o
 .comment       0x00000000       0x3d build/default/debug/_ext/1407244131/drv_tmr_static.o
 .comment       0x00000000       0x3d build/default/debug/_ext/1407244131/drv_tmr_mapping.o
 .comment       0x00000000       0x3d build/default/debug/_ext/327000265/drv_usart_mapping.o
 .comment       0x00000000       0x3d build/default/debug/_ext/327000265/drv_usart_static.o
 .comment       0x00000000       0x3d build/default/debug/_ext/327000265/drv_usart_static_byte_model.o
 .comment       0x00000000       0x3d build/default/debug/_ext/639803181/sys_clk_pic32mx.o
 .comment       0x00000000       0x3d build/default/debug/_ext/340578644/sys_devcon.o
 .comment       0x00000000       0x3d build/default/debug/_ext/340578644/sys_devcon_pic32mx.o
 .comment       0x00000000       0x3d build/default/debug/_ext/822048611/sys_ports_static.o
 .comment       0x00000000       0x3d build/default/debug/_ext/1688732426/system_init.o
 .comment       0x00000000       0x3d build/default/debug/_ext/1688732426/system_interrupt.o
 .comment       0x00000000       0x3d build/default/debug/_ext/1688732426/system_exceptions.o
 .comment       0x00000000       0x3d build/default/debug/_ext/1688732426/system_tasks.o
 .comment       0x00000000       0x3d build/default/debug/_ext/1688732426/rtos_hooks.o
 .comment       0x00000000       0x3d build/default/debug/_ext/1360937237/WiFiReceive.o
 .comment       0x00000000       0x3d build/default/debug/_ext/1360937237/WiFiTransmit.o
 .comment       0x00000000       0x3d build/default/debug/_ext/1360937237/motor_encoder_thread.o
 .comment       0x00000000       0x3d build/default/debug/_ext/1360937237/Control.o
 .comment       0x00000000       0x3d build/default/debug/_ext/1360937237/main.o
 .comment       0x00000000       0x3d build/default/debug/_ext/1360937237/jsmn.o
 .comment       0x00000000       0x3d build/default/debug/_ext/1360937237/statemachine.o
 .comment       0x00000000       0x3d build/default/debug/_ext/24337685/osal_freertos.o
 .comment       0x00000000       0x3d build/default/debug/_ext/122796885/sys_int_pic32.o
 .comment       0x00000000       0x3d build/default/debug/_ext/1856876499/heap_1.o
 .comment       0x00000000       0x3d build/default/debug/_ext/12131622/port.o
 .comment       0x00000000       0x3d build/default/debug/_ext/1128951024/croutine.o
 .comment       0x00000000       0x3d build/default/debug/_ext/1128951024/list.o
 .comment       0x00000000       0x3d build/default/debug/_ext/1128951024/queue.o
 .comment       0x00000000       0x3d build/default/debug/_ext/1128951024/tasks.o
 .comment       0x00000000       0x3d build/default/debug/_ext/1128951024/timers.o
 .comment       0x00000000       0x3d build/default/debug/_ext/1128951024/event_groups.o
 .comment       0x0000003c       0x18 c:/program files (x86)/microchip/xc32/v1.44/bin/bin/../../lib/gcc/pic32mx/4.8.3/../../../../pic32mx/lib\libpic32.a(memset.o)
                                 0x19 (size before relaxing)
 .comment       0x00000054       0x19 c:/program files (x86)/microchip/xc32/v1.44/bin/bin/../../lib/gcc/pic32mx/4.8.3/../../../../pic32mx/lib\libpic32.a(strlen.o)
                                 0x1a (size before relaxing)
 .comment       0x00000000       0x3d c:/program files (x86)/microchip/xc32/v1.44/bin/bin/../../lib/gcc/pic32mx/4.8.3/../../../../pic32mx/lib\libpic32.a(default-bootstrap-exception-handler.o)
 .comment       0x00000000       0x3d c:/program files (x86)/microchip/xc32/v1.44/bin/bin/../../lib/gcc/pic32mx/4.8.3/../../../../pic32mx/lib\libpic32.a(default-on-reset.o)
 .comment       0x00000000       0x3d c:/program files (x86)/microchip/xc32/v1.44/bin/bin/../../lib/gcc/pic32mx/4.8.3/../../../../pic32mx/lib\libpic32.a(default-on-bootstrap.o)
 .comment       0x00000000       0x3d c:/program files (x86)/microchip/xc32/v1.44/bin/bin/../../lib/gcc/pic32mx/4.8.3/../../../../pic32mx/lib\libpic32.a(defaultinterrupt.o)
 .comment       0x00000000       0x3d c:/program files (x86)/microchip/xc32/v1.44/bin/bin/../../lib/gcc/pic32mx/4.8.3/../../../../pic32mx/lib\libc.a(atoi.o)
 .comment       0x0000006d       0x4e c:/program files (x86)/microchip/xc32/v1.44/bin/bin/../../lib/gcc/pic32mx/4.8.3/../../../../pic32mx/lib\libc.a(ctype.o)
                                 0x8b (size before relaxing)
 .comment       0x00000000       0x3d c:/program files (x86)/microchip/xc32/v1.44/bin/bin/../../lib/gcc/pic32mx/4.8.3/../../../../pic32mx/lib\libc.a(strncmp.o)
 .comment       0x00000000       0x3d c:/program files (x86)/microchip/xc32/v1.44/bin/bin/../../lib/gcc/pic32mx/4.8.3/../../../../pic32mx/lib\libc.a(sprintf_cdnopuxX.eo)
 .comment       0x00000000       0x3d c:/program files (x86)/microchip/xc32/v1.44/bin/bin/../../lib/gcc/pic32mx/4.8.3/../../../../pic32mx/lib\libc.a(doprnt_cdnopuxX.eo)
 .comment       0x00000000       0x3d c:/program files (x86)/microchip/xc32/v1.44/bin/bin/../../lib/gcc/pic32mx/4.8.3/../../../../pic32mx/lib\libc.a(_fputc_simple.o)
 .comment       0x00000000       0x3d c:/program files (x86)/microchip/xc32/v1.44/bin/bin/../../lib/gcc/pic32mx/4.8.3/../../../../pic32mx/lib\libc.a(_iob.o)
 .comment       0x00000000       0x3d c:/program files (x86)/microchip/xc32/v1.44/bin/bin/../../lib/gcc/pic32mx/4.8.3/../../../../pic32mx/lib\libc.a(_flsbuf_simple.o)
 .comment       0x00000000       0x3d c:/program files (x86)/microchip/xc32/v1.44/bin/bin/../../lib/gcc/pic32mx/4.8.3\libgcc.a(_udivdi3.o)
 .comment       0x00000000       0x3d c:/program files (x86)/microchip/xc32/v1.44/bin/bin/../../lib/gcc/pic32mx/4.8.3\libgcc.a(_umoddi3.o)
 .comment       0x00000000       0x3d c:/program files (x86)/microchip/xc32/v1.44/bin/bin/../../lib/gcc/pic32mx/4.8.3/../../../../pic32mx/lib\libpic32.a(write.o)
 .comment       0x00000000       0x3d c:/program files (x86)/microchip/xc32/v1.44/bin/bin/../../lib/gcc/pic32mx/4.8.3/../../../../pic32mx/lib\libpic32.a(_mon_putc.o)
 .comment       0x00000000       0x3d c:/program files (x86)/microchip/xc32/v1.44/bin/bin/../../lib/gcc/pic32mx/4.8.3/../../../../pic32mx/lib\libpic32.a(xc32_uart.o)

.debug
 *(.debug)

.line
 *(.line)

.debug_srcinfo
 *(.debug_srcinfo)

.debug_sfnames
 *(.debug_sfnames)

.debug_aranges  0x00000000     0x1300
 *(.debug_aranges)
 .debug_aranges
                0x00000000       0x20 c:/program files (x86)/microchip/xc32/v1.44/bin/bin/../../lib/gcc/pic32mx/4.8.3/../../../../pic32mx/lib\software-debug-break.o
 .debug_aranges
                0x00000020       0x78 build/default/debug/_ext/1361460060/drv_adc_static.o
 .debug_aranges
                0x00000098       0x50 build/default/debug/_ext/1047219354/drv_oc_mapping.o
 .debug_aranges
                0x000000e8       0xf8 build/default/debug/_ext/1047219354/drv_oc_static.o
 .debug_aranges
                0x000001e0      0x200 build/default/debug/_ext/1407244131/drv_tmr_static.o
 .debug_aranges
                0x000003e0       0xe8 build/default/debug/_ext/1407244131/drv_tmr_mapping.o
 .debug_aranges
                0x000004c8       0xb0 build/default/debug/_ext/327000265/drv_usart_mapping.o
 .debug_aranges
                0x00000578       0x88 build/default/debug/_ext/327000265/drv_usart_static.o
 .debug_aranges
                0x00000600       0x48 build/default/debug/_ext/327000265/drv_usart_static_byte_model.o
 .debug_aranges
                0x00000648       0x50 build/default/debug/_ext/639803181/sys_clk_pic32mx.o
 .debug_aranges
                0x00000698       0x78 build/default/debug/_ext/340578644/sys_devcon.o
 .debug_aranges
                0x00000710       0x20 build/default/debug/_ext/340578644/sys_devcon_pic32mx.o
 .debug_aranges
                0x00000730      0x148 build/default/debug/_ext/822048611/sys_ports_static.o
 .debug_aranges
                0x00000878       0x20 build/default/debug/_ext/1688732426/system_init.o
 .debug_aranges
                0x00000898       0x50 build/default/debug/_ext/1688732426/system_interrupt.o
 .debug_aranges
                0x000008e8       0x20 build/default/debug/_ext/1688732426/system_exceptions.o
 .debug_aranges
                0x00000908       0x48 build/default/debug/_ext/1688732426/system_tasks.o
 .debug_aranges
                0x00000950       0x88 build/default/debug/_ext/1688732426/system_interrupt_a.o
 .debug_aranges
                0x000009d8       0x28 build/default/debug/_ext/1688732426/rtos_hooks.o
 .debug_aranges
                0x00000a00       0x60 build/default/debug/_ext/1360937237/WiFiReceive.o
 .debug_aranges
                0x00000a60       0x50 build/default/debug/_ext/1360937237/WiFiTransmit.o
 .debug_aranges
                0x00000ab0       0x80 build/default/debug/_ext/1360937237/motor_encoder_thread.o
 .debug_aranges
                0x00000b30       0x30 build/default/debug/_ext/1360937237/Control.o
 .debug_aranges
                0x00000b60       0x20 build/default/debug/_ext/1360937237/main.o
 .debug_aranges
                0x00000b80       0x28 build/default/debug/_ext/1360937237/jsmn.o
 .debug_aranges
                0x00000ba8       0x70 build/default/debug/_ext/1360937237/statemachine.o
 .debug_aranges
                0x00000c18       0x88 build/default/debug/_ext/24337685/osal_freertos.o
 .debug_aranges
                0x00000ca0       0x48 build/default/debug/_ext/122796885/sys_int_pic32.o
 .debug_aranges
                0x00000ce8       0x38 build/default/debug/_ext/1856876499/heap_1.o
 .debug_aranges
                0x00000d20       0x58 build/default/debug/_ext/12131622/port.o
 .debug_aranges
                0x00000d78       0x20 build/default/debug/_ext/12131622/port_asm.o
 .debug_aranges
                0x00000d98       0x18 build/default/debug/_ext/1128951024/croutine.o
 .debug_aranges
                0x00000db0       0x40 build/default/debug/_ext/1128951024/list.o
 .debug_aranges
                0x00000df0       0xb8 build/default/debug/_ext/1128951024/queue.o
 .debug_aranges
                0x00000ea8      0x1b0 build/default/debug/_ext/1128951024/tasks.o
 .debug_aranges
                0x00001058       0x88 build/default/debug/_ext/1128951024/timers.o
 .debug_aranges
                0x000010e0       0x60 build/default/debug/_ext/1128951024/event_groups.o
 .debug_aranges
                0x00001140       0x20 c:/program files (x86)/microchip/xc32/v1.44/bin/bin/../../lib/gcc/pic32mx/4.8.3/../../../../pic32mx/lib\libpic32.a(default-bootstrap-exception-handler.o)
 .debug_aranges
                0x00001160       0x20 c:/program files (x86)/microchip/xc32/v1.44/bin/bin/../../lib/gcc/pic32mx/4.8.3/../../../../pic32mx/lib\libpic32.a(default-on-reset.o)
 .debug_aranges
                0x00001180       0x20 c:/program files (x86)/microchip/xc32/v1.44/bin/bin/../../lib/gcc/pic32mx/4.8.3/../../../../pic32mx/lib\libpic32.a(default-on-bootstrap.o)
 .debug_aranges
                0x000011a0       0x20 c:/program files (x86)/microchip/xc32/v1.44/bin/bin/../../lib/gcc/pic32mx/4.8.3/../../../../pic32mx/lib\libpic32.a(defaultinterrupt.o)
 .debug_aranges
                0x000011c0       0x20 c:/program files (x86)/microchip/xc32/v1.44/bin/bin/../../lib/gcc/pic32mx/4.8.3/../../../../pic32mx/lib\libc.a(atoi.o)
 .debug_aranges
                0x000011e0       0x20 c:/program files (x86)/microchip/xc32/v1.44/bin/bin/../../lib/gcc/pic32mx/4.8.3/../../../../pic32mx/lib\libc.a(strncmp.o)
 .debug_aranges
                0x00001200       0x20 c:/program files (x86)/microchip/xc32/v1.44/bin/bin/../../lib/gcc/pic32mx/4.8.3/../../../../pic32mx/lib\libc.a(sprintf_cdnopuxX.eo)
 .debug_aranges
                0x00001220       0x20 c:/program files (x86)/microchip/xc32/v1.44/bin/bin/../../lib/gcc/pic32mx/4.8.3/../../../../pic32mx/lib\libc.a(doprnt_cdnopuxX.eo)
 .debug_aranges
                0x00001240       0x20 c:/program files (x86)/microchip/xc32/v1.44/bin/bin/../../lib/gcc/pic32mx/4.8.3/../../../../pic32mx/lib\libc.a(_fputc_simple.o)
 .debug_aranges
                0x00001260       0x20 c:/program files (x86)/microchip/xc32/v1.44/bin/bin/../../lib/gcc/pic32mx/4.8.3/../../../../pic32mx/lib\libc.a(_flsbuf_simple.o)
 .debug_aranges
                0x00001280       0x20 c:/program files (x86)/microchip/xc32/v1.44/bin/bin/../../lib/gcc/pic32mx/4.8.3\libgcc.a(_udivdi3.o)
 .debug_aranges
                0x000012a0       0x20 c:/program files (x86)/microchip/xc32/v1.44/bin/bin/../../lib/gcc/pic32mx/4.8.3\libgcc.a(_umoddi3.o)
 .debug_aranges
                0x000012c0       0x20 c:/program files (x86)/microchip/xc32/v1.44/bin/bin/../../lib/gcc/pic32mx/4.8.3/../../../../pic32mx/lib\libpic32.a(write.o)
 .debug_aranges
                0x000012e0       0x20 c:/program files (x86)/microchip/xc32/v1.44/bin/bin/../../lib/gcc/pic32mx/4.8.3/../../../../pic32mx/lib\libpic32.a(_mon_putc.o)

.debug_pubnames
 *(.debug_pubnames)

.debug_info     0x00000000    0x3fc0c
 *(.debug_info .gnu.linkonce.wi.*)
 .debug_info    0x00000000       0xe4 c:/program files (x86)/microchip/xc32/v1.44/bin/bin/../../lib/gcc/pic32mx/4.8.3/../../../../pic32mx/lib\software-debug-break.o
 .debug_info    0x000000e4     0x2f71 build/default/debug/_ext/1361460060/drv_adc_static.o
 .debug_info    0x00003055     0x19ca build/default/debug/_ext/1047219354/drv_oc_mapping.o
 .debug_info    0x00004a1f     0x1c2e build/default/debug/_ext/1047219354/drv_oc_static.o
 .debug_info    0x0000664d     0x655e build/default/debug/_ext/1407244131/drv_tmr_static.o
 .debug_info    0x0000cbab     0x2038 build/default/debug/_ext/1407244131/drv_tmr_mapping.o
 .debug_info    0x0000ebe3     0x237f build/default/debug/_ext/327000265/drv_usart_mapping.o
 .debug_info    0x00010f62     0x4770 build/default/debug/_ext/327000265/drv_usart_static.o
 .debug_info    0x000156d2     0x2afe build/default/debug/_ext/327000265/drv_usart_static_byte_model.o
 .debug_info    0x000181d0     0x1e70 build/default/debug/_ext/639803181/sys_clk_pic32mx.o
 .debug_info    0x0001a040     0x162a build/default/debug/_ext/340578644/sys_devcon.o
 .debug_info    0x0001b66a     0x1762 build/default/debug/_ext/340578644/sys_devcon_pic32mx.o
 .debug_info    0x0001cdcc     0x410e build/default/debug/_ext/822048611/sys_ports_static.o
 .debug_info    0x00020eda     0x3029 build/default/debug/_ext/1688732426/system_init.o
 .debug_info    0x00023f03     0x23bc build/default/debug/_ext/1688732426/system_interrupt.o
 .debug_info    0x000262bf     0x1342 build/default/debug/_ext/1688732426/system_exceptions.o
 .debug_info    0x00027601     0x161a build/default/debug/_ext/1688732426/system_tasks.o
 .debug_info    0x00028c1b       0x8f build/default/debug/_ext/1688732426/system_interrupt_a.o
 .debug_info    0x00028caa      0x249 build/default/debug/_ext/1688732426/rtos_hooks.o
 .debug_info    0x00028ef3     0x28f0 build/default/debug/_ext/1360937237/WiFiReceive.o
 .debug_info    0x0002b7e3     0x3194 build/default/debug/_ext/1360937237/WiFiTransmit.o
 .debug_info    0x0002e977     0x252e build/default/debug/_ext/1360937237/motor_encoder_thread.o
 .debug_info    0x00030ea5     0x1927 build/default/debug/_ext/1360937237/Control.o
 .debug_info    0x000327cc      0x19f build/default/debug/_ext/1360937237/main.o
 .debug_info    0x0003296b      0x737 build/default/debug/_ext/1360937237/jsmn.o
 .debug_info    0x000330a2     0x1108 build/default/debug/_ext/1360937237/statemachine.o
 .debug_info    0x000341aa      0xa52 build/default/debug/_ext/24337685/osal_freertos.o
 .debug_info    0x00034bfc     0x142a build/default/debug/_ext/122796885/sys_int_pic32.o
 .debug_info    0x00036026      0x36d build/default/debug/_ext/1856876499/heap_1.o
 .debug_info    0x00036393     0x119f build/default/debug/_ext/12131622/port.o
 .debug_info    0x00037532       0xb0 build/default/debug/_ext/12131622/port_asm.o
 .debug_info    0x000375e2      0x162 build/default/debug/_ext/1128951024/croutine.o
 .debug_info    0x00037744      0x463 build/default/debug/_ext/1128951024/list.o
 .debug_info    0x00037ba7     0x1a2a build/default/debug/_ext/1128951024/queue.o
 .debug_info    0x000395d1     0x2a46 build/default/debug/_ext/1128951024/tasks.o
 .debug_info    0x0003c017     0x15d0 build/default/debug/_ext/1128951024/timers.o
 .debug_info    0x0003d5e7      0xd47 build/default/debug/_ext/1128951024/event_groups.o
 .debug_info    0x0003e32e       0xf5 c:/program files (x86)/microchip/xc32/v1.44/bin/bin/../../lib/gcc/pic32mx/4.8.3/../../../../pic32mx/lib\libpic32.a(default-bootstrap-exception-handler.o)
 .debug_info    0x0003e423       0xce c:/program files (x86)/microchip/xc32/v1.44/bin/bin/../../lib/gcc/pic32mx/4.8.3/../../../../pic32mx/lib\libpic32.a(default-on-reset.o)
 .debug_info    0x0003e4f1       0xd6 c:/program files (x86)/microchip/xc32/v1.44/bin/bin/../../lib/gcc/pic32mx/4.8.3/../../../../pic32mx/lib\libpic32.a(default-on-bootstrap.o)
 .debug_info    0x0003e5c7       0xe8 c:/program files (x86)/microchip/xc32/v1.44/bin/bin/../../lib/gcc/pic32mx/4.8.3/../../../../pic32mx/lib\libpic32.a(defaultinterrupt.o)
 .debug_info    0x0003e6af       0xc2 c:/program files (x86)/microchip/xc32/v1.44/bin/bin/../../lib/gcc/pic32mx/4.8.3/../../../../pic32mx/lib\libc.a(atoi.o)
 .debug_info    0x0003e771       0xc8 c:/program files (x86)/microchip/xc32/v1.44/bin/bin/../../lib/gcc/pic32mx/4.8.3/../../../../pic32mx/lib\libc.a(strncmp.o)
 .debug_info    0x0003e839       0xd2 c:/program files (x86)/microchip/xc32/v1.44/bin/bin/../../lib/gcc/pic32mx/4.8.3/../../../../pic32mx/lib\libc.a(sprintf_cdnopuxX.eo)
 .debug_info    0x0003e90b       0xd3 c:/program files (x86)/microchip/xc32/v1.44/bin/bin/../../lib/gcc/pic32mx/4.8.3/../../../../pic32mx/lib\libc.a(doprnt_cdnopuxX.eo)
 .debug_info    0x0003e9de       0xc4 c:/program files (x86)/microchip/xc32/v1.44/bin/bin/../../lib/gcc/pic32mx/4.8.3/../../../../pic32mx/lib\libc.a(_fputc_simple.o)
 .debug_info    0x0003eaa2       0xc7 c:/program files (x86)/microchip/xc32/v1.44/bin/bin/../../lib/gcc/pic32mx/4.8.3/../../../../pic32mx/lib\libc.a(_flsbuf_simple.o)
 .debug_info    0x0003eb69      0x76f c:/program files (x86)/microchip/xc32/v1.44/bin/bin/../../lib/gcc/pic32mx/4.8.3\libgcc.a(_udivdi3.o)
 .debug_info    0x0003f2d8      0x7ac c:/program files (x86)/microchip/xc32/v1.44/bin/bin/../../lib/gcc/pic32mx/4.8.3\libgcc.a(_umoddi3.o)
 .debug_info    0x0003fa84       0xc0 c:/program files (x86)/microchip/xc32/v1.44/bin/bin/../../lib/gcc/pic32mx/4.8.3/../../../../pic32mx/lib\libpic32.a(write.o)
 .debug_info    0x0003fb44       0xc8 c:/program files (x86)/microchip/xc32/v1.44/bin/bin/../../lib/gcc/pic32mx/4.8.3/../../../../pic32mx/lib\libpic32.a(_mon_putc.o)

.debug_abbrev   0x00000000     0x5452
 *(.debug_abbrev)
 .debug_abbrev  0x00000000       0x28 c:/program files (x86)/microchip/xc32/v1.44/bin/bin/../../lib/gcc/pic32mx/4.8.3/../../../../pic32mx/lib\software-debug-break.o
 .debug_abbrev  0x00000028      0x266 build/default/debug/_ext/1361460060/drv_adc_static.o
 .debug_abbrev  0x0000028e      0x1f0 build/default/debug/_ext/1047219354/drv_oc_mapping.o
 .debug_abbrev  0x0000047e      0x1c2 build/default/debug/_ext/1047219354/drv_oc_static.o
 .debug_abbrev  0x00000640      0x43a build/default/debug/_ext/1407244131/drv_tmr_static.o
 .debug_abbrev  0x00000a7a      0x36b build/default/debug/_ext/1407244131/drv_tmr_mapping.o
 .debug_abbrev  0x00000de5      0x243 build/default/debug/_ext/327000265/drv_usart_mapping.o
 .debug_abbrev  0x00001028      0x455 build/default/debug/_ext/327000265/drv_usart_static.o
 .debug_abbrev  0x0000147d      0x32a build/default/debug/_ext/327000265/drv_usart_static_byte_model.o
 .debug_abbrev  0x000017a7      0x283 build/default/debug/_ext/639803181/sys_clk_pic32mx.o
 .debug_abbrev  0x00001a2a      0x2af build/default/debug/_ext/340578644/sys_devcon.o
 .debug_abbrev  0x00001cd9      0x20f build/default/debug/_ext/340578644/sys_devcon_pic32mx.o
 .debug_abbrev  0x00001ee8      0x279 build/default/debug/_ext/822048611/sys_ports_static.o
 .debug_abbrev  0x00002161      0x299 build/default/debug/_ext/1688732426/system_init.o
 .debug_abbrev  0x000023fa      0x249 build/default/debug/_ext/1688732426/system_interrupt.o
 .debug_abbrev  0x00002643      0x114 build/default/debug/_ext/1688732426/system_exceptions.o
 .debug_abbrev  0x00002757      0x18e build/default/debug/_ext/1688732426/system_tasks.o
 .debug_abbrev  0x000028e5       0x12 build/default/debug/_ext/1688732426/system_interrupt_a.o
 .debug_abbrev  0x000028f7       0x97 build/default/debug/_ext/1688732426/rtos_hooks.o
 .debug_abbrev  0x0000298e      0x365 build/default/debug/_ext/1360937237/WiFiReceive.o
 .debug_abbrev  0x00002cf3      0x361 build/default/debug/_ext/1360937237/WiFiTransmit.o
 .debug_abbrev  0x00003054      0x34e build/default/debug/_ext/1360937237/motor_encoder_thread.o
 .debug_abbrev  0x000033a2      0x20e build/default/debug/_ext/1360937237/Control.o
 .debug_abbrev  0x000035b0       0x93 build/default/debug/_ext/1360937237/main.o
 .debug_abbrev  0x00003643      0x201 build/default/debug/_ext/1360937237/jsmn.o
 .debug_abbrev  0x00003844      0x210 build/default/debug/_ext/1360937237/statemachine.o
 .debug_abbrev  0x00003a54      0x1fe build/default/debug/_ext/24337685/osal_freertos.o
 .debug_abbrev  0x00003c52      0x251 build/default/debug/_ext/122796885/sys_int_pic32.o
 .debug_abbrev  0x00003ea3      0x13f build/default/debug/_ext/1856876499/heap_1.o
 .debug_abbrev  0x00003fe2      0x2cf build/default/debug/_ext/12131622/port.o
 .debug_abbrev  0x000042b1       0x14 build/default/debug/_ext/12131622/port_asm.o
 .debug_abbrev  0x000042c5       0x1b build/default/debug/_ext/1128951024/croutine.o
 .debug_abbrev  0x000042e0       0xf1 build/default/debug/_ext/1128951024/list.o
 .debug_abbrev  0x000043d1      0x310 build/default/debug/_ext/1128951024/queue.o
 .debug_abbrev  0x000046e1      0x31b build/default/debug/_ext/1128951024/tasks.o
 .debug_abbrev  0x000049fc      0x35d build/default/debug/_ext/1128951024/timers.o
 .debug_abbrev  0x00004d59      0x29a build/default/debug/_ext/1128951024/event_groups.o
 .debug_abbrev  0x00004ff3       0x28 c:/program files (x86)/microchip/xc32/v1.44/bin/bin/../../lib/gcc/pic32mx/4.8.3/../../../../pic32mx/lib\libpic32.a(default-bootstrap-exception-handler.o)
 .debug_abbrev  0x0000501b       0x28 c:/program files (x86)/microchip/xc32/v1.44/bin/bin/../../lib/gcc/pic32mx/4.8.3/../../../../pic32mx/lib\libpic32.a(default-on-reset.o)
 .debug_abbrev  0x00005043       0x28 c:/program files (x86)/microchip/xc32/v1.44/bin/bin/../../lib/gcc/pic32mx/4.8.3/../../../../pic32mx/lib\libpic32.a(default-on-bootstrap.o)
 .debug_abbrev  0x0000506b       0x28 c:/program files (x86)/microchip/xc32/v1.44/bin/bin/../../lib/gcc/pic32mx/4.8.3/../../../../pic32mx/lib\libpic32.a(defaultinterrupt.o)
 .debug_abbrev  0x00005093       0x28 c:/program files (x86)/microchip/xc32/v1.44/bin/bin/../../lib/gcc/pic32mx/4.8.3/../../../../pic32mx/lib\libc.a(atoi.o)
 .debug_abbrev  0x000050bb       0x28 c:/program files (x86)/microchip/xc32/v1.44/bin/bin/../../lib/gcc/pic32mx/4.8.3/../../../../pic32mx/lib\libc.a(strncmp.o)
 .debug_abbrev  0x000050e3       0x28 c:/program files (x86)/microchip/xc32/v1.44/bin/bin/../../lib/gcc/pic32mx/4.8.3/../../../../pic32mx/lib\libc.a(sprintf_cdnopuxX.eo)
 .debug_abbrev  0x0000510b       0x28 c:/program files (x86)/microchip/xc32/v1.44/bin/bin/../../lib/gcc/pic32mx/4.8.3/../../../../pic32mx/lib\libc.a(doprnt_cdnopuxX.eo)
 .debug_abbrev  0x00005133       0x28 c:/program files (x86)/microchip/xc32/v1.44/bin/bin/../../lib/gcc/pic32mx/4.8.3/../../../../pic32mx/lib\libc.a(_fputc_simple.o)
 .debug_abbrev  0x0000515b       0x28 c:/program files (x86)/microchip/xc32/v1.44/bin/bin/../../lib/gcc/pic32mx/4.8.3/../../../../pic32mx/lib\libc.a(_flsbuf_simple.o)
 .debug_abbrev  0x00005183      0x138 c:/program files (x86)/microchip/xc32/v1.44/bin/bin/../../lib/gcc/pic32mx/4.8.3\libgcc.a(_udivdi3.o)
 .debug_abbrev  0x000052bb      0x147 c:/program files (x86)/microchip/xc32/v1.44/bin/bin/../../lib/gcc/pic32mx/4.8.3\libgcc.a(_umoddi3.o)
 .debug_abbrev  0x00005402       0x28 c:/program files (x86)/microchip/xc32/v1.44/bin/bin/../../lib/gcc/pic32mx/4.8.3/../../../../pic32mx/lib\libpic32.a(write.o)
 .debug_abbrev  0x0000542a       0x28 c:/program files (x86)/microchip/xc32/v1.44/bin/bin/../../lib/gcc/pic32mx/4.8.3/../../../../pic32mx/lib\libpic32.a(_mon_putc.o)

.debug_line     0x00000000     0xa9a0
 *(.debug_line)
 .debug_line    0x00000000       0x9a c:/program files (x86)/microchip/xc32/v1.44/bin/bin/../../lib/gcc/pic32mx/4.8.3/../../../../pic32mx/lib\software-debug-break.o
 .debug_line    0x0000009a      0x658 build/default/debug/_ext/1361460060/drv_adc_static.o
 .debug_line    0x000006f2      0x42d build/default/debug/_ext/1047219354/drv_oc_mapping.o
 .debug_line    0x00000b1f      0x556 build/default/debug/_ext/1047219354/drv_oc_static.o
 .debug_line    0x00001075      0xc7c build/default/debug/_ext/1407244131/drv_tmr_static.o
 .debug_line    0x00001cf1      0x59b build/default/debug/_ext/1407244131/drv_tmr_mapping.o
 .debug_line    0x0000228c      0x598 build/default/debug/_ext/327000265/drv_usart_mapping.o
 .debug_line    0x00002824      0x924 build/default/debug/_ext/327000265/drv_usart_static.o
 .debug_line    0x00003148      0x5b0 build/default/debug/_ext/327000265/drv_usart_static_byte_model.o
 .debug_line    0x000036f8      0x5b6 build/default/debug/_ext/639803181/sys_clk_pic32mx.o
 .debug_line    0x00003cae      0x659 build/default/debug/_ext/340578644/sys_devcon.o
 .debug_line    0x00004307      0x47d build/default/debug/_ext/340578644/sys_devcon_pic32mx.o
 .debug_line    0x00004784      0x75b build/default/debug/_ext/822048611/sys_ports_static.o
 .debug_line    0x00004edf      0x778 build/default/debug/_ext/1688732426/system_init.o
 .debug_line    0x00005657      0x44d build/default/debug/_ext/1688732426/system_interrupt.o
 .debug_line    0x00005aa4      0x26d build/default/debug/_ext/1688732426/system_exceptions.o
 .debug_line    0x00005d11      0x3c6 build/default/debug/_ext/1688732426/system_tasks.o
 .debug_line    0x000060d7      0x178 build/default/debug/_ext/1688732426/system_interrupt_a.o
 .debug_line    0x0000624f      0x139 build/default/debug/_ext/1688732426/rtos_hooks.o
 .debug_line    0x00006388      0x600 build/default/debug/_ext/1360937237/WiFiReceive.o
 .debug_line    0x00006988      0x62a build/default/debug/_ext/1360937237/WiFiTransmit.o
 .debug_line    0x00006fb2      0x690 build/default/debug/_ext/1360937237/motor_encoder_thread.o
 .debug_line    0x00007642      0x3ca build/default/debug/_ext/1360937237/Control.o
 .debug_line    0x00007a0c       0xae build/default/debug/_ext/1360937237/main.o
 .debug_line    0x00007aba      0x1fa build/default/debug/_ext/1360937237/jsmn.o
 .debug_line    0x00007cb4      0x374 build/default/debug/_ext/1360937237/statemachine.o
 .debug_line    0x00008028      0x2e4 build/default/debug/_ext/24337685/osal_freertos.o
 .debug_line    0x0000830c      0x2d1 build/default/debug/_ext/122796885/sys_int_pic32.o
 .debug_line    0x000085dd      0x216 build/default/debug/_ext/1856876499/heap_1.o
 .debug_line    0x000087f3      0x23a build/default/debug/_ext/12131622/port.o
 .debug_line    0x00008a2d      0x102 build/default/debug/_ext/12131622/port_asm.o
 .debug_line    0x00008b2f       0x1d build/default/debug/_ext/1128951024/croutine.o
 .debug_line    0x00008b4c      0x1dc build/default/debug/_ext/1128951024/list.o
 .debug_line    0x00008d28      0x4b0 build/default/debug/_ext/1128951024/queue.o
 .debug_line    0x000091d8      0x83f build/default/debug/_ext/1128951024/tasks.o
 .debug_line    0x00009a17      0x3ca build/default/debug/_ext/1128951024/timers.o
 .debug_line    0x00009de1      0x325 build/default/debug/_ext/1128951024/event_groups.o
 .debug_line    0x0000a106       0xa7 c:/program files (x86)/microchip/xc32/v1.44/bin/bin/../../lib/gcc/pic32mx/4.8.3/../../../../pic32mx/lib\libpic32.a(default-bootstrap-exception-handler.o)
 .debug_line    0x0000a1ad       0x94 c:/program files (x86)/microchip/xc32/v1.44/bin/bin/../../lib/gcc/pic32mx/4.8.3/../../../../pic32mx/lib\libpic32.a(default-on-reset.o)
 .debug_line    0x0000a241       0x98 c:/program files (x86)/microchip/xc32/v1.44/bin/bin/../../lib/gcc/pic32mx/4.8.3/../../../../pic32mx/lib\libpic32.a(default-on-bootstrap.o)
 .debug_line    0x0000a2d9       0xa6 c:/program files (x86)/microchip/xc32/v1.44/bin/bin/../../lib/gcc/pic32mx/4.8.3/../../../../pic32mx/lib\libpic32.a(defaultinterrupt.o)
 .debug_line    0x0000a37f       0x7e c:/program files (x86)/microchip/xc32/v1.44/bin/bin/../../lib/gcc/pic32mx/4.8.3/../../../../pic32mx/lib\libc.a(atoi.o)
 .debug_line    0x0000a3fd        0x0 c:/program files (x86)/microchip/xc32/v1.44/bin/bin/../../lib/gcc/pic32mx/4.8.3/../../../../pic32mx/lib\libc.a(ctype.o)
 .debug_line    0x0000a3fd       0x81 c:/program files (x86)/microchip/xc32/v1.44/bin/bin/../../lib/gcc/pic32mx/4.8.3/../../../../pic32mx/lib\libc.a(strncmp.o)
 .debug_line    0x0000a47e       0x81 c:/program files (x86)/microchip/xc32/v1.44/bin/bin/../../lib/gcc/pic32mx/4.8.3/../../../../pic32mx/lib\libc.a(sprintf_cdnopuxX.eo)
 .debug_line    0x0000a4ff       0x80 c:/program files (x86)/microchip/xc32/v1.44/bin/bin/../../lib/gcc/pic32mx/4.8.3/../../../../pic32mx/lib\libc.a(doprnt_cdnopuxX.eo)
 .debug_line    0x0000a57f       0x7f c:/program files (x86)/microchip/xc32/v1.44/bin/bin/../../lib/gcc/pic32mx/4.8.3/../../../../pic32mx/lib\libc.a(_fputc_simple.o)
 .debug_line    0x0000a5fe        0x0 c:/program files (x86)/microchip/xc32/v1.44/bin/bin/../../lib/gcc/pic32mx/4.8.3/../../../../pic32mx/lib\libc.a(_iob.o)
 .debug_line    0x0000a5fe       0x80 c:/program files (x86)/microchip/xc32/v1.44/bin/bin/../../lib/gcc/pic32mx/4.8.3/../../../../pic32mx/lib\libc.a(_flsbuf_simple.o)
 .debug_line    0x0000a67e       0xfd c:/program files (x86)/microchip/xc32/v1.44/bin/bin/../../lib/gcc/pic32mx/4.8.3\libgcc.a(_udivdi3.o)
 .debug_line    0x0000a77b      0x10f c:/program files (x86)/microchip/xc32/v1.44/bin/bin/../../lib/gcc/pic32mx/4.8.3\libgcc.a(_umoddi3.o)
 .debug_line    0x0000a88a       0x89 c:/program files (x86)/microchip/xc32/v1.44/bin/bin/../../lib/gcc/pic32mx/4.8.3/../../../../pic32mx/lib\libpic32.a(write.o)
 .debug_line    0x0000a913       0x8d c:/program files (x86)/microchip/xc32/v1.44/bin/bin/../../lib/gcc/pic32mx/4.8.3/../../../../pic32mx/lib\libpic32.a(_mon_putc.o)
 .debug_line    0x0000a9a0        0x0 c:/program files (x86)/microchip/xc32/v1.44/bin/bin/../../lib/gcc/pic32mx/4.8.3/../../../../pic32mx/lib\libpic32.a(xc32_uart.o)

.debug_frame    0x00000000     0x27c0
 *(.debug_frame)
 .debug_frame   0x00000000       0x20 c:/program files (x86)/microchip/xc32/v1.44/bin/bin/../../lib/gcc/pic32mx/4.8.3/../../../../pic32mx/lib\software-debug-break.o
 .debug_frame   0x00000020       0xd0 build/default/debug/_ext/1361460060/drv_adc_static.o
 .debug_frame   0x000000f0       0xa8 build/default/debug/_ext/1047219354/drv_oc_mapping.o
 .debug_frame   0x00000198      0x1d0 build/default/debug/_ext/1047219354/drv_oc_static.o
 .debug_frame   0x00000368      0x420 build/default/debug/_ext/1407244131/drv_tmr_static.o
 .debug_frame   0x00000788      0x218 build/default/debug/_ext/1407244131/drv_tmr_mapping.o
 .debug_frame   0x000009a0      0x258 build/default/debug/_ext/327000265/drv_usart_mapping.o
 .debug_frame   0x00000bf8      0x120 build/default/debug/_ext/327000265/drv_usart_static.o
 .debug_frame   0x00000d18       0x80 build/default/debug/_ext/327000265/drv_usart_static_byte_model.o
 .debug_frame   0x00000d98       0xa0 build/default/debug/_ext/639803181/sys_clk_pic32mx.o
 .debug_frame   0x00000e38       0xe8 build/default/debug/_ext/340578644/sys_devcon.o
 .debug_frame   0x00000f20       0x28 build/default/debug/_ext/340578644/sys_devcon_pic32mx.o
 .debug_frame   0x00000f48      0x270 build/default/debug/_ext/822048611/sys_ports_static.o
 .debug_frame   0x000011b8       0x2c build/default/debug/_ext/1688732426/system_init.o
 .debug_frame   0x000011e4       0xa0 build/default/debug/_ext/1688732426/system_interrupt.o
 .debug_frame   0x00001284       0x28 build/default/debug/_ext/1688732426/system_exceptions.o
 .debug_frame   0x000012ac       0x98 build/default/debug/_ext/1688732426/system_tasks.o
 .debug_frame   0x00001344       0x40 build/default/debug/_ext/1688732426/rtos_hooks.o
 .debug_frame   0x00001384      0x104 build/default/debug/_ext/1360937237/WiFiReceive.o
 .debug_frame   0x00001488       0xb8 build/default/debug/_ext/1360937237/WiFiTransmit.o
 .debug_frame   0x00001540      0x154 build/default/debug/_ext/1360937237/motor_encoder_thread.o
 .debug_frame   0x00001694       0x60 build/default/debug/_ext/1360937237/Control.o
 .debug_frame   0x000016f4       0x28 build/default/debug/_ext/1360937237/main.o
 .debug_frame   0x0000171c       0x48 build/default/debug/_ext/1360937237/jsmn.o
 .debug_frame   0x00001764      0x138 build/default/debug/_ext/1360937237/statemachine.o
 .debug_frame   0x0000189c      0x150 build/default/debug/_ext/24337685/osal_freertos.o
 .debug_frame   0x000019ec       0x90 build/default/debug/_ext/122796885/sys_int_pic32.o
 .debug_frame   0x00001a7c       0x5c build/default/debug/_ext/1856876499/heap_1.o
 .debug_frame   0x00001ad8       0xc0 build/default/debug/_ext/12131622/port.o
 .debug_frame   0x00001b98       0x60 build/default/debug/_ext/1128951024/list.o
 .debug_frame   0x00001bf8      0x234 build/default/debug/_ext/1128951024/queue.o
 .debug_frame   0x00001e2c      0x508 build/default/debug/_ext/1128951024/tasks.o
 .debug_frame   0x00002334      0x164 build/default/debug/_ext/1128951024/timers.o
 .debug_frame   0x00002498      0x108 build/default/debug/_ext/1128951024/event_groups.o
 .debug_frame   0x000025a0       0x2c c:/program files (x86)/microchip/xc32/v1.44/bin/bin/../../lib/gcc/pic32mx/4.8.3/../../../../pic32mx/lib\libpic32.a(default-bootstrap-exception-handler.o)
 .debug_frame   0x000025cc       0x20 c:/program files (x86)/microchip/xc32/v1.44/bin/bin/../../lib/gcc/pic32mx/4.8.3/../../../../pic32mx/lib\libpic32.a(default-on-reset.o)
 .debug_frame   0x000025ec       0x20 c:/program files (x86)/microchip/xc32/v1.44/bin/bin/../../lib/gcc/pic32mx/4.8.3/../../../../pic32mx/lib\libpic32.a(default-on-bootstrap.o)
 .debug_frame   0x0000260c       0x20 c:/program files (x86)/microchip/xc32/v1.44/bin/bin/../../lib/gcc/pic32mx/4.8.3/../../../../pic32mx/lib\libpic32.a(defaultinterrupt.o)
 .debug_frame   0x0000262c       0x20 c:/program files (x86)/microchip/xc32/v1.44/bin/bin/../../lib/gcc/pic32mx/4.8.3/../../../../pic32mx/lib\libc.a(atoi.o)
 .debug_frame   0x0000264c       0x20 c:/program files (x86)/microchip/xc32/v1.44/bin/bin/../../lib/gcc/pic32mx/4.8.3/../../../../pic32mx/lib\libc.a(strncmp.o)
 .debug_frame   0x0000266c       0x28 c:/program files (x86)/microchip/xc32/v1.44/bin/bin/../../lib/gcc/pic32mx/4.8.3/../../../../pic32mx/lib\libc.a(sprintf_cdnopuxX.eo)
 .debug_frame   0x00002694       0x38 c:/program files (x86)/microchip/xc32/v1.44/bin/bin/../../lib/gcc/pic32mx/4.8.3/../../../../pic32mx/lib\libc.a(doprnt_cdnopuxX.eo)
 .debug_frame   0x000026cc       0x2c c:/program files (x86)/microchip/xc32/v1.44/bin/bin/../../lib/gcc/pic32mx/4.8.3/../../../../pic32mx/lib\libc.a(_fputc_simple.o)
 .debug_frame   0x000026f8       0x28 c:/program files (x86)/microchip/xc32/v1.44/bin/bin/../../lib/gcc/pic32mx/4.8.3/../../../../pic32mx/lib\libc.a(_flsbuf_simple.o)
 .debug_frame   0x00002720       0x20 c:/program files (x86)/microchip/xc32/v1.44/bin/bin/../../lib/gcc/pic32mx/4.8.3\libgcc.a(_udivdi3.o)
 .debug_frame   0x00002740       0x20 c:/program files (x86)/microchip/xc32/v1.44/bin/bin/../../lib/gcc/pic32mx/4.8.3\libgcc.a(_umoddi3.o)
 .debug_frame   0x00002760       0x38 c:/program files (x86)/microchip/xc32/v1.44/bin/bin/../../lib/gcc/pic32mx/4.8.3/../../../../pic32mx/lib\libpic32.a(write.o)
 .debug_frame   0x00002798       0x28 c:/program files (x86)/microchip/xc32/v1.44/bin/bin/../../lib/gcc/pic32mx/4.8.3/../../../../pic32mx/lib\libpic32.a(_mon_putc.o)

.debug_str      0x00000000      0x92d
 *(.debug_str)
 .debug_str     0x00000000        0x0 c:/program files (x86)/microchip/xc32/v1.44/bin/bin/../../lib/gcc/pic32mx/4.8.3/../../../../pic32mx/lib\software-debug-break.o
 .debug_str     0x00000000       0x69 build/default/debug/_ext/1361460060/drv_adc_static.o
 .debug_str     0x00000069       0x13 build/default/debug/_ext/1047219354/drv_oc_mapping.o
 .debug_str     0x0000007c       0x1f build/default/debug/_ext/1047219354/drv_oc_static.o
 .debug_str     0x0000009b       0xa5 build/default/debug/_ext/1407244131/drv_tmr_static.o
 .debug_str     0x00000140        0xe build/default/debug/_ext/1407244131/drv_tmr_mapping.o
 .debug_str     0x0000014e       0x23 build/default/debug/_ext/327000265/drv_usart_mapping.o
 .debug_str     0x00000171       0xe8 build/default/debug/_ext/327000265/drv_usart_static.o
 .debug_str     0x00000259       0x18 build/default/debug/_ext/327000265/drv_usart_static_byte_model.o
 .debug_str     0x00000271       0x39 build/default/debug/_ext/639803181/sys_clk_pic32mx.o
 .debug_str     0x000002aa       0x16 build/default/debug/_ext/340578644/sys_devcon.o
 .debug_str     0x000002c0        0x6 build/default/debug/_ext/340578644/sys_devcon_pic32mx.o
 .debug_str     0x000002c6       0x55 build/default/debug/_ext/822048611/sys_ports_static.o
 .debug_str     0x0000031b       0x2b build/default/debug/_ext/1688732426/system_init.o
 .debug_str     0x00000346        0xd build/default/debug/_ext/1688732426/system_interrupt.o
 .debug_str     0x00000353        0x0 build/default/debug/_ext/1688732426/system_exceptions.o
 .debug_str     0x00000353        0x0 build/default/debug/_ext/1688732426/system_tasks.o
 .debug_str     0x00000353        0x9 build/default/debug/_ext/1688732426/rtos_hooks.o
 .debug_str     0x0000035c       0x24 build/default/debug/_ext/1360937237/WiFiReceive.o
 .debug_str     0x00000380        0xd build/default/debug/_ext/1360937237/WiFiTransmit.o
 .debug_str     0x0000038d       0x16 build/default/debug/_ext/1360937237/motor_encoder_thread.o
 .debug_str     0x000003a3        0x0 build/default/debug/_ext/1360937237/Control.o
 .debug_str     0x000003a3        0x0 build/default/debug/_ext/1360937237/main.o
 .debug_str     0x000003a3       0x25 build/default/debug/_ext/1360937237/jsmn.o
 .debug_str     0x000003c8       0x1a build/default/debug/_ext/1360937237/statemachine.o
 .debug_str     0x000003e2       0x40 build/default/debug/_ext/24337685/osal_freertos.o
 .debug_str     0x00000422       0x1d build/default/debug/_ext/122796885/sys_int_pic32.o
 .debug_str     0x0000043f       0x1d build/default/debug/_ext/1856876499/heap_1.o
 .debug_str     0x0000045c       0x37 build/default/debug/_ext/12131622/port.o
 .debug_str     0x00000493        0x0 build/default/debug/_ext/1128951024/croutine.o
 .debug_str     0x00000493       0x2b build/default/debug/_ext/1128951024/list.o
 .debug_str     0x000004be      0x131 build/default/debug/_ext/1128951024/queue.o
 .debug_str     0x000005ef      0x186 build/default/debug/_ext/1128951024/tasks.o
 .debug_str     0x00000775       0xd2 build/default/debug/_ext/1128951024/timers.o
 .debug_str     0x00000847       0xe6 build/default/debug/_ext/1128951024/event_groups.o
 .debug_str     0x0000092d        0x0 c:/program files (x86)/microchip/xc32/v1.44/bin/bin/../../lib/gcc/pic32mx/4.8.3/../../../../pic32mx/lib\libpic32.a(default-bootstrap-exception-handler.o)
 .debug_str     0x0000092d        0x0 c:/program files (x86)/microchip/xc32/v1.44/bin/bin/../../lib/gcc/pic32mx/4.8.3/../../../../pic32mx/lib\libpic32.a(default-on-reset.o)
 .debug_str     0x0000092d        0x0 c:/program files (x86)/microchip/xc32/v1.44/bin/bin/../../lib/gcc/pic32mx/4.8.3/../../../../pic32mx/lib\libpic32.a(default-on-bootstrap.o)
 .debug_str     0x0000092d        0x0 c:/program files (x86)/microchip/xc32/v1.44/bin/bin/../../lib/gcc/pic32mx/4.8.3/../../../../pic32mx/lib\libpic32.a(defaultinterrupt.o)
 .debug_str     0x0000092d        0x0 c:/program files (x86)/microchip/xc32/v1.44/bin/bin/../../lib/gcc/pic32mx/4.8.3/../../../../pic32mx/lib\libc.a(atoi.o)
 .debug_str     0x0000092d        0x0 c:/program files (x86)/microchip/xc32/v1.44/bin/bin/../../lib/gcc/pic32mx/4.8.3/../../../../pic32mx/lib\libc.a(ctype.o)
 .debug_str     0x0000092d        0x0 c:/program files (x86)/microchip/xc32/v1.44/bin/bin/../../lib/gcc/pic32mx/4.8.3/../../../../pic32mx/lib\libc.a(strncmp.o)
 .debug_str     0x0000092d        0x0 c:/program files (x86)/microchip/xc32/v1.44/bin/bin/../../lib/gcc/pic32mx/4.8.3/../../../../pic32mx/lib\libc.a(sprintf_cdnopuxX.eo)
 .debug_str     0x0000092d        0x0 c:/program files (x86)/microchip/xc32/v1.44/bin/bin/../../lib/gcc/pic32mx/4.8.3/../../../../pic32mx/lib\libc.a(doprnt_cdnopuxX.eo)
 .debug_str     0x0000092d        0x0 c:/program files (x86)/microchip/xc32/v1.44/bin/bin/../../lib/gcc/pic32mx/4.8.3/../../../../pic32mx/lib\libc.a(_fputc_simple.o)
 .debug_str     0x0000092d        0x0 c:/program files (x86)/microchip/xc32/v1.44/bin/bin/../../lib/gcc/pic32mx/4.8.3/../../../../pic32mx/lib\libc.a(_iob.o)
 .debug_str     0x0000092d        0x0 c:/program files (x86)/microchip/xc32/v1.44/bin/bin/../../lib/gcc/pic32mx/4.8.3/../../../../pic32mx/lib\libc.a(_flsbuf_simple.o)
 .debug_str     0x0000092d        0x0 c:/program files (x86)/microchip/xc32/v1.44/bin/bin/../../lib/gcc/pic32mx/4.8.3\libgcc.a(_udivdi3.o)
 .debug_str     0x0000092d        0x0 c:/program files (x86)/microchip/xc32/v1.44/bin/bin/../../lib/gcc/pic32mx/4.8.3\libgcc.a(_umoddi3.o)
 .debug_str     0x0000092d        0x0 c:/program files (x86)/microchip/xc32/v1.44/bin/bin/../../lib/gcc/pic32mx/4.8.3/../../../../pic32mx/lib\libpic32.a(write.o)
 .debug_str     0x0000092d        0x0 c:/program files (x86)/microchip/xc32/v1.44/bin/bin/../../lib/gcc/pic32mx/4.8.3/../../../../pic32mx/lib\libpic32.a(_mon_putc.o)
 .debug_str     0x0000092d        0x0 c:/program files (x86)/microchip/xc32/v1.44/bin/bin/../../lib/gcc/pic32mx/4.8.3/../../../../pic32mx/lib\libpic32.a(xc32_uart.o)

.debug_loc      0x00000000     0xb000
 *(.debug_loc)
 .debug_loc     0x00000000       0x42 build/default/debug/_ext/1361460060/drv_adc_static.o
 .debug_loc     0x00000042      0x4ef build/default/debug/_ext/1047219354/drv_oc_mapping.o
 .debug_loc     0x00000531       0x84 build/default/debug/_ext/1047219354/drv_oc_static.o
 .debug_loc     0x000005b5      0xa9f build/default/debug/_ext/1407244131/drv_tmr_static.o
 .debug_loc     0x00001054      0x8f5 build/default/debug/_ext/1407244131/drv_tmr_mapping.o
 .debug_loc     0x00001949      0xb19 build/default/debug/_ext/327000265/drv_usart_mapping.o
 .debug_loc     0x00002462      0x6e6 build/default/debug/_ext/327000265/drv_usart_static.o
 .debug_loc     0x00002b48       0x9f build/default/debug/_ext/327000265/drv_usart_static_byte_model.o
 .debug_loc     0x00002be7       0xc1 build/default/debug/_ext/639803181/sys_clk_pic32mx.o
 .debug_loc     0x00002ca8      0x150 build/default/debug/_ext/340578644/sys_devcon.o
 .debug_loc     0x00002df8       0xfa build/default/debug/_ext/340578644/sys_devcon_pic32mx.o
 .debug_loc     0x00002ef2      0x74e build/default/debug/_ext/822048611/sys_ports_static.o
 .debug_loc     0x00003640       0x41 build/default/debug/_ext/1688732426/system_init.o
 .debug_loc     0x00003681       0xd0 build/default/debug/_ext/1688732426/system_interrupt.o
 .debug_loc     0x00003751       0x20 build/default/debug/_ext/1688732426/system_exceptions.o
 .debug_loc     0x00003771       0xa0 build/default/debug/_ext/1688732426/system_tasks.o
 .debug_loc     0x00003811       0x8a build/default/debug/_ext/1688732426/rtos_hooks.o
 .debug_loc     0x0000389b      0x415 build/default/debug/_ext/1360937237/WiFiReceive.o
 .debug_loc     0x00003cb0      0x23b build/default/debug/_ext/1360937237/WiFiTransmit.o
 .debug_loc     0x00003eeb      0x564 build/default/debug/_ext/1360937237/motor_encoder_thread.o
 .debug_loc     0x0000444f       0xb8 build/default/debug/_ext/1360937237/Control.o
 .debug_loc     0x00004507       0x20 build/default/debug/_ext/1360937237/main.o
 .debug_loc     0x00004527      0x5bd build/default/debug/_ext/1360937237/jsmn.o
 .debug_loc     0x00004ae4      0x7ed build/default/debug/_ext/1360937237/statemachine.o
 .debug_loc     0x000052d1      0x566 build/default/debug/_ext/24337685/osal_freertos.o
 .debug_loc     0x00005837       0xfc build/default/debug/_ext/122796885/sys_int_pic32.o
 .debug_loc     0x00005933       0x69 build/default/debug/_ext/1856876499/heap_1.o
 .debug_loc     0x0000599c      0x1b5 build/default/debug/_ext/12131622/port.o
 .debug_loc     0x00005b51       0x31 build/default/debug/_ext/1128951024/list.o
 .debug_loc     0x00005b82     0x117e build/default/debug/_ext/1128951024/queue.o
 .debug_loc     0x00006d00     0x1a57 build/default/debug/_ext/1128951024/tasks.o
 .debug_loc     0x00008757      0x974 build/default/debug/_ext/1128951024/timers.o
 .debug_loc     0x000090cb      0xa0a build/default/debug/_ext/1128951024/event_groups.o
 .debug_loc     0x00009ad5       0x2c c:/program files (x86)/microchip/xc32/v1.44/bin/bin/../../lib/gcc/pic32mx/4.8.3/../../../../pic32mx/lib\libpic32.a(default-bootstrap-exception-handler.o)
 .debug_loc     0x00009b01      0xa6a c:/program files (x86)/microchip/xc32/v1.44/bin/bin/../../lib/gcc/pic32mx/4.8.3\libgcc.a(_udivdi3.o)
 .debug_loc     0x0000a56b      0xa3d c:/program files (x86)/microchip/xc32/v1.44/bin/bin/../../lib/gcc/pic32mx/4.8.3\libgcc.a(_umoddi3.o)
 .debug_loc     0x0000afa8       0x38 c:/program files (x86)/microchip/xc32/v1.44/bin/bin/../../lib/gcc/pic32mx/4.8.3/../../../../pic32mx/lib\libpic32.a(write.o)
 .debug_loc     0x0000afe0       0x20 c:/program files (x86)/microchip/xc32/v1.44/bin/bin/../../lib/gcc/pic32mx/4.8.3/../../../../pic32mx/lib\libpic32.a(_mon_putc.o)

.debug_macinfo
 *(.debug_macinfo)

.debug_weaknames
 *(.debug_weaknames)

.debug_funcnames
 *(.debug_funcnames)

.debug_typenames
 *(.debug_typenames)

.debug_varnames
 *(.debug_varnames)

.debug_pubtypes
 *(.debug_pubtypes)

.debug_ranges   0x00000000     0x1580
 *(.debug_ranges)
 .debug_ranges  0x00000000       0x10 c:/program files (x86)/microchip/xc32/v1.44/bin/bin/../../lib/gcc/pic32mx/4.8.3/../../../../pic32mx/lib\software-debug-break.o
 .debug_ranges  0x00000010       0x68 build/default/debug/_ext/1361460060/drv_adc_static.o
 .debug_ranges  0x00000078       0x40 build/default/debug/_ext/1047219354/drv_oc_mapping.o
 .debug_ranges  0x000000b8       0xe8 build/default/debug/_ext/1047219354/drv_oc_static.o
 .debug_ranges  0x000001a0      0x1f0 build/default/debug/_ext/1407244131/drv_tmr_static.o
 .debug_ranges  0x00000390       0xd8 build/default/debug/_ext/1407244131/drv_tmr_mapping.o
 .debug_ranges  0x00000468       0xa0 build/default/debug/_ext/327000265/drv_usart_mapping.o
 .debug_ranges  0x00000508       0xa8 build/default/debug/_ext/327000265/drv_usart_static.o
 .debug_ranges  0x000005b0       0x38 build/default/debug/_ext/327000265/drv_usart_static_byte_model.o
 .debug_ranges  0x000005e8       0x40 build/default/debug/_ext/639803181/sys_clk_pic32mx.o
 .debug_ranges  0x00000628       0x68 build/default/debug/_ext/340578644/sys_devcon.o
 .debug_ranges  0x00000690       0x10 build/default/debug/_ext/340578644/sys_devcon_pic32mx.o
 .debug_ranges  0x000006a0      0x138 build/default/debug/_ext/822048611/sys_ports_static.o
 .debug_ranges  0x000007d8       0x10 build/default/debug/_ext/1688732426/system_init.o
 .debug_ranges  0x000007e8       0x40 build/default/debug/_ext/1688732426/system_interrupt.o
 .debug_ranges  0x00000828       0x10 build/default/debug/_ext/1688732426/system_exceptions.o
 .debug_ranges  0x00000838       0x38 build/default/debug/_ext/1688732426/system_tasks.o
 .debug_ranges  0x00000870       0x80 build/default/debug/_ext/1688732426/system_interrupt_a.o
 .debug_ranges  0x000008f0       0x18 build/default/debug/_ext/1688732426/rtos_hooks.o
 .debug_ranges  0x00000908       0x88 build/default/debug/_ext/1360937237/WiFiReceive.o
 .debug_ranges  0x00000990       0x70 build/default/debug/_ext/1360937237/WiFiTransmit.o
 .debug_ranges  0x00000a00       0x70 build/default/debug/_ext/1360937237/motor_encoder_thread.o
 .debug_ranges  0x00000a70       0xb8 build/default/debug/_ext/1360937237/Control.o
 .debug_ranges  0x00000b28       0x10 build/default/debug/_ext/1360937237/main.o
 .debug_ranges  0x00000b38      0x1a8 build/default/debug/_ext/1360937237/jsmn.o
 .debug_ranges  0x00000ce0       0x60 build/default/debug/_ext/1360937237/statemachine.o
 .debug_ranges  0x00000d40       0x78 build/default/debug/_ext/24337685/osal_freertos.o
 .debug_ranges  0x00000db8       0x50 build/default/debug/_ext/122796885/sys_int_pic32.o
 .debug_ranges  0x00000e08       0x28 build/default/debug/_ext/1856876499/heap_1.o
 .debug_ranges  0x00000e30       0x48 build/default/debug/_ext/12131622/port.o
 .debug_ranges  0x00000e78       0x30 build/default/debug/_ext/1128951024/list.o
 .debug_ranges  0x00000ea8      0x138 build/default/debug/_ext/1128951024/queue.o
 .debug_ranges  0x00000fe0      0x1b8 build/default/debug/_ext/1128951024/tasks.o
 .debug_ranges  0x00001198      0x120 build/default/debug/_ext/1128951024/timers.o
 .debug_ranges  0x000012b8       0x98 build/default/debug/_ext/1128951024/event_groups.o
 .debug_ranges  0x00001350       0x10 c:/program files (x86)/microchip/xc32/v1.44/bin/bin/../../lib/gcc/pic32mx/4.8.3/../../../../pic32mx/lib\libpic32.a(default-bootstrap-exception-handler.o)
 .debug_ranges  0x00001360       0x10 c:/program files (x86)/microchip/xc32/v1.44/bin/bin/../../lib/gcc/pic32mx/4.8.3/../../../../pic32mx/lib\libpic32.a(default-on-reset.o)
 .debug_ranges  0x00001370       0x10 c:/program files (x86)/microchip/xc32/v1.44/bin/bin/../../lib/gcc/pic32mx/4.8.3/../../../../pic32mx/lib\libpic32.a(default-on-bootstrap.o)
 .debug_ranges  0x00001380       0x10 c:/program files (x86)/microchip/xc32/v1.44/bin/bin/../../lib/gcc/pic32mx/4.8.3/../../../../pic32mx/lib\libpic32.a(defaultinterrupt.o)
 .debug_ranges  0x00001390       0x10 c:/program files (x86)/microchip/xc32/v1.44/bin/bin/../../lib/gcc/pic32mx/4.8.3/../../../../pic32mx/lib\libc.a(atoi.o)
 .debug_ranges  0x000013a0       0x10 c:/program files (x86)/microchip/xc32/v1.44/bin/bin/../../lib/gcc/pic32mx/4.8.3/../../../../pic32mx/lib\libc.a(strncmp.o)
 .debug_ranges  0x000013b0       0x10 c:/program files (x86)/microchip/xc32/v1.44/bin/bin/../../lib/gcc/pic32mx/4.8.3/../../../../pic32mx/lib\libc.a(sprintf_cdnopuxX.eo)
 .debug_ranges  0x000013c0       0x10 c:/program files (x86)/microchip/xc32/v1.44/bin/bin/../../lib/gcc/pic32mx/4.8.3/../../../../pic32mx/lib\libc.a(doprnt_cdnopuxX.eo)
 .debug_ranges  0x000013d0       0x10 c:/program files (x86)/microchip/xc32/v1.44/bin/bin/../../lib/gcc/pic32mx/4.8.3/../../../../pic32mx/lib\libc.a(_fputc_simple.o)
 .debug_ranges  0x000013e0       0x10 c:/program files (x86)/microchip/xc32/v1.44/bin/bin/../../lib/gcc/pic32mx/4.8.3/../../../../pic32mx/lib\libc.a(_flsbuf_simple.o)
 .debug_ranges  0x000013f0       0x98 c:/program files (x86)/microchip/xc32/v1.44/bin/bin/../../lib/gcc/pic32mx/4.8.3\libgcc.a(_udivdi3.o)
 .debug_ranges  0x00001488       0xd8 c:/program files (x86)/microchip/xc32/v1.44/bin/bin/../../lib/gcc/pic32mx/4.8.3\libgcc.a(_umoddi3.o)
 .debug_ranges  0x00001560       0x10 c:/program files (x86)/microchip/xc32/v1.44/bin/bin/../../lib/gcc/pic32mx/4.8.3/../../../../pic32mx/lib\libpic32.a(write.o)
 .debug_ranges  0x00001570       0x10 c:/program files (x86)/microchip/xc32/v1.44/bin/bin/../../lib/gcc/pic32mx/4.8.3/../../../../pic32mx/lib\libpic32.a(_mon_putc.o)

.gnu.attributes
                0x00000000       0x10
 *(.gnu.attributes)
 .gnu.attributes
                0x00000000       0x10 c:/program files (x86)/microchip/xc32/v1.44/bin/bin/../../lib/gcc/pic32mx/4.8.3/../../../../pic32mx/lib\software-debug-break.o
 .gnu.attributes
                0x00000010       0x10 build/default/debug/_ext/1361460060/drv_adc_static.o
 .gnu.attributes
                0x00000020       0x10 build/default/debug/_ext/1047219354/drv_oc_mapping.o
 .gnu.attributes
                0x00000030       0x10 build/default/debug/_ext/1047219354/drv_oc_static.o
 .gnu.attributes
                0x00000040       0x10 build/default/debug/_ext/1407244131/drv_tmr_static.o
 .gnu.attributes
                0x00000050       0x10 build/default/debug/_ext/1407244131/drv_tmr_mapping.o
 .gnu.attributes
                0x00000060       0x10 build/default/debug/_ext/327000265/drv_usart_mapping.o
 .gnu.attributes
                0x00000070       0x10 build/default/debug/_ext/327000265/drv_usart_static.o
 .gnu.attributes
                0x00000080       0x10 build/default/debug/_ext/327000265/drv_usart_static_byte_model.o
 .gnu.attributes
                0x00000090       0x10 build/default/debug/_ext/639803181/sys_clk_pic32mx.o
 .gnu.attributes
                0x000000a0       0x10 build/default/debug/_ext/340578644/sys_devcon.o
 .gnu.attributes
                0x000000b0       0x10 build/default/debug/_ext/340578644/sys_devcon_pic32mx.o
 .gnu.attributes
                0x000000c0       0x10 build/default/debug/_ext/822048611/sys_ports_static.o
 .gnu.attributes
                0x000000d0       0x10 build/default/debug/_ext/1688732426/system_init.o
 .gnu.attributes
                0x000000e0       0x10 build/default/debug/_ext/1688732426/system_interrupt.o
 .gnu.attributes
                0x000000f0       0x10 build/default/debug/_ext/1688732426/system_exceptions.o
 .gnu.attributes
                0x00000100       0x10 build/default/debug/_ext/1688732426/system_tasks.o
 .gnu.attributes
                0x00000110       0x10 build/default/debug/_ext/1688732426/rtos_hooks.o
 .gnu.attributes
                0x00000120       0x10 build/default/debug/_ext/1360937237/WiFiReceive.o
 .gnu.attributes
                0x00000130       0x10 build/default/debug/_ext/1360937237/WiFiTransmit.o
 .gnu.attributes
                0x00000140       0x10 build/default/debug/_ext/1360937237/motor_encoder_thread.o
 .gnu.attributes
                0x00000150       0x10 build/default/debug/_ext/1360937237/Control.o
 .gnu.attributes
                0x00000160       0x10 build/default/debug/_ext/1360937237/main.o
 .gnu.attributes
                0x00000170       0x10 build/default/debug/_ext/1360937237/jsmn.o
 .gnu.attributes
                0x00000180       0x10 build/default/debug/_ext/1360937237/statemachine.o
 .gnu.attributes
                0x00000190       0x10 build/default/debug/_ext/24337685/osal_freertos.o
 .gnu.attributes
                0x000001a0       0x10 build/default/debug/_ext/122796885/sys_int_pic32.o
 .gnu.attributes
                0x000001b0       0x10 build/default/debug/_ext/1856876499/heap_1.o
 .gnu.attributes
                0x000001c0       0x10 build/default/debug/_ext/12131622/port.o
 .gnu.attributes
                0x000001d0       0x10 build/default/debug/_ext/1128951024/croutine.o
 .gnu.attributes
                0x000001e0       0x10 build/default/debug/_ext/1128951024/list.o
 .gnu.attributes
                0x000001f0       0x10 build/default/debug/_ext/1128951024/queue.o
 .gnu.attributes
                0x00000200       0x10 build/default/debug/_ext/1128951024/tasks.o
 .gnu.attributes
                0x00000210       0x10 build/default/debug/_ext/1128951024/timers.o
 .gnu.attributes
                0x00000220       0x10 build/default/debug/_ext/1128951024/event_groups.o
 .gnu.attributes
                0x00000230       0x10 c:/program files (x86)/microchip/xc32/v1.44/bin/bin/../../lib/gcc/pic32mx/4.8.3/../../../../pic32mx/lib\libpic32.a(default-bootstrap-exception-handler.o)
 .gnu.attributes
                0x00000240       0x10 c:/program files (x86)/microchip/xc32/v1.44/bin/bin/../../lib/gcc/pic32mx/4.8.3/../../../../pic32mx/lib\libpic32.a(default-on-reset.o)
 .gnu.attributes
                0x00000250       0x10 c:/program files (x86)/microchip/xc32/v1.44/bin/bin/../../lib/gcc/pic32mx/4.8.3/../../../../pic32mx/lib\libpic32.a(default-on-bootstrap.o)
 .gnu.attributes
                0x00000260       0x10 c:/program files (x86)/microchip/xc32/v1.44/bin/bin/../../lib/gcc/pic32mx/4.8.3/../../../../pic32mx/lib\libpic32.a(defaultinterrupt.o)
 .gnu.attributes
                0x00000270       0x10 c:/program files (x86)/microchip/xc32/v1.44/bin/bin/../../lib/gcc/pic32mx/4.8.3/../../../../pic32mx/lib\libc.a(atoi.o)
 .gnu.attributes
                0x00000280       0x10 c:/program files (x86)/microchip/xc32/v1.44/bin/bin/../../lib/gcc/pic32mx/4.8.3/../../../../pic32mx/lib\libc.a(ctype.o)
 .gnu.attributes
                0x00000290       0x10 c:/program files (x86)/microchip/xc32/v1.44/bin/bin/../../lib/gcc/pic32mx/4.8.3/../../../../pic32mx/lib\libc.a(strncmp.o)
 .gnu.attributes
                0x000002a0       0x10 c:/program files (x86)/microchip/xc32/v1.44/bin/bin/../../lib/gcc/pic32mx/4.8.3/../../../../pic32mx/lib\libc.a(sprintf_cdnopuxX.eo)
 .gnu.attributes
                0x000002b0       0x10 c:/program files (x86)/microchip/xc32/v1.44/bin/bin/../../lib/gcc/pic32mx/4.8.3/../../../../pic32mx/lib\libc.a(doprnt_cdnopuxX.eo)
 .gnu.attributes
                0x000002c0       0x10 c:/program files (x86)/microchip/xc32/v1.44/bin/bin/../../lib/gcc/pic32mx/4.8.3/../../../../pic32mx/lib\libc.a(_fputc_simple.o)
 .gnu.attributes
                0x000002d0       0x10 c:/program files (x86)/microchip/xc32/v1.44/bin/bin/../../lib/gcc/pic32mx/4.8.3/../../../../pic32mx/lib\libc.a(_iob.o)
 .gnu.attributes
                0x000002e0       0x10 c:/program files (x86)/microchip/xc32/v1.44/bin/bin/../../lib/gcc/pic32mx/4.8.3/../../../../pic32mx/lib\libc.a(_flsbuf_simple.o)
 .gnu.attributes
                0x000002f0       0x10 c:/program files (x86)/microchip/xc32/v1.44/bin/bin/../../lib/gcc/pic32mx/4.8.3\libgcc.a(_udivdi3.o)
 .gnu.attributes
                0x00000300       0x10 c:/program files (x86)/microchip/xc32/v1.44/bin/bin/../../lib/gcc/pic32mx/4.8.3\libgcc.a(_umoddi3.o)
 .gnu.attributes
                0x00000310       0x10 c:/program files (x86)/microchip/xc32/v1.44/bin/bin/../../lib/gcc/pic32mx/4.8.3/../../../../pic32mx/lib\libpic32.a(write.o)
 .gnu.attributes
                0x00000320       0x10 c:/program files (x86)/microchip/xc32/v1.44/bin/bin/../../lib/gcc/pic32mx/4.8.3/../../../../pic32mx/lib\libpic32.a(_mon_putc.o)
 .gnu.attributes
                0x00000330       0x10 c:/program files (x86)/microchip/xc32/v1.44/bin/bin/../../lib/gcc/pic32mx/4.8.3/../../../../pic32mx/lib\libpic32.a(xc32_uart.o)
LOAD c:/program files (x86)/microchip/xc32/v1.44/bin/bin/../../lib/gcc/pic32mx/4.8.3\libgcc.a
START GROUP
LOAD c:/program files (x86)/microchip/xc32/v1.44/bin/bin/../../lib/gcc/pic32mx/4.8.3/../../../../pic32mx/lib\libpic32.a
LOAD c:/program files (x86)/microchip/xc32/v1.44/bin/bin/../../lib/gcc/pic32mx/4.8.3/../../../../pic32mx/lib\libdebug.a
LOAD c:/program files (x86)/microchip/xc32/v1.44/bin/bin/../../lib/gcc/pic32mx/4.8.3/../../../../pic32mx/lib\libpic32.a
LOAD c:/program files (x86)/microchip/xc32/v1.44/bin/bin/../../lib/gcc/pic32mx/4.8.3/../../../../pic32mx/lib\libc.a
LOAD c:/program files (x86)/microchip/xc32/v1.44/bin/bin/../../lib/gcc/pic32mx/4.8.3/../../../../pic32mx/lib\libc.a
LOAD c:/program files (x86)/microchip/xc32/v1.44/bin/bin/../../lib/gcc/pic32mx/4.8.3/../../../../pic32mx/lib\libm.a
LOAD c:/program files (x86)/microchip/xc32/v1.44/bin/bin/../../lib/gcc/pic32mx/4.8.3/../../../../pic32mx/lib\libe.a
LOAD c:/program files (x86)/microchip/xc32/v1.44/bin/bin/../../lib/gcc/pic32mx/4.8.3/../../../../pic32mx/lib\libdsp.a
LOAD c:/program files (x86)/microchip/xc32/v1.44/bin/bin/../../lib/gcc/pic32mx/4.8.3\libgcc.a
LOAD c:/program files (x86)/microchip/xc32/v1.44/bin/bin/../../lib/gcc/pic32mx/4.8.3/../../../../pic32mx/lib\libpic32.a
END GROUP
LOAD c:/program files (x86)/microchip/xc32/v1.44/bin/bin/../../lib/gcc/pic32mx/4.8.3\libgcc.a
OUTPUT(dist/default/debug/Cipango.X.debug.elf elf32-tradlittlemips)
LOAD stack
LOAD data_init

.reginfo        0x00000000       0x18
 .reginfo       0x00000000       0x18 c:/program files (x86)/microchip/xc32/v1.44/bin/bin/../../lib/gcc/pic32mx/4.8.3/../../../../pic32mx/lib/./proc/32MX795F512L/crt0_mips32r2.o

.stack          0xa0019b68      0x400
 .stack         0xa0019b68      0x400 stack

.bss            0xa0000398    0x19640
 .bss           0xa0000398    0x19000 build/default/debug/_ext/1856876499/heap_1.o
 .bss           0xa0019398      0x640 build/default/debug/_ext/12131622/port.o
                0xa0019398                xISRStack

.data           0xa00199d8       0xec
 .data          0xa00199d8       0xa4 c:/program files (x86)/microchip/xc32/v1.44/bin/bin/../../lib/gcc/pic32mx/4.8.3/../../../../pic32mx/lib\libc.a(_iob.o)
                0xa00199d8                _Files
                0xa00199dc                _iob
 .data          0xa0019a7c       0x48 build/default/debug/_ext/1360937237/motor_encoder_thread.o
                0xa0019a7c                pid_right
                0xa0019aa0                pid_left

.bss            0xa0019ac4       0x6c
 .bss           0xa0019ac4       0x44 c:/program files (x86)/microchip/xc32/v1.44/bin/bin/../../lib/gcc/pic32mx/4.8.3/../../../../pic32mx/lib\libc.a(_iob.o)
                0xa0019ac4                _sobuf
                0xa0019ae4                _sibuf
                0xa0019b04                _outdone
 .bss           0xa0019b08       0x28 build/default/debug/_ext/1128951024/timers.o

.bss            0xa0019b30        0xc
 .bss           0xa0019b30        0xc build/default/debug/_ext/1360937237/WiFiReceive.o
                0xa0019b30                msgstat

.bss%z1         0x00000000        0x0
 .bss           0x00000000        0x0 c:/program files (x86)/microchip/xc32/v1.44/bin/bin/../../lib/gcc/pic32mx/4.8.3/../../../../pic32mx/lib\libpic32.a(xc32_uart.o)

.data%z2        0x00000000        0x0
 .data          0x00000000        0x0 c:/program files (x86)/microchip/xc32/v1.44/bin/bin/../../lib/gcc/pic32mx/4.8.3/../../../../pic32mx/lib\libpic32.a(xc32_uart.o)

.bss%z3         0x00000000        0x0
 .bss           0x00000000        0x0 c:/program files (x86)/microchip/xc32/v1.44/bin/bin/../../lib/gcc/pic32mx/4.8.3/../../../../pic32mx/lib\libpic32.a(_mon_putc.o)

.data%z4        0x00000000        0x0
 .data          0x00000000        0x0 c:/program files (x86)/microchip/xc32/v1.44/bin/bin/../../lib/gcc/pic32mx/4.8.3/../../../../pic32mx/lib\libpic32.a(_mon_putc.o)

.bss%z5         0x00000000        0x0
 .bss           0x00000000        0x0 c:/program files (x86)/microchip/xc32/v1.44/bin/bin/../../lib/gcc/pic32mx/4.8.3/../../../../pic32mx/lib\libpic32.a(write.o)

.data%z6        0x00000000        0x0
 .data          0x00000000        0x0 c:/program files (x86)/microchip/xc32/v1.44/bin/bin/../../lib/gcc/pic32mx/4.8.3/../../../../pic32mx/lib\libpic32.a(write.o)

.bss%z7         0x00000000        0x0
 .bss           0x00000000        0x0 c:/program files (x86)/microchip/xc32/v1.44/bin/bin/../../lib/gcc/pic32mx/4.8.3\libgcc.a(_umoddi3.o)

.data%z8        0x00000000        0x0
 .data          0x00000000        0x0 c:/program files (x86)/microchip/xc32/v1.44/bin/bin/../../lib/gcc/pic32mx/4.8.3\libgcc.a(_umoddi3.o)

.bss%z9         0x00000000        0x0
 .bss           0x00000000        0x0 c:/program files (x86)/microchip/xc32/v1.44/bin/bin/../../lib/gcc/pic32mx/4.8.3\libgcc.a(_udivdi3.o)

.data%z10       0x00000000        0x0
 .data          0x00000000        0x0 c:/program files (x86)/microchip/xc32/v1.44/bin/bin/../../lib/gcc/pic32mx/4.8.3\libgcc.a(_udivdi3.o)

.bss%z11        0x00000000        0x0
 .bss           0x00000000        0x0 c:/program files (x86)/microchip/xc32/v1.44/bin/bin/../../lib/gcc/pic32mx/4.8.3/../../../../pic32mx/lib\libm.a(sitofp.o)

.data%z12       0x00000000        0x0
 .data          0x00000000        0x0 c:/program files (x86)/microchip/xc32/v1.44/bin/bin/../../lib/gcc/pic32mx/4.8.3/../../../../pic32mx/lib\libm.a(sitofp.o)

.bss%z13        0x00000000        0x0
 .bss           0x00000000        0x0 c:/program files (x86)/microchip/xc32/v1.44/bin/bin/../../lib/gcc/pic32mx/4.8.3/../../../../pic32mx/lib\libm.a(fptoli.o)

.data%z14       0x00000000        0x0
 .data          0x00000000        0x0 c:/program files (x86)/microchip/xc32/v1.44/bin/bin/../../lib/gcc/pic32mx/4.8.3/../../../../pic32mx/lib\libm.a(fptoli.o)

.bss%z15        0x00000000        0x0
 .bss           0x00000000        0x0 c:/program files (x86)/microchip/xc32/v1.44/bin/bin/../../lib/gcc/pic32mx/4.8.3/../../../../pic32mx/lib\libm.a(fpcmp.o)

.data%z16       0x00000000        0x0
 .data          0x00000000        0x0 c:/program files (x86)/microchip/xc32/v1.44/bin/bin/../../lib/gcc/pic32mx/4.8.3/../../../../pic32mx/lib\libm.a(fpcmp.o)

.bss%z17        0x00000000        0x0
 .bss           0x00000000        0x0 c:/program files (x86)/microchip/xc32/v1.44/bin/bin/../../lib/gcc/pic32mx/4.8.3/../../../../pic32mx/lib\libm.a(fp32subadd.o)

.data%z18       0x00000000        0x0
 .data          0x00000000        0x0 c:/program files (x86)/microchip/xc32/v1.44/bin/bin/../../lib/gcc/pic32mx/4.8.3/../../../../pic32mx/lib\libm.a(fp32subadd.o)

.bss%z19        0x00000000        0x0
 .bss           0x00000000        0x0 c:/program files (x86)/microchip/xc32/v1.44/bin/bin/../../lib/gcc/pic32mx/4.8.3/../../../../pic32mx/lib\libm.a(fp32mul.o)

.data%z20       0x00000000        0x0
 .data          0x00000000        0x0 c:/program files (x86)/microchip/xc32/v1.44/bin/bin/../../lib/gcc/pic32mx/4.8.3/../../../../pic32mx/lib\libm.a(fp32mul.o)

.bss%z21        0x00000000        0x0
 .bss           0x00000000        0x0 c:/program files (x86)/microchip/xc32/v1.44/bin/bin/../../lib/gcc/pic32mx/4.8.3/../../../../pic32mx/lib\libm.a(fp32div.o)

.data%z22       0x00000000        0x0
 .data          0x00000000        0x0 c:/program files (x86)/microchip/xc32/v1.44/bin/bin/../../lib/gcc/pic32mx/4.8.3/../../../../pic32mx/lib\libm.a(fp32div.o)

.bss%z23        0x00000000        0x0
 .bss           0x00000000        0x0 c:/program files (x86)/microchip/xc32/v1.44/bin/bin/../../lib/gcc/pic32mx/4.8.3/../../../../pic32mx/lib\libc.a(_flsbuf_simple.o)

.data%z24       0x00000000        0x0
 .data          0x00000000        0x0 c:/program files (x86)/microchip/xc32/v1.44/bin/bin/../../lib/gcc/pic32mx/4.8.3/../../../../pic32mx/lib\libc.a(_flsbuf_simple.o)

.bss%z25        0x00000000        0x0
 .bss           0x00000000        0x0 c:/program files (x86)/microchip/xc32/v1.44/bin/bin/../../lib/gcc/pic32mx/4.8.3/../../../../pic32mx/lib\libc.a(_fputc_simple.o)

.data%z26       0x00000000        0x0
 .data          0x00000000        0x0 c:/program files (x86)/microchip/xc32/v1.44/bin/bin/../../lib/gcc/pic32mx/4.8.3/../../../../pic32mx/lib\libc.a(_fputc_simple.o)

.bss%z27        0x00000000        0x0
 .bss           0x00000000        0x0 c:/program files (x86)/microchip/xc32/v1.44/bin/bin/../../lib/gcc/pic32mx/4.8.3/../../../../pic32mx/lib\libc.a(doprnt_cdnopuxX.eo)

.data%z28       0x00000000        0x0
 .data          0x00000000        0x0 c:/program files (x86)/microchip/xc32/v1.44/bin/bin/../../lib/gcc/pic32mx/4.8.3/../../../../pic32mx/lib\libc.a(doprnt_cdnopuxX.eo)

.bss%z29        0x00000000        0x0
 .bss           0x00000000        0x0 c:/program files (x86)/microchip/xc32/v1.44/bin/bin/../../lib/gcc/pic32mx/4.8.3/../../../../pic32mx/lib\libc.a(sprintf_cdnopuxX.eo)

.data%z30       0x00000000        0x0
 .data          0x00000000        0x0 c:/program files (x86)/microchip/xc32/v1.44/bin/bin/../../lib/gcc/pic32mx/4.8.3/../../../../pic32mx/lib\libc.a(sprintf_cdnopuxX.eo)

.bss%z31        0x00000000        0x0
 .bss           0x00000000        0x0 c:/program files (x86)/microchip/xc32/v1.44/bin/bin/../../lib/gcc/pic32mx/4.8.3/../../../../pic32mx/lib\libc.a(strncmp.o)

.data%z32       0x00000000        0x0
 .data          0x00000000        0x0 c:/program files (x86)/microchip/xc32/v1.44/bin/bin/../../lib/gcc/pic32mx/4.8.3/../../../../pic32mx/lib\libc.a(strncmp.o)

.bss%z33        0x00000000        0x0
 .bss           0x00000000        0x0 c:/program files (x86)/microchip/xc32/v1.44/bin/bin/../../lib/gcc/pic32mx/4.8.3/../../../../pic32mx/lib\libc.a(ctype.o)

.data%z34       0x00000000        0x0
 .data          0x00000000        0x0 c:/program files (x86)/microchip/xc32/v1.44/bin/bin/../../lib/gcc/pic32mx/4.8.3/../../../../pic32mx/lib\libc.a(ctype.o)

.bss%z35        0x00000000        0x0
 .bss           0x00000000        0x0 c:/program files (x86)/microchip/xc32/v1.44/bin/bin/../../lib/gcc/pic32mx/4.8.3/../../../../pic32mx/lib\libc.a(atoi.o)

.data%z36       0x00000000        0x0
 .data          0x00000000        0x0 c:/program files (x86)/microchip/xc32/v1.44/bin/bin/../../lib/gcc/pic32mx/4.8.3/../../../../pic32mx/lib\libc.a(atoi.o)

.bss%z37        0x00000000        0x0
 .bss           0x00000000        0x0 c:/program files (x86)/microchip/xc32/v1.44/bin/bin/../../lib/gcc/pic32mx/4.8.3/../../../../pic32mx/lib\libpic32.a(defaultinterrupt.o)

.data%z38       0x00000000        0x0
 .data          0x00000000        0x0 c:/program files (x86)/microchip/xc32/v1.44/bin/bin/../../lib/gcc/pic32mx/4.8.3/../../../../pic32mx/lib\libpic32.a(defaultinterrupt.o)

.bss%z39        0x00000000        0x0
 .bss           0x00000000        0x0 c:/program files (x86)/microchip/xc32/v1.44/bin/bin/../../lib/gcc/pic32mx/4.8.3/../../../../pic32mx/lib\libpic32.a(vector51.o)

.data%z40       0x00000000        0x0
 .data          0x00000000        0x0 c:/program files (x86)/microchip/xc32/v1.44/bin/bin/../../lib/gcc/pic32mx/4.8.3/../../../../pic32mx/lib\libpic32.a(vector51.o)

.bss%z41        0x00000000        0x0
 .bss           0x00000000        0x0 c:/program files (x86)/microchip/xc32/v1.44/bin/bin/../../lib/gcc/pic32mx/4.8.3/../../../../pic32mx/lib\libpic32.a(vector50.o)

.data%z42       0x00000000        0x0
 .data          0x00000000        0x0 c:/program files (x86)/microchip/xc32/v1.44/bin/bin/../../lib/gcc/pic32mx/4.8.3/../../../../pic32mx/lib\libpic32.a(vector50.o)

.bss%z43        0x00000000        0x0
 .bss           0x00000000        0x0 c:/program files (x86)/microchip/xc32/v1.44/bin/bin/../../lib/gcc/pic32mx/4.8.3/../../../../pic32mx/lib\libpic32.a(vector49.o)

.data%z44       0x00000000        0x0
 .data          0x00000000        0x0 c:/program files (x86)/microchip/xc32/v1.44/bin/bin/../../lib/gcc/pic32mx/4.8.3/../../../../pic32mx/lib\libpic32.a(vector49.o)

.bss%z45        0x00000000        0x0
 .bss           0x00000000        0x0 c:/program files (x86)/microchip/xc32/v1.44/bin/bin/../../lib/gcc/pic32mx/4.8.3/../../../../pic32mx/lib\libpic32.a(vector48.o)

.data%z46       0x00000000        0x0
 .data          0x00000000        0x0 c:/program files (x86)/microchip/xc32/v1.44/bin/bin/../../lib/gcc/pic32mx/4.8.3/../../../../pic32mx/lib\libpic32.a(vector48.o)

.bss%z47        0x00000000        0x0
 .bss           0x00000000        0x0 c:/program files (x86)/microchip/xc32/v1.44/bin/bin/../../lib/gcc/pic32mx/4.8.3/../../../../pic32mx/lib\libpic32.a(vector47.o)

.data%z48       0x00000000        0x0
 .data          0x00000000        0x0 c:/program files (x86)/microchip/xc32/v1.44/bin/bin/../../lib/gcc/pic32mx/4.8.3/../../../../pic32mx/lib\libpic32.a(vector47.o)

.bss%z49        0x00000000        0x0
 .bss           0x00000000        0x0 c:/program files (x86)/microchip/xc32/v1.44/bin/bin/../../lib/gcc/pic32mx/4.8.3/../../../../pic32mx/lib\libpic32.a(vector46.o)

.data%z50       0x00000000        0x0
 .data          0x00000000        0x0 c:/program files (x86)/microchip/xc32/v1.44/bin/bin/../../lib/gcc/pic32mx/4.8.3/../../../../pic32mx/lib\libpic32.a(vector46.o)

.bss%z51        0x00000000        0x0
 .bss           0x00000000        0x0 c:/program files (x86)/microchip/xc32/v1.44/bin/bin/../../lib/gcc/pic32mx/4.8.3/../../../../pic32mx/lib\libpic32.a(vector45.o)

.data%z52       0x00000000        0x0
 .data          0x00000000        0x0 c:/program files (x86)/microchip/xc32/v1.44/bin/bin/../../lib/gcc/pic32mx/4.8.3/../../../../pic32mx/lib\libpic32.a(vector45.o)

.bss%z53        0x00000000        0x0
 .bss           0x00000000        0x0 c:/program files (x86)/microchip/xc32/v1.44/bin/bin/../../lib/gcc/pic32mx/4.8.3/../../../../pic32mx/lib\libpic32.a(vector44.o)

.data%z54       0x00000000        0x0
 .data          0x00000000        0x0 c:/program files (x86)/microchip/xc32/v1.44/bin/bin/../../lib/gcc/pic32mx/4.8.3/../../../../pic32mx/lib\libpic32.a(vector44.o)

.bss%z55        0x00000000        0x0
 .bss           0x00000000        0x0 c:/program files (x86)/microchip/xc32/v1.44/bin/bin/../../lib/gcc/pic32mx/4.8.3/../../../../pic32mx/lib\libpic32.a(vector43.o)

.data%z56       0x00000000        0x0
 .data          0x00000000        0x0 c:/program files (x86)/microchip/xc32/v1.44/bin/bin/../../lib/gcc/pic32mx/4.8.3/../../../../pic32mx/lib\libpic32.a(vector43.o)

.bss%z57        0x00000000        0x0
 .bss           0x00000000        0x0 c:/program files (x86)/microchip/xc32/v1.44/bin/bin/../../lib/gcc/pic32mx/4.8.3/../../../../pic32mx/lib\libpic32.a(vector42.o)

.data%z58       0x00000000        0x0
 .data          0x00000000        0x0 c:/program files (x86)/microchip/xc32/v1.44/bin/bin/../../lib/gcc/pic32mx/4.8.3/../../../../pic32mx/lib\libpic32.a(vector42.o)

.bss%z59        0x00000000        0x0
 .bss           0x00000000        0x0 c:/program files (x86)/microchip/xc32/v1.44/bin/bin/../../lib/gcc/pic32mx/4.8.3/../../../../pic32mx/lib\libpic32.a(vector41.o)

.data%z60       0x00000000        0x0
 .data          0x00000000        0x0 c:/program files (x86)/microchip/xc32/v1.44/bin/bin/../../lib/gcc/pic32mx/4.8.3/../../../../pic32mx/lib\libpic32.a(vector41.o)

.bss%z61        0x00000000        0x0
 .bss           0x00000000        0x0 c:/program files (x86)/microchip/xc32/v1.44/bin/bin/../../lib/gcc/pic32mx/4.8.3/../../../../pic32mx/lib\libpic32.a(vector40.o)

.data%z62       0x00000000        0x0
 .data          0x00000000        0x0 c:/program files (x86)/microchip/xc32/v1.44/bin/bin/../../lib/gcc/pic32mx/4.8.3/../../../../pic32mx/lib\libpic32.a(vector40.o)

.bss%z63        0x00000000        0x0
 .bss           0x00000000        0x0 c:/program files (x86)/microchip/xc32/v1.44/bin/bin/../../lib/gcc/pic32mx/4.8.3/../../../../pic32mx/lib\libpic32.a(vector39.o)

.data%z64       0x00000000        0x0
 .data          0x00000000        0x0 c:/program files (x86)/microchip/xc32/v1.44/bin/bin/../../lib/gcc/pic32mx/4.8.3/../../../../pic32mx/lib\libpic32.a(vector39.o)

.bss%z65        0x00000000        0x0
 .bss           0x00000000        0x0 c:/program files (x86)/microchip/xc32/v1.44/bin/bin/../../lib/gcc/pic32mx/4.8.3/../../../../pic32mx/lib\libpic32.a(vector38.o)

.data%z66       0x00000000        0x0
 .data          0x00000000        0x0 c:/program files (x86)/microchip/xc32/v1.44/bin/bin/../../lib/gcc/pic32mx/4.8.3/../../../../pic32mx/lib\libpic32.a(vector38.o)

.bss%z67        0x00000000        0x0
 .bss           0x00000000        0x0 c:/program files (x86)/microchip/xc32/v1.44/bin/bin/../../lib/gcc/pic32mx/4.8.3/../../../../pic32mx/lib\libpic32.a(vector37.o)

.data%z68       0x00000000        0x0
 .data          0x00000000        0x0 c:/program files (x86)/microchip/xc32/v1.44/bin/bin/../../lib/gcc/pic32mx/4.8.3/../../../../pic32mx/lib\libpic32.a(vector37.o)

.bss%z69        0x00000000        0x0
 .bss           0x00000000        0x0 c:/program files (x86)/microchip/xc32/v1.44/bin/bin/../../lib/gcc/pic32mx/4.8.3/../../../../pic32mx/lib\libpic32.a(vector36.o)

.data%z70       0x00000000        0x0
 .data          0x00000000        0x0 c:/program files (x86)/microchip/xc32/v1.44/bin/bin/../../lib/gcc/pic32mx/4.8.3/../../../../pic32mx/lib\libpic32.a(vector36.o)

.bss%z71        0x00000000        0x0
 .bss           0x00000000        0x0 c:/program files (x86)/microchip/xc32/v1.44/bin/bin/../../lib/gcc/pic32mx/4.8.3/../../../../pic32mx/lib\libpic32.a(vector35.o)

.data%z72       0x00000000        0x0
 .data          0x00000000        0x0 c:/program files (x86)/microchip/xc32/v1.44/bin/bin/../../lib/gcc/pic32mx/4.8.3/../../../../pic32mx/lib\libpic32.a(vector35.o)

.bss%z73        0x00000000        0x0
 .bss           0x00000000        0x0 c:/program files (x86)/microchip/xc32/v1.44/bin/bin/../../lib/gcc/pic32mx/4.8.3/../../../../pic32mx/lib\libpic32.a(vector34.o)

.data%z74       0x00000000        0x0
 .data          0x00000000        0x0 c:/program files (x86)/microchip/xc32/v1.44/bin/bin/../../lib/gcc/pic32mx/4.8.3/../../../../pic32mx/lib\libpic32.a(vector34.o)

.bss%z75        0x00000000        0x0
 .bss           0x00000000        0x0 c:/program files (x86)/microchip/xc32/v1.44/bin/bin/../../lib/gcc/pic32mx/4.8.3/../../../../pic32mx/lib\libpic32.a(vector33.o)

.data%z76       0x00000000        0x0
 .data          0x00000000        0x0 c:/program files (x86)/microchip/xc32/v1.44/bin/bin/../../lib/gcc/pic32mx/4.8.3/../../../../pic32mx/lib\libpic32.a(vector33.o)

.bss%z77        0x00000000        0x0
 .bss           0x00000000        0x0 c:/program files (x86)/microchip/xc32/v1.44/bin/bin/../../lib/gcc/pic32mx/4.8.3/../../../../pic32mx/lib\libpic32.a(vector32.o)

.data%z78       0x00000000        0x0
 .data          0x00000000        0x0 c:/program files (x86)/microchip/xc32/v1.44/bin/bin/../../lib/gcc/pic32mx/4.8.3/../../../../pic32mx/lib\libpic32.a(vector32.o)

.bss%z79        0x00000000        0x0
 .bss           0x00000000        0x0 c:/program files (x86)/microchip/xc32/v1.44/bin/bin/../../lib/gcc/pic32mx/4.8.3/../../../../pic32mx/lib\libpic32.a(vector31.o)

.data%z80       0x00000000        0x0
 .data          0x00000000        0x0 c:/program files (x86)/microchip/xc32/v1.44/bin/bin/../../lib/gcc/pic32mx/4.8.3/../../../../pic32mx/lib\libpic32.a(vector31.o)

.bss%z81        0x00000000        0x0
 .bss           0x00000000        0x0 c:/program files (x86)/microchip/xc32/v1.44/bin/bin/../../lib/gcc/pic32mx/4.8.3/../../../../pic32mx/lib\libpic32.a(vector30.o)

.data%z82       0x00000000        0x0
 .data          0x00000000        0x0 c:/program files (x86)/microchip/xc32/v1.44/bin/bin/../../lib/gcc/pic32mx/4.8.3/../../../../pic32mx/lib\libpic32.a(vector30.o)

.bss%z83        0x00000000        0x0
 .bss           0x00000000        0x0 c:/program files (x86)/microchip/xc32/v1.44/bin/bin/../../lib/gcc/pic32mx/4.8.3/../../../../pic32mx/lib\libpic32.a(vector29.o)

.data%z84       0x00000000        0x0
 .data          0x00000000        0x0 c:/program files (x86)/microchip/xc32/v1.44/bin/bin/../../lib/gcc/pic32mx/4.8.3/../../../../pic32mx/lib\libpic32.a(vector29.o)

.bss%z85        0x00000000        0x0
 .bss           0x00000000        0x0 c:/program files (x86)/microchip/xc32/v1.44/bin/bin/../../lib/gcc/pic32mx/4.8.3/../../../../pic32mx/lib\libpic32.a(vector28.o)

.data%z86       0x00000000        0x0
 .data          0x00000000        0x0 c:/program files (x86)/microchip/xc32/v1.44/bin/bin/../../lib/gcc/pic32mx/4.8.3/../../../../pic32mx/lib\libpic32.a(vector28.o)

.bss%z87        0x00000000        0x0
 .bss           0x00000000        0x0 c:/program files (x86)/microchip/xc32/v1.44/bin/bin/../../lib/gcc/pic32mx/4.8.3/../../../../pic32mx/lib\libpic32.a(vector27.o)

.data%z88       0x00000000        0x0
 .data          0x00000000        0x0 c:/program files (x86)/microchip/xc32/v1.44/bin/bin/../../lib/gcc/pic32mx/4.8.3/../../../../pic32mx/lib\libpic32.a(vector27.o)

.bss%z89        0x00000000        0x0
 .bss           0x00000000        0x0 c:/program files (x86)/microchip/xc32/v1.44/bin/bin/../../lib/gcc/pic32mx/4.8.3/../../../../pic32mx/lib\libpic32.a(vector26.o)

.data%z90       0x00000000        0x0
 .data          0x00000000        0x0 c:/program files (x86)/microchip/xc32/v1.44/bin/bin/../../lib/gcc/pic32mx/4.8.3/../../../../pic32mx/lib\libpic32.a(vector26.o)

.bss%z91        0x00000000        0x0
 .bss           0x00000000        0x0 c:/program files (x86)/microchip/xc32/v1.44/bin/bin/../../lib/gcc/pic32mx/4.8.3/../../../../pic32mx/lib\libpic32.a(vector25.o)

.data%z92       0x00000000        0x0
 .data          0x00000000        0x0 c:/program files (x86)/microchip/xc32/v1.44/bin/bin/../../lib/gcc/pic32mx/4.8.3/../../../../pic32mx/lib\libpic32.a(vector25.o)

.bss%z93        0x00000000        0x0
 .bss           0x00000000        0x0 c:/program files (x86)/microchip/xc32/v1.44/bin/bin/../../lib/gcc/pic32mx/4.8.3/../../../../pic32mx/lib\libpic32.a(vector23.o)

.data%z94       0x00000000        0x0
 .data          0x00000000        0x0 c:/program files (x86)/microchip/xc32/v1.44/bin/bin/../../lib/gcc/pic32mx/4.8.3/../../../../pic32mx/lib\libpic32.a(vector23.o)

.bss%z95        0x00000000        0x0
 .bss           0x00000000        0x0 c:/program files (x86)/microchip/xc32/v1.44/bin/bin/../../lib/gcc/pic32mx/4.8.3/../../../../pic32mx/lib\libpic32.a(vector22.o)

.data%z96       0x00000000        0x0
 .data          0x00000000        0x0 c:/program files (x86)/microchip/xc32/v1.44/bin/bin/../../lib/gcc/pic32mx/4.8.3/../../../../pic32mx/lib\libpic32.a(vector22.o)

.bss%z97        0x00000000        0x0
 .bss           0x00000000        0x0 c:/program files (x86)/microchip/xc32/v1.44/bin/bin/../../lib/gcc/pic32mx/4.8.3/../../../../pic32mx/lib\libpic32.a(vector21.o)

.data%z98       0x00000000        0x0
 .data          0x00000000        0x0 c:/program files (x86)/microchip/xc32/v1.44/bin/bin/../../lib/gcc/pic32mx/4.8.3/../../../../pic32mx/lib\libpic32.a(vector21.o)

.bss%z99        0x00000000        0x0
 .bss           0x00000000        0x0 c:/program files (x86)/microchip/xc32/v1.44/bin/bin/../../lib/gcc/pic32mx/4.8.3/../../../../pic32mx/lib\libpic32.a(vector18.o)

.data%z100      0x00000000        0x0
 .data          0x00000000        0x0 c:/program files (x86)/microchip/xc32/v1.44/bin/bin/../../lib/gcc/pic32mx/4.8.3/../../../../pic32mx/lib\libpic32.a(vector18.o)

.bss%z101       0x00000000        0x0
 .bss           0x00000000        0x0 c:/program files (x86)/microchip/xc32/v1.44/bin/bin/../../lib/gcc/pic32mx/4.8.3/../../../../pic32mx/lib\libpic32.a(vector17.o)

.data%z102      0x00000000        0x0
 .data          0x00000000        0x0 c:/program files (x86)/microchip/xc32/v1.44/bin/bin/../../lib/gcc/pic32mx/4.8.3/../../../../pic32mx/lib\libpic32.a(vector17.o)

.bss%z103       0x00000000        0x0
 .bss           0x00000000        0x0 c:/program files (x86)/microchip/xc32/v1.44/bin/bin/../../lib/gcc/pic32mx/4.8.3/../../../../pic32mx/lib\libpic32.a(vector14.o)

.data%z104      0x00000000        0x0
 .data          0x00000000        0x0 c:/program files (x86)/microchip/xc32/v1.44/bin/bin/../../lib/gcc/pic32mx/4.8.3/../../../../pic32mx/lib\libpic32.a(vector14.o)

.bss%z105       0x00000000        0x0
 .bss           0x00000000        0x0 c:/program files (x86)/microchip/xc32/v1.44/bin/bin/../../lib/gcc/pic32mx/4.8.3/../../../../pic32mx/lib\libpic32.a(vector13.o)

.data%z106      0x00000000        0x0
 .data          0x00000000        0x0 c:/program files (x86)/microchip/xc32/v1.44/bin/bin/../../lib/gcc/pic32mx/4.8.3/../../../../pic32mx/lib\libpic32.a(vector13.o)

.bss%z107       0x00000000        0x0
 .bss           0x00000000        0x0 c:/program files (x86)/microchip/xc32/v1.44/bin/bin/../../lib/gcc/pic32mx/4.8.3/../../../../pic32mx/lib\libpic32.a(vector11.o)

.data%z108      0x00000000        0x0
 .data          0x00000000        0x0 c:/program files (x86)/microchip/xc32/v1.44/bin/bin/../../lib/gcc/pic32mx/4.8.3/../../../../pic32mx/lib\libpic32.a(vector11.o)

.bss%z109       0x00000000        0x0
 .bss           0x00000000        0x0 c:/program files (x86)/microchip/xc32/v1.44/bin/bin/../../lib/gcc/pic32mx/4.8.3/../../../../pic32mx/lib\libpic32.a(vector10.o)

.data%z110      0x00000000        0x0
 .data          0x00000000        0x0 c:/program files (x86)/microchip/xc32/v1.44/bin/bin/../../lib/gcc/pic32mx/4.8.3/../../../../pic32mx/lib\libpic32.a(vector10.o)

.bss%z111       0x00000000        0x0
 .bss           0x00000000        0x0 c:/program files (x86)/microchip/xc32/v1.44/bin/bin/../../lib/gcc/pic32mx/4.8.3/../../../../pic32mx/lib\libpic32.a(vector9.o)

.data%z112      0x00000000        0x0
 .data          0x00000000        0x0 c:/program files (x86)/microchip/xc32/v1.44/bin/bin/../../lib/gcc/pic32mx/4.8.3/../../../../pic32mx/lib\libpic32.a(vector9.o)

.bss%z113       0x00000000        0x0
 .bss           0x00000000        0x0 c:/program files (x86)/microchip/xc32/v1.44/bin/bin/../../lib/gcc/pic32mx/4.8.3/../../../../pic32mx/lib\libpic32.a(vector7.o)

.data%z114      0x00000000        0x0
 .data          0x00000000        0x0 c:/program files (x86)/microchip/xc32/v1.44/bin/bin/../../lib/gcc/pic32mx/4.8.3/../../../../pic32mx/lib\libpic32.a(vector7.o)

.bss%z115       0x00000000        0x0
 .bss           0x00000000        0x0 c:/program files (x86)/microchip/xc32/v1.44/bin/bin/../../lib/gcc/pic32mx/4.8.3/../../../../pic32mx/lib\libpic32.a(vector6.o)

.data%z116      0x00000000        0x0
 .data          0x00000000        0x0 c:/program files (x86)/microchip/xc32/v1.44/bin/bin/../../lib/gcc/pic32mx/4.8.3/../../../../pic32mx/lib\libpic32.a(vector6.o)

.bss%z117       0x00000000        0x0
 .bss           0x00000000        0x0 c:/program files (x86)/microchip/xc32/v1.44/bin/bin/../../lib/gcc/pic32mx/4.8.3/../../../../pic32mx/lib\libpic32.a(vector5.o)

.data%z118      0x00000000        0x0
 .data          0x00000000        0x0 c:/program files (x86)/microchip/xc32/v1.44/bin/bin/../../lib/gcc/pic32mx/4.8.3/../../../../pic32mx/lib\libpic32.a(vector5.o)

.bss%z119       0x00000000        0x0
 .bss           0x00000000        0x0 c:/program files (x86)/microchip/xc32/v1.44/bin/bin/../../lib/gcc/pic32mx/4.8.3/../../../../pic32mx/lib\libpic32.a(vector3.o)

.data%z120      0x00000000        0x0
 .data          0x00000000        0x0 c:/program files (x86)/microchip/xc32/v1.44/bin/bin/../../lib/gcc/pic32mx/4.8.3/../../../../pic32mx/lib\libpic32.a(vector3.o)

.bss%z121       0x00000000        0x0
 .bss           0x00000000        0x0 c:/program files (x86)/microchip/xc32/v1.44/bin/bin/../../lib/gcc/pic32mx/4.8.3/../../../../pic32mx/lib\libpic32.a(vector2.o)

.data%z122      0x00000000        0x0
 .data          0x00000000        0x0 c:/program files (x86)/microchip/xc32/v1.44/bin/bin/../../lib/gcc/pic32mx/4.8.3/../../../../pic32mx/lib\libpic32.a(vector2.o)

.bss%z123       0x00000000        0x0
 .bss           0x00000000        0x0 c:/program files (x86)/microchip/xc32/v1.44/bin/bin/../../lib/gcc/pic32mx/4.8.3/../../../../pic32mx/lib\libpic32.a(vector0.o)

.data%z124      0x00000000        0x0
 .data          0x00000000        0x0 c:/program files (x86)/microchip/xc32/v1.44/bin/bin/../../lib/gcc/pic32mx/4.8.3/../../../../pic32mx/lib\libpic32.a(vector0.o)

.bss%z125       0x00000000        0x0
 .bss           0x00000000        0x0 c:/program files (x86)/microchip/xc32/v1.44/bin/bin/../../lib/gcc/pic32mx/4.8.3/../../../../pic32mx/lib\libpic32.a(general-exception.o)

.data%z126      0x00000000        0x0
 .data          0x00000000        0x0 c:/program files (x86)/microchip/xc32/v1.44/bin/bin/../../lib/gcc/pic32mx/4.8.3/../../../../pic32mx/lib\libpic32.a(general-exception.o)

.bss%z127       0x00000000        0x0
 .bss           0x00000000        0x0 c:/program files (x86)/microchip/xc32/v1.44/bin/bin/../../lib/gcc/pic32mx/4.8.3/../../../../pic32mx/lib\libpic32.a(default-nmi-handler.o)

.data%z128      0x00000000        0x0
 .data          0x00000000        0x0 c:/program files (x86)/microchip/xc32/v1.44/bin/bin/../../lib/gcc/pic32mx/4.8.3/../../../../pic32mx/lib\libpic32.a(default-nmi-handler.o)

.bss%z129       0x00000000        0x0
 .bss           0x00000000        0x0 c:/program files (x86)/microchip/xc32/v1.44/bin/bin/../../lib/gcc/pic32mx/4.8.3/../../../../pic32mx/lib\libpic32.a(default-on-bootstrap.o)

.data%z130      0x00000000        0x0
 .data          0x00000000        0x0 c:/program files (x86)/microchip/xc32/v1.44/bin/bin/../../lib/gcc/pic32mx/4.8.3/../../../../pic32mx/lib\libpic32.a(default-on-bootstrap.o)

.bss%z131       0x00000000        0x0
 .bss           0x00000000        0x0 c:/program files (x86)/microchip/xc32/v1.44/bin/bin/../../lib/gcc/pic32mx/4.8.3/../../../../pic32mx/lib\libpic32.a(default-on-reset.o)

.data%z132      0x00000000        0x0
 .data          0x00000000        0x0 c:/program files (x86)/microchip/xc32/v1.44/bin/bin/../../lib/gcc/pic32mx/4.8.3/../../../../pic32mx/lib\libpic32.a(default-on-reset.o)

.bss%z133       0x00000000        0x0
 .bss           0x00000000        0x0 c:/program files (x86)/microchip/xc32/v1.44/bin/bin/../../lib/gcc/pic32mx/4.8.3/../../../../pic32mx/lib\libpic32.a(default-bootstrap-exception-handler.o)

.data%z134      0x00000000        0x0
 .data          0x00000000        0x0 c:/program files (x86)/microchip/xc32/v1.44/bin/bin/../../lib/gcc/pic32mx/4.8.3/../../../../pic32mx/lib\libpic32.a(default-bootstrap-exception-handler.o)

.bss%z135       0x00000000        0x0
 .bss           0x00000000        0x0 c:/program files (x86)/microchip/xc32/v1.44/bin/bin/../../lib/gcc/pic32mx/4.8.3/../../../../pic32mx/lib\libpic32.a(strlen.o)

.data%z136      0x00000000        0x0
 .data          0x00000000        0x0 c:/program files (x86)/microchip/xc32/v1.44/bin/bin/../../lib/gcc/pic32mx/4.8.3/../../../../pic32mx/lib\libpic32.a(strlen.o)

.bss%z137       0x00000000        0x0
 .bss           0x00000000        0x0 c:/program files (x86)/microchip/xc32/v1.44/bin/bin/../../lib/gcc/pic32mx/4.8.3/../../../../pic32mx/lib\libpic32.a(memset.o)

.data%z138      0x00000000        0x0
 .data          0x00000000        0x0 c:/program files (x86)/microchip/xc32/v1.44/bin/bin/../../lib/gcc/pic32mx/4.8.3/../../../../pic32mx/lib\libpic32.a(memset.o)

.bss%z139       0x00000000        0x0
 .bss           0x00000000        0x0 c:/program files (x86)/microchip/xc32/v1.44/bin/bin/../../lib/gcc/pic32mx/4.8.3/../../../../pic32mx/lib\libpic32.a(memcpy.o)

.data%z140      0x00000000        0x0
 .data          0x00000000        0x0 c:/program files (x86)/microchip/xc32/v1.44/bin/bin/../../lib/gcc/pic32mx/4.8.3/../../../../pic32mx/lib\libpic32.a(memcpy.o)

.bss%z141       0x00000000        0x0
 .bss           0x00000000        0x0 c:/program files (x86)/microchip/xc32/v1.44/bin/bin/../../lib/gcc/pic32mx/4.8.3/../../../../pic32mx/lib/./proc/32MX795F512L\processor.o

.data%z142      0x00000000        0x0
 .data          0x00000000        0x0 c:/program files (x86)/microchip/xc32/v1.44/bin/bin/../../lib/gcc/pic32mx/4.8.3/../../../../pic32mx/lib/./proc/32MX795F512L\processor.o

.bss%z143       0x00000000        0x0
 .bss           0x00000000        0x0 c:/program files (x86)/microchip/xc32/v1.44/bin/bin/../../lib/gcc/pic32mx/4.8.3/../../../../pic32mx/lib\pic32_software_reset.o

.data%z144      0x00000000        0x0
 .data          0x00000000        0x0 c:/program files (x86)/microchip/xc32/v1.44/bin/bin/../../lib/gcc/pic32mx/4.8.3/../../../../pic32mx/lib\pic32_software_reset.o

.bss%z145       0x00000000        0x0
 .bss           0x00000000        0x0 c:/program files (x86)/microchip/xc32/v1.44/bin/bin/../../lib/gcc/pic32mx/4.8.3/../../../../pic32mx/lib/./proc/32MX795F512L\default_isr_vectors.o

.data%z146      0x00000000        0x0
 .data          0x00000000        0x0 c:/program files (x86)/microchip/xc32/v1.44/bin/bin/../../lib/gcc/pic32mx/4.8.3/../../../../pic32mx/lib/./proc/32MX795F512L\default_isr_vectors.o

.bss%z147       0x00000000        0x0
 .bss           0x00000000        0x0 build/default/debug/_ext/1128951024/event_groups.o

.data%z148      0x00000000        0x0
 .data          0x00000000        0x0 build/default/debug/_ext/1128951024/event_groups.o

.data%z149      0x00000000        0x0
 .data          0x00000000        0x0 build/default/debug/_ext/1128951024/timers.o

.bss%z150       0x00000000        0x0
 .bss           0x00000000        0x0 build/default/debug/_ext/1128951024/tasks.o

.data%z151      0x00000000        0x0
 .data          0x00000000        0x0 build/default/debug/_ext/1128951024/tasks.o

.bss%z152       0x00000000        0x0
 .bss           0x00000000        0x0 build/default/debug/_ext/1128951024/queue.o

.data%z153      0x00000000        0x0
 .data          0x00000000        0x0 build/default/debug/_ext/1128951024/queue.o

.bss%z154       0x00000000        0x0
 .bss           0x00000000        0x0 build/default/debug/_ext/1128951024/list.o

.data%z155      0x00000000        0x0
 .data          0x00000000        0x0 build/default/debug/_ext/1128951024/list.o

.bss%z156       0x00000000        0x0
 .bss           0x00000000        0x0 build/default/debug/_ext/1128951024/croutine.o

.data%z157      0x00000000        0x0
 .data          0x00000000        0x0 build/default/debug/_ext/1128951024/croutine.o

.bss%z158       0x00000000        0x0
 .bss           0x00000000        0x0 build/default/debug/_ext/12131622/port_asm.o

.data%z159      0x00000000        0x0
 .data          0x00000000        0x0 build/default/debug/_ext/12131622/port_asm.o

.data%z160      0x00000000        0x0
 .data          0x00000000        0x0 build/default/debug/_ext/12131622/port.o

.data%z161      0x00000000        0x0
 .data          0x00000000        0x0 build/default/debug/_ext/1856876499/heap_1.o

.bss%z162       0x00000000        0x0
 .bss           0x00000000        0x0 build/default/debug/_ext/122796885/sys_int_pic32.o

.data%z163      0x00000000        0x0
 .data          0x00000000        0x0 build/default/debug/_ext/122796885/sys_int_pic32.o

.bss%z164       0x00000000        0x0
 .bss           0x00000000        0x0 build/default/debug/_ext/24337685/osal_freertos.o

.data%z165      0x00000000        0x0
 .data          0x00000000        0x0 build/default/debug/_ext/24337685/osal_freertos.o

.bss%z166       0x00000000        0x0
 .bss           0x00000000        0x0 build/default/debug/_ext/1360937237/statemachine.o

.data%z167      0x00000000        0x0
 .data          0x00000000        0x0 build/default/debug/_ext/1360937237/statemachine.o

.bss%z168       0x00000000        0x0
 .bss           0x00000000        0x0 build/default/debug/_ext/1360937237/jsmn.o

.data%z169      0x00000000        0x0
 .data          0x00000000        0x0 build/default/debug/_ext/1360937237/jsmn.o

.bss%z170       0x00000000        0x0
 .bss           0x00000000        0x0 build/default/debug/_ext/1360937237/main.o

.data%z171      0x00000000        0x0
 .data          0x00000000        0x0 build/default/debug/_ext/1360937237/main.o

.bss%z172       0x00000000        0x0
 .bss           0x00000000        0x0 build/default/debug/_ext/1360937237/Control.o

.data%z173      0x00000000        0x0
 .data          0x00000000        0x0 build/default/debug/_ext/1360937237/Control.o

.bss%z174       0x00000000        0x0
 .bss           0x00000000        0x0 build/default/debug/_ext/1360937237/motor_encoder_thread.o

.bss%z175       0x00000000        0x0
 .bss           0x00000000        0x0 build/default/debug/_ext/1360937237/WiFiTransmit.o

.data%z176      0x00000000        0x0
 .data          0x00000000        0x0 build/default/debug/_ext/1360937237/WiFiTransmit.o

.data%z177      0x00000000        0x0
 .data          0x00000000        0x0 build/default/debug/_ext/1360937237/WiFiReceive.o

.bss%z178       0x00000000        0x0
 .bss           0x00000000        0x0 build/default/debug/_ext/1688732426/rtos_hooks.o

.data%z179      0x00000000        0x0
 .data          0x00000000        0x0 build/default/debug/_ext/1688732426/rtos_hooks.o

.bss%z180       0x00000000        0x0
 .bss           0x00000000        0x0 build/default/debug/_ext/1688732426/system_interrupt_a.o

.data%z181      0x00000000        0x0
 .data          0x00000000        0x0 build/default/debug/_ext/1688732426/system_interrupt_a.o

.bss%z182       0x00000000        0x0
 .bss           0x00000000        0x0 build/default/debug/_ext/1688732426/system_tasks.o

.data%z183      0x00000000        0x0
 .data          0x00000000        0x0 build/default/debug/_ext/1688732426/system_tasks.o

.bss%z184       0x00000000        0x0
 .bss           0x00000000        0x0 build/default/debug/_ext/1688732426/system_exceptions.o

.data%z185      0x00000000        0x0
 .data          0x00000000        0x0 build/default/debug/_ext/1688732426/system_exceptions.o

.bss%z186       0x00000000        0x0
 .bss           0x00000000        0x0 build/default/debug/_ext/1688732426/system_interrupt.o

.data%z187      0x00000000        0x0
 .data          0x00000000        0x0 build/default/debug/_ext/1688732426/system_interrupt.o

.bss%z188       0x00000000        0x0
 .bss           0x00000000        0x0 build/default/debug/_ext/1688732426/system_init.o

.data%z189      0x00000000        0x0
 .data          0x00000000        0x0 build/default/debug/_ext/1688732426/system_init.o

.bss%z190       0x00000000        0x0
 .bss           0x00000000        0x0 build/default/debug/_ext/822048611/sys_ports_static.o

.data%z191      0x00000000        0x0
 .data          0x00000000        0x0 build/default/debug/_ext/822048611/sys_ports_static.o

.bss%z192       0x00000000        0x0
 .bss           0x00000000        0x0 build/default/debug/_ext/340578644/sys_devcon_pic32mx.o

.data%z193      0x00000000        0x0
 .data          0x00000000        0x0 build/default/debug/_ext/340578644/sys_devcon_pic32mx.o

.bss%z194       0x00000000        0x0
 .bss           0x00000000        0x0 build/default/debug/_ext/340578644/sys_devcon.o

.data%z195      0x00000000        0x0
 .data          0x00000000        0x0 build/default/debug/_ext/340578644/sys_devcon.o

.bss%z196       0x00000000        0x0
 .bss           0x00000000        0x0 build/default/debug/_ext/639803181/sys_clk_pic32mx.o

.data%z197      0x00000000        0x0
 .data          0x00000000        0x0 build/default/debug/_ext/639803181/sys_clk_pic32mx.o

.bss%z198       0x00000000        0x0
 .bss           0x00000000        0x0 build/default/debug/_ext/327000265/drv_usart_static_byte_model.o

.data%z199      0x00000000        0x0
 .data          0x00000000        0x0 build/default/debug/_ext/327000265/drv_usart_static_byte_model.o

.bss%z200       0x00000000        0x0
 .bss           0x00000000        0x0 build/default/debug/_ext/327000265/drv_usart_static.o

.data%z201      0x00000000        0x0
 .data          0x00000000        0x0 build/default/debug/_ext/327000265/drv_usart_static.o

.bss%z202       0x00000000        0x0
 .bss           0x00000000        0x0 build/default/debug/_ext/327000265/drv_usart_mapping.o

.data%z203      0x00000000        0x0
 .data          0x00000000        0x0 build/default/debug/_ext/327000265/drv_usart_mapping.o

.bss%z204       0x00000000        0x0
 .bss           0x00000000        0x0 build/default/debug/_ext/1407244131/drv_tmr_mapping.o

.data%z205      0x00000000        0x0
 .data          0x00000000        0x0 build/default/debug/_ext/1407244131/drv_tmr_mapping.o

.bss%z206       0x00000000        0x0
 .bss           0x00000000        0x0 build/default/debug/_ext/1407244131/drv_tmr_static.o

.data%z207      0x00000000        0x0
 .data          0x00000000        0x0 build/default/debug/_ext/1407244131/drv_tmr_static.o

.bss%z208       0x00000000        0x0
 .bss           0x00000000        0x0 build/default/debug/_ext/1047219354/drv_oc_static.o

.data%z209      0x00000000        0x0
 .data          0x00000000        0x0 build/default/debug/_ext/1047219354/drv_oc_static.o

.bss%z210       0x00000000        0x0
 .bss           0x00000000        0x0 build/default/debug/_ext/1047219354/drv_oc_mapping.o

.data%z211      0x00000000        0x0
 .data          0x00000000        0x0 build/default/debug/_ext/1047219354/drv_oc_mapping.o

.bss%z212       0x00000000        0x0
 .bss           0x00000000        0x0 build/default/debug/_ext/1361460060/drv_adc_static.o

.data%z213      0x00000000        0x0
 .data          0x00000000        0x0 build/default/debug/_ext/1361460060/drv_adc_static.o

.bss%z214       0x00000000        0x0
 .bss           0x00000000        0x0 c:/program files (x86)/microchip/xc32/v1.44/bin/bin/../../lib/gcc/pic32mx/4.8.3/../../../../pic32mx/lib\software-debug-break.o

.data%z215      0x00000000        0x0
 .data          0x00000000        0x0 c:/program files (x86)/microchip/xc32/v1.44/bin/bin/../../lib/gcc/pic32mx/4.8.3/../../../../pic32mx/lib\software-debug-break.o

.bss%z216       0x00000000        0x0
 .bss           0x00000000        0x0 c:/program files (x86)/microchip/xc32/v1.44/bin/bin/../../lib/gcc/pic32mx/4.8.3/../../../../pic32mx/lib/./proc/32MX795F512L/crt0_mips32r2.o

.data%z217      0x00000000        0x0
 .data          0x00000000        0x0 c:/program files (x86)/microchip/xc32/v1.44/bin/bin/../../lib/gcc/pic32mx/4.8.3/../../../../pic32mx/lib/./proc/32MX795F512L/crt0_mips32r2.o

.text._vfprintf_cdnopuxX
                0x9d000000      0xc8c
 .text._vfprintf_cdnopuxX
                0x9d000000      0xc8c c:/program files (x86)/microchip/xc32/v1.44/bin/bin/../../lib/gcc/pic32mx/4.8.3/../../../../pic32mx/lib\libc.a(doprnt_cdnopuxX.eo)
                0x9d000000                _vfprintf_cdnopuxX

.text.jsmn_parse
                0x9d000c8c      0x844
 .text.jsmn_parse
                0x9d000c8c      0x844 build/default/debug/_ext/1360937237/jsmn.o
                0x9d000c8c                jsmn_parse

.text           0x9d0014d0      0x8bc
 .text          0x9d0014d0      0x464 c:/program files (x86)/microchip/xc32/v1.44/bin/bin/../../lib/gcc/pic32mx/4.8.3\libgcc.a(_umoddi3.o)
                0x9d0014d0                __umoddi3
 .text          0x9d001934      0x458 c:/program files (x86)/microchip/xc32/v1.44/bin/bin/../../lib/gcc/pic32mx/4.8.3\libgcc.a(_udivdi3.o)
                0x9d001934                __udivdi3

.text           0x9d001d8c      0x454
 .text          0x9d001d8c      0x454 build/default/debug/_ext/12131622/port_asm.o
                0x9d001d8c                vPortTickInterruptHandler
                0x9d001f38                vPortStartFirstTask
                0x9d002000                vPortYieldISR

.text.fpsubadd  0x9d0021e0      0x278
 .text.fpsubadd
                0x9d0021e0      0x278 c:/program files (x86)/microchip/xc32/v1.44/bin/bin/../../lib/gcc/pic32mx/4.8.3/../../../../pic32mx/lib\libm.a(fp32subadd.o)
                0x9d0021e0                __subsf3
                0x9d0021e0                fpsub
                0x9d0021e8                __addsf3
                0x9d0021e8                fpadd

.text.prvTimerTask
                0x9d002458      0x274
 .text.prvTimerTask
                0x9d002458      0x274 build/default/debug/_ext/1128951024/timers.o

.text.xQueueGenericReceive
                0x9d0026cc      0x264
 .text.xQueueGenericReceive
                0x9d0026cc      0x264 build/default/debug/_ext/1128951024/queue.o
                0x9d0026cc                xQueueGenericReceive

.text.fp32div   0x9d002930      0x230
 .text.fp32div  0x9d002930      0x230 c:/program files (x86)/microchip/xc32/v1.44/bin/bin/../../lib/gcc/pic32mx/4.8.3/../../../../pic32mx/lib\libm.a(fp32div.o)
                0x9d002930                fpdiv
                0x9d002930                __divsf3

.text.xQueueGenericSend
                0x9d002b60      0x20c
 .text.xQueueGenericSend
                0x9d002b60      0x20c build/default/debug/_ext/1128951024/queue.o
                0x9d002b60                xQueueGenericSend

.dinit          0x9d002d6c      0x200
 .dinit         0x9d002d6c      0x200 data_init

.text.ParseJson
                0x9d002f6c      0x1e4
 .text.ParseJson
                0x9d002f6c      0x1e4 build/default/debug/_ext/1360937237/WiFiReceive.o
                0x9d002f6c                ParseJson

.text.fp32mul   0x9d003150      0x1bc
 .text.fp32mul  0x9d003150      0x1bc c:/program files (x86)/microchip/xc32/v1.44/bin/bin/../../lib/gcc/pic32mx/4.8.3/../../../../pic32mx/lib\libm.a(fp32mul.o)
                0x9d003150                __mulsf3
                0x9d003150                fpmul

.ExternalInterruptInstance0_vector_text
                0x9d00330c      0x1b4
 .ExternalInterruptInstance0_vector_text
                0x9d00330c      0x1b4 build/default/debug/_ext/1688732426/system_interrupt_a.o

.ExternalInterruptInstance1_vector_text
                0x9d0034c0      0x1b4
 .ExternalInterruptInstance1_vector_text
                0x9d0034c0      0x1b4 build/default/debug/_ext/1688732426/system_interrupt_a.o

.DrvTmrInstance0_vector_text
                0x9d003674      0x1b4
 .DrvTmrInstance0_vector_text
                0x9d003674      0x1b4 build/default/debug/_ext/1688732426/system_interrupt_a.o

.DrvTmrInstance1_vector_text
                0x9d003828      0x1b4
 .DrvTmrInstance1_vector_text
                0x9d003828      0x1b4 build/default/debug/_ext/1688732426/system_interrupt_a.o

.DrvTmrInstance2_vector_text
                0x9d0039dc      0x1b4
 .DrvTmrInstance2_vector_text
                0x9d0039dc      0x1b4 build/default/debug/_ext/1688732426/system_interrupt_a.o

.DrvTmrInstance3_vector_text
                0x9d003b90      0x1b4
 .DrvTmrInstance3_vector_text
                0x9d003b90      0x1b4 build/default/debug/_ext/1688732426/system_interrupt_a.o

.DrvUsartInstance0_vector_text
                0x9d003d44      0x1b4
 .DrvUsartInstance0_vector_text
                0x9d003d44      0x1b4 build/default/debug/_ext/1688732426/system_interrupt_a.o

.text.xTaskGenericNotifyFromISR
                0x9d003ef8      0x1a8
 .text.xTaskGenericNotifyFromISR
                0x9d003ef8      0x1a8 build/default/debug/_ext/1128951024/tasks.o
                0x9d003ef8                xTaskGenericNotifyFromISR

.text.WIFIRECEIVE_Tasks
                0x9d0040a0      0x1a4
 .text.WIFIRECEIVE_Tasks
                0x9d0040a0      0x1a4 build/default/debug/_ext/1360937237/WiFiReceive.o
                0x9d0040a0                WIFIRECEIVE_Tasks

.text.SYS_Initialize
                0x9d004244      0x19c
 .text.SYS_Initialize
                0x9d004244      0x19c build/default/debug/_ext/1688732426/system_init.o
                0x9d004244                SYS_Initialize

.text.xTaskIncrementTick
                0x9d0043e0      0x198
 .text.xTaskIncrementTick
                0x9d0043e0      0x198 build/default/debug/_ext/1128951024/tasks.o
                0x9d0043e0                xTaskIncrementTick

.text.DRV_USART0_Initialize
                0x9d004578      0x190
 .text.DRV_USART0_Initialize
                0x9d004578      0x190 build/default/debug/_ext/327000265/drv_usart_static.o
                0x9d004578                DRV_USART0_Initialize

.text.CONTROL_Tasks
                0x9d004708      0x174
 .text.CONTROL_Tasks
                0x9d004708      0x174 build/default/debug/_ext/1360937237/Control.o
                0x9d004708                CONTROL_Tasks

.text.xTaskGenericNotify
                0x9d00487c      0x170
 .text.xTaskGenericNotify
                0x9d00487c      0x170 build/default/debug/_ext/1128951024/tasks.o
                0x9d00487c                xTaskGenericNotify

.text.Left_PID_module
                0x9d0049ec      0x16c
 .text.Left_PID_module
                0x9d0049ec      0x16c build/default/debug/_ext/1360937237/motor_encoder_thread.o
                0x9d0049ec                Left_PID_module

.text.Right_PID_module
                0x9d004b58      0x16c
 .text.Right_PID_module
                0x9d004b58      0x16c build/default/debug/_ext/1360937237/motor_encoder_thread.o
                0x9d004b58                Right_PID_module

.text           0x9d004cc4      0x2d0
 .text          0x9d004cc4      0x168 c:/program files (x86)/microchip/xc32/v1.44/bin/bin/../../lib/gcc/pic32mx/4.8.3/../../../../pic32mx/lib\libpic32.a(memcpy.o)
                0x9d004cc4                memcpy
 .text          0x9d004e2c      0x168 c:/program files (x86)/microchip/xc32/v1.44/bin/bin/../../lib/gcc/pic32mx/4.8.3/../../../../pic32mx/lib\libpic32.a(strlen.o)
                0x9d004e2c                strlen

.text.vTaskPrioritySet
                0x9d004f94      0x15c
 .text.vTaskPrioritySet
                0x9d004f94      0x15c build/default/debug/_ext/1128951024/tasks.o
                0x9d004f94                vTaskPrioritySet

.text._state_machine_wait_for_start
                0x9d0050f0      0x154
 .text._state_machine_wait_for_start
                0x9d0050f0      0x154 build/default/debug/_ext/1360937237/statemachine.o
                0x9d0050f0                _state_machine_wait_for_start

.text.cipango_state
                0x9d005244      0x154
 .text.cipango_state
                0x9d005244      0x154 build/default/debug/_ext/1360937237/statemachine.o
                0x9d005244                cipango_state

.text.WIFITRANSMIT_Tasks
                0x9d005398      0x148
 .text.WIFITRANSMIT_Tasks
                0x9d005398      0x148 build/default/debug/_ext/1360937237/WiFiTransmit.o
                0x9d005398                WIFITRANSMIT_Tasks

.text.xTaskResumeAll
                0x9d0054e0      0x148
 .text.xTaskResumeAll
                0x9d0054e0      0x148 build/default/debug/_ext/1128951024/tasks.o
                0x9d0054e0                xTaskResumeAll

.text.xEventGroupWaitBits
                0x9d005628      0x148
 .text.xEventGroupWaitBits
                0x9d005628      0x148 build/default/debug/_ext/1128951024/event_groups.o
                0x9d005628                xEventGroupWaitBits

.text.fputc     0x9d005770      0x144
 .text.fputc    0x9d005770      0x144 c:/program files (x86)/microchip/xc32/v1.44/bin/bin/../../lib/gcc/pic32mx/4.8.3/../../../../pic32mx/lib\libc.a(_fputc_simple.o)
                0x9d005770                fputc

.text.vTaskSuspend
                0x9d0058b4      0x130
 .text.vTaskSuspend
                0x9d0058b4      0x130 build/default/debug/_ext/1128951024/tasks.o
                0x9d0058b4                vTaskSuspend

.text.prvInitialiseNewTask
                0x9d0059e4      0x12c
 .text.prvInitialiseNewTask
                0x9d0059e4      0x12c build/default/debug/_ext/1128951024/tasks.o
                0x9d0059e4                prvInitialiseNewTask

.text.vTaskPriorityInherit
                0x9d005b10      0x12c
 .text.vTaskPriorityInherit
                0x9d005b10      0x12c build/default/debug/_ext/1128951024/tasks.o
                0x9d005b10                vTaskPriorityInherit

.text._flsbuf   0x9d005c3c      0x12c
 .text._flsbuf  0x9d005c3c      0x12c c:/program files (x86)/microchip/xc32/v1.44/bin/bin/../../lib/gcc/pic32mx/4.8.3/../../../../pic32mx/lib\libc.a(_flsbuf_simple.o)
                0x9d005c3c                _flsbuf

.rodata         0x9d005d68      0x128
 .rodata        0x9d005d68      0x128 build/default/debug/_ext/1688732426/system_exceptions.o

.text._state_machine_arrive_at_crane
                0x9d005e90      0x120
 .text._state_machine_arrive_at_crane
                0x9d005e90      0x120 build/default/debug/_ext/1360937237/statemachine.o
                0x9d005e90                _state_machine_arrive_at_crane

.text.vTaskDelete
                0x9d005fb0      0x120
 .text.vTaskDelete
                0x9d005fb0      0x120 build/default/debug/_ext/1128951024/tasks.o
                0x9d005fb0                vTaskDelete

.text._state_machine_travel_to_lori
                0x9d0060d0      0x11c
 .text._state_machine_travel_to_lori
                0x9d0060d0      0x11c build/default/debug/_ext/1360937237/statemachine.o
                0x9d0060d0                _state_machine_travel_to_lori

.text._state_machine_arrive_at_lori
                0x9d0061ec      0x11c
 .text._state_machine_arrive_at_lori
                0x9d0061ec      0x11c build/default/debug/_ext/1360937237/statemachine.o
                0x9d0061ec                _state_machine_arrive_at_lori

.text._state_machine_travel_to_crane
                0x9d006308      0x118
 .text._state_machine_travel_to_crane
                0x9d006308      0x118 build/default/debug/_ext/1360937237/statemachine.o
                0x9d006308                _state_machine_travel_to_crane

.text.xEventGroupSync
                0x9d006420      0x110
 .text.xEventGroupSync
                0x9d006420      0x110 build/default/debug/_ext/1128951024/event_groups.o
                0x9d006420                xEventGroupSync

.text._state_machine_wait_for_lori
                0x9d006530      0x108
 .text._state_machine_wait_for_lori
                0x9d006530      0x108 build/default/debug/_ext/1360937237/statemachine.o
                0x9d006530                _state_machine_wait_for_lori

.text.xTaskNotifyWait
                0x9d006638      0x108
 .text.xTaskNotifyWait
                0x9d006638      0x108 build/default/debug/_ext/1128951024/tasks.o
                0x9d006638                xTaskNotifyWait

.text._state_machine_wait_for_crane
                0x9d006740      0x104
 .text._state_machine_wait_for_crane
                0x9d006740      0x104 build/default/debug/_ext/1360937237/statemachine.o
                0x9d006740                _state_machine_wait_for_crane

.text.prvAddNewTaskToReadyList
                0x9d006844      0x104
 .text.prvAddNewTaskToReadyList
                0x9d006844      0x104 build/default/debug/_ext/1128951024/tasks.o
                0x9d006844                prvAddNewTaskToReadyList

.text.vTaskNotifyGiveFromISR
                0x9d006948      0x104
 .text.vTaskNotifyGiveFromISR
                0x9d006948      0x104 build/default/debug/_ext/1128951024/tasks.o
                0x9d006948                vTaskNotifyGiveFromISR

.text.prvSampleTimeNow
                0x9d006a4c      0x104
 .text.prvSampleTimeNow
                0x9d006a4c      0x104 build/default/debug/_ext/1128951024/timers.o

.rodata         0x9d006b50      0x104
 .rodata        0x9d006b50      0x104 c:/program files (x86)/microchip/xc32/v1.44/bin/bin/../../lib/gcc/pic32mx/4.8.3/../../../../pic32mx/lib\libc.a(ctype.o)
                0x9d006b50                _ctype

.text.prvUnlockQueue
                0x9d006c54       0xfc
 .text.prvUnlockQueue
                0x9d006c54       0xfc build/default/debug/_ext/1128951024/queue.o

.text.xEventGroupSetBits
                0x9d006d50       0xfc
 .text.xEventGroupSetBits
                0x9d006d50       0xfc build/default/debug/_ext/1128951024/event_groups.o
                0x9d006d50                xEventGroupSetBits

.text.xTaskPriorityDisinherit
                0x9d006e4c       0xf8
 .text.xTaskPriorityDisinherit
                0x9d006e4c       0xf8 build/default/debug/_ext/1128951024/tasks.o
                0x9d006e4c                xTaskPriorityDisinherit

.text.prvCopyDataToQueue
                0x9d006f44       0xf4
 .text.prvCopyDataToQueue
                0x9d006f44       0xf4 build/default/debug/_ext/1128951024/queue.o

.text.DRV_USART0_BaudSet
                0x9d007038       0xf0
 .text.DRV_USART0_BaudSet
                0x9d007038       0xf0 build/default/debug/_ext/327000265/drv_usart_static.o
                0x9d007038                DRV_USART0_BaudSet

.text.xQueueGenericSendFromISR
                0x9d007128       0xf0
 .text.xQueueGenericSendFromISR
                0x9d007128       0xf0 build/default/debug/_ext/1128951024/queue.o
                0x9d007128                xQueueGenericSendFromISR

.text.prvAddCurrentTaskToDelayedList
                0x9d007218       0xe4
 .text.prvAddCurrentTaskToDelayedList
                0x9d007218       0xe4 build/default/debug/_ext/1128951024/tasks.o
                0x9d007218                prvAddCurrentTaskToDelayedList

.text.SYS_DEVCON_PerformanceConfig
                0x9d0072fc       0xe0
 .text.SYS_DEVCON_PerformanceConfig
                0x9d0072fc       0xe0 build/default/debug/_ext/340578644/sys_devcon_pic32mx.o
                0x9d0072fc                SYS_DEVCON_PerformanceConfig

.text.xQueueReceiveFromISR
                0x9d0073dc       0xe0
 .text.xQueueReceiveFromISR
                0x9d0073dc       0xe0 build/default/debug/_ext/1128951024/queue.o
                0x9d0073dc                xQueueReceiveFromISR

.text.vTaskSwitchContext
                0x9d0074bc       0xe0
 .text.vTaskSwitchContext
                0x9d0074bc       0xe0 build/default/debug/_ext/1128951024/tasks.o
                0x9d0074bc                vTaskSwitchContext

.text.SYS_Tasks
                0x9d00759c       0xdc
 .text.SYS_Tasks
                0x9d00759c       0xdc build/default/debug/_ext/1688732426/system_tasks.o
                0x9d00759c                SYS_Tasks

.text.general_exception
                0x9d007678       0xdc
 .text.general_exception
                0x9d007678       0xdc c:/program files (x86)/microchip/xc32/v1.44/bin/bin/../../lib/gcc/pic32mx/4.8.3/../../../../pic32mx/lib\libpic32.a(general-exception.o)
                0x9d007678                _general_exception_context

.text.xTaskResumeFromISR
                0x9d007754       0xd8
 .text.xTaskResumeFromISR
                0x9d007754       0xd8 build/default/debug/_ext/1128951024/tasks.o
                0x9d007754                xTaskResumeFromISR

.text._mon_putc
                0x9d00782c       0xd4
 .text._mon_putc
                0x9d00782c       0xd4 c:/program files (x86)/microchip/xc32/v1.44/bin/bin/../../lib/gcc/pic32mx/4.8.3/../../../../pic32mx/lib\libpic32.a(_mon_putc.o)
                0x9d00782c                _mon_putc

.rodata         0x9d007900       0xd0
 .rodata        0x9d007900       0xd0 c:/program files (x86)/microchip/xc32/v1.44/bin/bin/../../lib/gcc/pic32mx/4.8.3/../../../../pic32mx/lib\libc.a(doprnt_cdnopuxX.eo)

.text.DRV_ADC_Initialize
                0x9d0079d0       0xc4
 .text.DRV_ADC_Initialize
                0x9d0079d0       0xc4 build/default/debug/_ext/1361460060/drv_adc_static.o
                0x9d0079d0                DRV_ADC_Initialize

.text.ulTaskNotifyTake
                0x9d007a94       0xc4
 .text.ulTaskNotifyTake
                0x9d007a94       0xc4 build/default/debug/_ext/1128951024/tasks.o
                0x9d007a94                ulTaskNotifyTake

.text.xQueueGenericReset
                0x9d007b58       0xc0
 .text.xQueueGenericReset
                0x9d007b58       0xc0 build/default/debug/_ext/1128951024/queue.o
                0x9d007b58                xQueueGenericReset

.text.xQueueGiveFromISR
                0x9d007c18       0xc0
 .text.xQueueGiveFromISR
                0x9d007c18       0xc0 build/default/debug/_ext/1128951024/queue.o
                0x9d007c18                xQueueGiveFromISR

.text.xTaskCreate
                0x9d007cd8       0xc0
 .text.xTaskCreate
                0x9d007cd8       0xc0 build/default/debug/_ext/1128951024/tasks.o
                0x9d007cd8                xTaskCreate

.text.vTaskResume
                0x9d007d98       0xc0
 .text.vTaskResume
                0x9d007d98       0xc0 build/default/debug/_ext/1128951024/tasks.o
                0x9d007d98                vTaskResume

.text.xTaskRemoveFromEventList
                0x9d007e58       0xbc
 .text.xTaskRemoveFromEventList
                0x9d007e58       0xbc build/default/debug/_ext/1128951024/tasks.o
                0x9d007e58                xTaskRemoveFromEventList

.text.pvPortMalloc
                0x9d007f14       0xb8
 .text.pvPortMalloc
                0x9d007f14       0xb8 build/default/debug/_ext/1856876499/heap_1.o
                0x9d007f14                pvPortMalloc

.text.DRV_TMR0_ClockSet
                0x9d007fcc       0xb4
 .text.DRV_TMR0_ClockSet
                0x9d007fcc       0xb4 build/default/debug/_ext/1407244131/drv_tmr_static.o
                0x9d007fcc                DRV_TMR0_ClockSet

.text.DRV_TMR1_ClockSet
                0x9d008080       0xb4
 .text.DRV_TMR1_ClockSet
                0x9d008080       0xb4 build/default/debug/_ext/1407244131/drv_tmr_static.o
                0x9d008080                DRV_TMR1_ClockSet

.text.DRV_TMR2_ClockSet
                0x9d008134       0xb4
 .text.DRV_TMR2_ClockSet
                0x9d008134       0xb4 build/default/debug/_ext/1407244131/drv_tmr_static.o
                0x9d008134                DRV_TMR2_ClockSet

.text.DRV_TMR3_ClockSet
                0x9d0081e8       0xb4
 .text.DRV_TMR3_ClockSet
                0x9d0081e8       0xb4 build/default/debug/_ext/1407244131/drv_tmr_static.o
                0x9d0081e8                DRV_TMR3_ClockSet

.text._DRV_TMR_ClockSourceSet
                0x9d00829c       0xa8
 .text._DRV_TMR_ClockSourceSet
                0x9d00829c       0xa8 build/default/debug/_ext/1407244131/drv_tmr_static.o

.text.SYS_PORTS_Initialize
                0x9d008344       0xa8
 .text.SYS_PORTS_Initialize
                0x9d008344       0xa8 build/default/debug/_ext/822048611/sys_ports_static.o
                0x9d008344                SYS_PORTS_Initialize

.text.vTaskDelayUntil
                0x9d0083ec       0xa8
 .text.vTaskDelayUntil
                0x9d0083ec       0xa8 build/default/debug/_ext/1128951024/tasks.o
                0x9d0083ec                vTaskDelayUntil

.text           0x9d008494       0xa8
 .text          0x9d008494       0xa8 c:/program files (x86)/microchip/xc32/v1.44/bin/bin/../../lib/gcc/pic32mx/4.8.3/../../../../pic32mx/lib\libpic32.a(memset.o)
                0x9d008494                memset

.text.atoi      0x9d00853c       0xa8
 .text.atoi     0x9d00853c       0xa8 c:/program files (x86)/microchip/xc32/v1.44/bin/bin/../../lib/gcc/pic32mx/4.8.3/../../../../pic32mx/lib\libc.a(atoi.o)
                0x9d00853c                atoi

.text.DRV_TMR0_PrescalerGet
                0x9d0085e4       0xa4
 .text.DRV_TMR0_PrescalerGet
                0x9d0085e4       0xa4 build/default/debug/_ext/1407244131/drv_tmr_static.o
                0x9d0085e4                DRV_TMR0_PrescalerGet

.text.DRV_TMR1_PrescalerGet
                0x9d008688       0xa4
 .text.DRV_TMR1_PrescalerGet
                0x9d008688       0xa4 build/default/debug/_ext/1407244131/drv_tmr_static.o
                0x9d008688                DRV_TMR1_PrescalerGet

.text.DRV_TMR2_PrescalerGet
                0x9d00872c       0xa4
 .text.DRV_TMR2_PrescalerGet
                0x9d00872c       0xa4 build/default/debug/_ext/1407244131/drv_tmr_static.o
                0x9d00872c                DRV_TMR2_PrescalerGet

.text.DRV_TMR3_PrescalerGet
                0x9d0087d0       0xa4
 .text.DRV_TMR3_PrescalerGet
                0x9d0087d0       0xa4 build/default/debug/_ext/1407244131/drv_tmr_static.o
                0x9d0087d0                DRV_TMR3_PrescalerGet

.text.xTaskCheckForTimeOut
                0x9d008874       0xa0
 .text.xTaskCheckForTimeOut
                0x9d008874       0xa0 build/default/debug/_ext/1128951024/tasks.o
                0x9d008874                xTaskCheckForTimeOut

.text.JsonToString
                0x9d008914       0x9c
 .text.JsonToString
                0x9d008914       0x9c build/default/debug/_ext/1360937237/WiFiTransmit.o
                0x9d008914                JsonToString

.text.xTaskRemoveFromUnorderedEventList
                0x9d0089b0       0x9c
 .text.xTaskRemoveFromUnorderedEventList
                0x9d0089b0       0x9c build/default/debug/_ext/1128951024/tasks.o
                0x9d0089b0                xTaskRemoveFromUnorderedEventList

.text.fpcmp     0x9d008a4c       0x9c
 .text.fpcmp    0x9d008a4c       0x9c c:/program files (x86)/microchip/xc32/v1.44/bin/bin/../../lib/gcc/pic32mx/4.8.3/../../../../pic32mx/lib\libm.a(fpcmp.o)
                0x9d008a4c                __eqsf2
                0x9d008a4c                __lesf2
                0x9d008a4c                __gtsf2
                0x9d008a4c                __nesf2
                0x9d008a4c                fpcmp
                0x9d008a4c                __gesf2
                0x9d008a4c                __ltsf2

.text.write     0x9d008ae8       0x9c
 .text.write    0x9d008ae8       0x9c c:/program files (x86)/microchip/xc32/v1.44/bin/bin/../../lib/gcc/pic32mx/4.8.3/../../../../pic32mx/lib\libpic32.a(write.o)
                0x9d008ae8                write

.text.DRV_OC_Initialize
                0x9d008b84       0x94
 .text.DRV_OC_Initialize
                0x9d008b84       0x94 build/default/debug/_ext/1047219354/drv_oc_mapping.o
                0x9d008b84                DRV_OC_Initialize

.text.DRV_OC_Start
                0x9d008c18       0x94
 .text.DRV_OC_Start
                0x9d008c18       0x94 build/default/debug/_ext/1047219354/drv_oc_mapping.o
                0x9d008c18                DRV_OC_Start

.text.MOTOR_ENCODER_THREAD_Tasks
                0x9d008cac       0x94
 .text.MOTOR_ENCODER_THREAD_Tasks
                0x9d008cac       0x94 build/default/debug/_ext/1360937237/motor_encoder_thread.o
                0x9d008cac                MOTOR_ENCODER_THREAD_Tasks

.text.xQueueGenericCreate
                0x9d008d40       0x94
 .text.xQueueGenericCreate
                0x9d008d40       0x94 build/default/debug/_ext/1128951024/queue.o
                0x9d008d40                xQueueGenericCreate

.text.xTimerGenericCommand
                0x9d008dd4       0x94
 .text.xTimerGenericCommand
                0x9d008dd4       0x94 build/default/debug/_ext/1128951024/timers.o
                0x9d008dd4                xTimerGenericCommand

.text.CONTROL_Initialize
                0x9d008e68       0x90
 .text.CONTROL_Initialize
                0x9d008e68       0x90 build/default/debug/_ext/1360937237/Control.o
                0x9d008e68                CONTROL_Initialize

.text.prvInitialiseTaskLists
                0x9d008ef8       0x90
 .text.prvInitialiseTaskLists
                0x9d008ef8       0x90 build/default/debug/_ext/1128951024/tasks.o
                0x9d008ef8                prvInitialiseTaskLists

.text.prvCheckTasksWaitingTermination
                0x9d008f88       0x90
 .text.prvCheckTasksWaitingTermination
                0x9d008f88       0x90 build/default/debug/_ext/1128951024/tasks.o
                0x9d008f88                prvCheckTasksWaitingTermination

.text._state_machine_stop
                0x9d009018       0x8c
 .text._state_machine_stop
                0x9d009018       0x8c build/default/debug/_ext/1360937237/statemachine.o
                0x9d009018                _state_machine_stop

.text.OSAL_SEM_Create
                0x9d0090a4       0x8c
 .text.OSAL_SEM_Create
                0x9d0090a4       0x8c build/default/debug/_ext/24337685/osal_freertos.o
                0x9d0090a4                OSAL_SEM_Create

.text.vQueueWaitForMessageRestricted
                0x9d009130       0x8c
 .text.vQueueWaitForMessageRestricted
                0x9d009130       0x8c build/default/debug/_ext/1128951024/queue.o
                0x9d009130                vQueueWaitForMessageRestricted

.text.vTaskStartScheduler
                0x9d0091bc       0x8c
 .text.vTaskStartScheduler
                0x9d0091bc       0x8c build/default/debug/_ext/1128951024/tasks.o
                0x9d0091bc                vTaskStartScheduler

.text.DRV_TMR_ClockSet
                0x9d009248       0x88
 .text.DRV_TMR_ClockSet
                0x9d009248       0x88 build/default/debug/_ext/1407244131/drv_tmr_mapping.o
                0x9d009248                DRV_TMR_ClockSet

.text.xTimerCreate
                0x9d0092d0       0x88
 .text.xTimerCreate
                0x9d0092d0       0x88 build/default/debug/_ext/1128951024/timers.o
                0x9d0092d0                xTimerCreate

.text.DRV_OC_FaultHasOccurred
                0x9d009358       0x84
 .text.DRV_OC_FaultHasOccurred
                0x9d009358       0x84 build/default/debug/_ext/1047219354/drv_oc_mapping.o
                0x9d009358                DRV_OC_FaultHasOccurred

.text.DRV_TMR_ClientStatus
                0x9d0093dc       0x84
 .text.DRV_TMR_ClientStatus
                0x9d0093dc       0x84 build/default/debug/_ext/1407244131/drv_tmr_mapping.o
                0x9d0093dc                DRV_TMR_ClientStatus

.text.DRV_TMR_CounterValueGet
                0x9d009460       0x84
 .text.DRV_TMR_CounterValueGet
                0x9d009460       0x84 build/default/debug/_ext/1407244131/drv_tmr_mapping.o
                0x9d009460                DRV_TMR_CounterValueGet

.text.DRV_TMR_Start
                0x9d0094e4       0x84
 .text.DRV_TMR_Start
                0x9d0094e4       0x84 build/default/debug/_ext/1407244131/drv_tmr_mapping.o
                0x9d0094e4                DRV_TMR_Start

.text.DRV_TMR_PrescalerGet
                0x9d009568       0x84
 .text.DRV_TMR_PrescalerGet
                0x9d009568       0x84 build/default/debug/_ext/1407244131/drv_tmr_mapping.o
                0x9d009568                DRV_TMR_PrescalerGet

.text.DRV_TMR_CounterFrequencyGet
                0x9d0095ec       0x84
 .text.DRV_TMR_CounterFrequencyGet
                0x9d0095ec       0x84 build/default/debug/_ext/1407244131/drv_tmr_mapping.o
                0x9d0095ec                DRV_TMR_CounterFrequencyGet

.text.DRV_TMR_DividerRangeGet
                0x9d009670       0x84
 .text.DRV_TMR_DividerRangeGet
                0x9d009670       0x84 build/default/debug/_ext/1407244131/drv_tmr_mapping.o
                0x9d009670                DRV_TMR_DividerRangeGet

.text.jsoneq    0x9d0096f4       0x84
 .text.jsoneq   0x9d0096f4       0x84 build/default/debug/_ext/1360937237/WiFiReceive.o

.text.DRV_TMR_Initialize
                0x9d009778       0x80
 .text.DRV_TMR_Initialize
                0x9d009778       0x80 build/default/debug/_ext/1407244131/drv_tmr_mapping.o
                0x9d009778                DRV_TMR_Initialize

.text._DRV_USART0_ErrorConditionClear
                0x9d0097f8       0x80
 .text._DRV_USART0_ErrorConditionClear
                0x9d0097f8       0x80 build/default/debug/_ext/327000265/drv_usart_static.o
                0x9d0097f8                _DRV_USART0_ErrorConditionClear

.text.fptoli    0x9d009878       0x80
 .text.fptoli   0x9d009878       0x80 c:/program files (x86)/microchip/xc32/v1.44/bin/bin/../../lib/gcc/pic32mx/4.8.3/../../../../pic32mx/lib\libm.a(fptoli.o)
                0x9d009878                fptoli
                0x9d009878                fptosi
                0x9d009878                __fixsfsi

.text.DRV_TMR0_Initialize
                0x9d0098f8       0x7c
 .text.DRV_TMR0_Initialize
                0x9d0098f8       0x7c build/default/debug/_ext/1407244131/drv_tmr_static.o
                0x9d0098f8                DRV_TMR0_Initialize

.text.DRV_TMR2_Initialize
                0x9d009974       0x78
 .text.DRV_TMR2_Initialize
                0x9d009974       0x78 build/default/debug/_ext/1407244131/drv_tmr_static.o
                0x9d009974                DRV_TMR2_Initialize

.text.DRV_OC_Stop
                0x9d0099ec       0x74
 .text.DRV_OC_Stop
                0x9d0099ec       0x74 build/default/debug/_ext/1047219354/drv_oc_mapping.o
                0x9d0099ec                DRV_OC_Stop

.text.DRV_OC_PulseWidthSet
                0x9d009a60       0x74
 .text.DRV_OC_PulseWidthSet
                0x9d009a60       0x74 build/default/debug/_ext/1047219354/drv_oc_mapping.o
                0x9d009a60                DRV_OC_PulseWidthSet

.text.DRV_TMR3_Initialize
                0x9d009ad4       0x74
 .text.DRV_TMR3_Initialize
                0x9d009ad4       0x74 build/default/debug/_ext/1407244131/drv_tmr_static.o
                0x9d009ad4                DRV_TMR3_Initialize

.text.DRV_TMR_Deinitialize
                0x9d009b48       0x74
 .text.DRV_TMR_Deinitialize
                0x9d009b48       0x74 build/default/debug/_ext/1407244131/drv_tmr_mapping.o
                0x9d009b48                DRV_TMR_Deinitialize

.text.DRV_TMR_Close
                0x9d009bbc       0x74
 .text.DRV_TMR_Close
                0x9d009bbc       0x74 build/default/debug/_ext/1407244131/drv_tmr_mapping.o
                0x9d009bbc                DRV_TMR_Close

.text.DRV_TMR_CounterValueSet
                0x9d009c30       0x74
 .text.DRV_TMR_CounterValueSet
                0x9d009c30       0x74 build/default/debug/_ext/1407244131/drv_tmr_mapping.o
                0x9d009c30                DRV_TMR_CounterValueSet

.text.DRV_TMR_CounterClear
                0x9d009ca4       0x74
 .text.DRV_TMR_CounterClear
                0x9d009ca4       0x74 build/default/debug/_ext/1407244131/drv_tmr_mapping.o
                0x9d009ca4                DRV_TMR_CounterClear

.text.DRV_TMR_Stop
                0x9d009d18       0x74
 .text.DRV_TMR_Stop
                0x9d009d18       0x74 build/default/debug/_ext/1407244131/drv_tmr_mapping.o
                0x9d009d18                DRV_TMR_Stop

.text.DRV_USART0_LineControlSet
                0x9d009d8c       0x74
 .text.DRV_USART0_LineControlSet
                0x9d009d8c       0x74 build/default/debug/_ext/327000265/drv_usart_static.o
                0x9d009d8c                DRV_USART0_LineControlSet

.text.xQueuePeekFromISR
                0x9d009e00       0x74
 .text.xQueuePeekFromISR
                0x9d009e00       0x74 build/default/debug/_ext/1128951024/queue.o
                0x9d009e00                xQueuePeekFromISR

.text.prvInsertTimerInActiveList
                0x9d009e74       0x74
 .text.prvInsertTimerInActiveList
                0x9d009e74       0x74 build/default/debug/_ext/1128951024/timers.o

.text.prvCheckForValidListAndQueue
                0x9d009ee8       0x74
 .text.prvCheckForValidListAndQueue
                0x9d009ee8       0x74 build/default/debug/_ext/1128951024/timers.o

.text.DRV_TMR1_Initialize
                0x9d009f5c       0x70
 .text.DRV_TMR1_Initialize
                0x9d009f5c       0x70 build/default/debug/_ext/1407244131/drv_tmr_static.o
                0x9d009f5c                DRV_TMR1_Initialize

.text.SendToTransmitQueue
                0x9d009fcc       0x70
 .text.SendToTransmitQueue
                0x9d009fcc       0x70 build/default/debug/_ext/1360937237/WiFiTransmit.o
                0x9d009fcc                SendToTransmitQueue

.text.strncmp   0x9d00a03c       0x70
 .text.strncmp  0x9d00a03c       0x70 c:/program files (x86)/microchip/xc32/v1.44/bin/bin/../../lib/gcc/pic32mx/4.8.3/../../../../pic32mx/lib\libc.a(strncmp.o)
                0x9d00a03c                strncmp

.text.ISR_UART_RECEIVE
                0x9d00a0ac       0x6c
 .text.ISR_UART_RECEIVE
                0x9d00a0ac       0x6c build/default/debug/_ext/1360937237/WiFiReceive.o
                0x9d00a0ac                ISR_UART_RECEIVE

.text.Dispatch  0x9d00a118       0x6c
 .text.Dispatch
                0x9d00a118       0x6c build/default/debug/_ext/1360937237/WiFiReceive.o
                0x9d00a118                Dispatch

.text.ISR_UART_TRANSMIT
                0x9d00a184       0x6c
 .text.ISR_UART_TRANSMIT
                0x9d00a184       0x6c build/default/debug/_ext/1360937237/WiFiTransmit.o
                0x9d00a184                ISR_UART_TRANSMIT

.text.vApplicationSetupTickTimerInterrupt
                0x9d00a1f0       0x6c
 .text.vApplicationSetupTickTimerInterrupt
                0x9d00a1f0       0x6c build/default/debug/_ext/12131622/port.o
                0x9d00a1f0                vApplicationSetupTickTimerInterrupt

.text.IntHandlerDrvUsartInstance0
                0x9d00a25c       0x68
 .text.IntHandlerDrvUsartInstance0
                0x9d00a25c       0x68 build/default/debug/_ext/1688732426/system_interrupt.o
                0x9d00a25c                IntHandlerDrvUsartInstance0

.text.MOTOR_ENCODER_THREAD_Initialize
                0x9d00a2c4       0x68
 .text.MOTOR_ENCODER_THREAD_Initialize
                0x9d00a2c4       0x68 build/default/debug/_ext/1360937237/motor_encoder_thread.o
                0x9d00a2c4                MOTOR_ENCODER_THREAD_Initialize

.text._sprintf_cdnopuxX
                0x9d00a32c       0x68
 .text._sprintf_cdnopuxX
                0x9d00a32c       0x68 c:/program files (x86)/microchip/xc32/v1.44/bin/bin/../../lib/gcc/pic32mx/4.8.3/../../../../pic32mx/lib\libc.a(sprintf_cdnopuxX.eo)
                0x9d00a32c                _sprintf_cdnopuxX

.text.DRV_USART0_WriteByte
                0x9d00a394       0x60
 .text.DRV_USART0_WriteByte
                0x9d00a394       0x60 build/default/debug/_ext/327000265/drv_usart_static_byte_model.o
                0x9d00a394                DRV_USART0_WriteByte

.text.SYS_PORTS_PinWrite
                0x9d00a3f4       0x60
 .text.SYS_PORTS_PinWrite
                0x9d00a3f4       0x60 build/default/debug/_ext/822048611/sys_ports_static.o
                0x9d00a3f4                SYS_PORTS_PinWrite

.text.SYS_PORTS_PinDirectionSelect
                0x9d00a454       0x60
 .text.SYS_PORTS_PinDirectionSelect
                0x9d00a454       0x60 build/default/debug/_ext/822048611/sys_ports_static.o
                0x9d00a454                SYS_PORTS_PinDirectionSelect

.rodata         0x9d00a4b4       0x60
 .rodata        0x9d00a4b4       0x60 build/default/debug/_ext/1688732426/system_tasks.o

.text.vTaskExitCritical
                0x9d00a514       0x60
 .text.vTaskExitCritical
                0x9d00a514       0x60 build/default/debug/_ext/1128951024/tasks.o
                0x9d00a514                vTaskExitCritical

.text.xTaskNotifyStateClear
                0x9d00a574       0x60
 .text.xTaskNotifyStateClear
                0x9d00a574       0x60 build/default/debug/_ext/1128951024/tasks.o
                0x9d00a574                xTaskNotifyStateClear

.text.sitofp    0x9d00a5d4       0x60
 .text.sitofp   0x9d00a5d4       0x60 c:/program files (x86)/microchip/xc32/v1.44/bin/bin/../../lib/gcc/pic32mx/4.8.3/../../../../pic32mx/lib\libm.a(sitofp.o)
                0x9d00a5d4                sitofp
                0x9d00a5d4                litofp
                0x9d00a5d4                __floatsisf

.text.xPortStartScheduler
                0x9d00a634       0x5c
 .text.xPortStartScheduler
                0x9d00a634       0x5c build/default/debug/_ext/12131622/port.o
                0x9d00a634                xPortStartScheduler

.text.vListInsert
                0x9d00a690       0x5c
 .text.vListInsert
                0x9d00a690       0x5c build/default/debug/_ext/1128951024/list.o
                0x9d00a690                vListInsert

.text.xTimerCreateTimerTask
                0x9d00a6ec       0x5c
 .text.xTimerCreateTimerTask
                0x9d00a6ec       0x5c build/default/debug/_ext/1128951024/timers.o
                0x9d00a6ec                xTimerCreateTimerTask

.text.SYS_DEVCON_SystemUnlock
                0x9d00a748       0x58
 .text.SYS_DEVCON_SystemUnlock
                0x9d00a748       0x58 build/default/debug/_ext/340578644/sys_devcon.o
                0x9d00a748                SYS_DEVCON_SystemUnlock

.text.WIFIRECEIVE_Initialize
                0x9d00a7a0       0x58
 .text.WIFIRECEIVE_Initialize
                0x9d00a7a0       0x58 build/default/debug/_ext/1360937237/WiFiReceive.o
                0x9d00a7a0                WIFIRECEIVE_Initialize

.text.SendToControlQueue
                0x9d00a7f8       0x58
 .text.SendToControlQueue
                0x9d00a7f8       0x58 build/default/debug/_ext/1360937237/Control.o
                0x9d00a7f8                SendToControlQueue

.text.xQueueCreateMutex
                0x9d00a850       0x58
 .text.xQueueCreateMutex
                0x9d00a850       0x58 build/default/debug/_ext/1128951024/queue.o
                0x9d00a850                xQueueCreateMutex

.text.vTaskDelay
                0x9d00a8a8       0x58
 .text.vTaskDelay
                0x9d00a8a8       0x58 build/default/debug/_ext/1128951024/tasks.o
                0x9d00a8a8                vTaskDelay

.text.vEventGroupDelete
                0x9d00a900       0x58
 .text.vEventGroupDelete
                0x9d00a900       0x58 build/default/debug/_ext/1128951024/event_groups.o
                0x9d00a900                vEventGroupDelete

.text.main_entry
                0x9d00a958       0x54
 .text.main_entry
                0x9d00a958       0x54 c:/program files (x86)/microchip/xc32/v1.44/bin/bin/../../lib/gcc/pic32mx/4.8.3/../../../../pic32mx/lib/./proc/32MX795F512L/crt0_mips32r2.o
                0x9d00a98c                __crt0_exit

.text.SYS_PORTS_DirectionSelect
                0x9d00a9ac       0x54
 .text.SYS_PORTS_DirectionSelect
                0x9d00a9ac       0x54 build/default/debug/_ext/822048611/sys_ports_static.o
                0x9d00a9ac                SYS_PORTS_DirectionSelect

.text.CheckString
                0x9d00aa00       0x54
 .text.CheckString
                0x9d00aa00       0x54 build/default/debug/_ext/1360937237/WiFiReceive.o
                0x9d00aa00                CheckString

.rodata         0x9d00aa54       0x54
 .rodata        0x9d00aa54       0x54 build/default/debug/_ext/1360937237/WiFiTransmit.o

.text.SYS_INT_SourceDisable
                0x9d00aaa8       0x54
 .text.SYS_INT_SourceDisable
                0x9d00aaa8       0x54 build/default/debug/_ext/122796885/sys_int_pic32.o
                0x9d00aaa8                SYS_INT_SourceDisable

.text.pxPortInitialiseStack
                0x9d00aafc       0x54
 .text.pxPortInitialiseStack
                0x9d00aafc       0x54 build/default/debug/_ext/12131622/port.o
                0x9d00aafc                pxPortInitialiseStack

.text.vPortIncrementTick
                0x9d00ab50       0x54
 .text.vPortIncrementTick
                0x9d00ab50       0x54 build/default/debug/_ext/12131622/port.o
                0x9d00ab50                vPortIncrementTick

.text.DRV_USART0_ReadByte
                0x9d00aba4       0x50
 .text.DRV_USART0_ReadByte
                0x9d00aba4       0x50 build/default/debug/_ext/327000265/drv_usart_static_byte_model.o
                0x9d00aba4                DRV_USART0_ReadByte

.text.SYS_PORTS_ChangeNotificationEnable
                0x9d00abf4       0x50
 .text.SYS_PORTS_ChangeNotificationEnable
                0x9d00abf4       0x50 build/default/debug/_ext/822048611/sys_ports_static.o
                0x9d00abf4                SYS_PORTS_ChangeNotificationEnable

.text.IntHandlerExternalInterruptInstance0
                0x9d00ac44       0x50
 .text.IntHandlerExternalInterruptInstance0
                0x9d00ac44       0x50 build/default/debug/_ext/1688732426/system_interrupt.o
                0x9d00ac44                IntHandlerExternalInterruptInstance0

.text.IntHandlerExternalInterruptInstance1
                0x9d00ac94       0x50
 .text.IntHandlerExternalInterruptInstance1
                0x9d00ac94       0x50 build/default/debug/_ext/1688732426/system_interrupt.o
                0x9d00ac94                IntHandlerExternalInterruptInstance1

.text.SendToQueue
                0x9d00ace4       0x50
 .text.SendToQueue
                0x9d00ace4       0x50 build/default/debug/_ext/1360937237/motor_encoder_thread.o
                0x9d00ace4                SendToQueue

.text._state_machine_send_status
                0x9d00ad34       0x50
 .text._state_machine_send_status
                0x9d00ad34       0x50 build/default/debug/_ext/1360937237/statemachine.o
                0x9d00ad34                _state_machine_send_status

.text.requeststatus
                0x9d00ad84       0x50
 .text.requeststatus
                0x9d00ad84       0x50 build/default/debug/_ext/1360937237/statemachine.o
                0x9d00ad84                requeststatus

.text.prvCopyDataFromQueue
                0x9d00add4       0x50
 .text.prvCopyDataFromQueue
                0x9d00add4       0x50 build/default/debug/_ext/1128951024/queue.o

.text.xEventGroupClearBits
                0x9d00ae24       0x50
 .text.xEventGroupClearBits
                0x9d00ae24       0x50 build/default/debug/_ext/1128951024/event_groups.o
                0x9d00ae24                xEventGroupClearBits

.text.DRV_TMR0_CounterFrequencyGet
                0x9d00ae74       0x4c
 .text.DRV_TMR0_CounterFrequencyGet
                0x9d00ae74       0x4c build/default/debug/_ext/1407244131/drv_tmr_static.o
                0x9d00ae74                DRV_TMR0_CounterFrequencyGet

.text.DRV_TMR3_CounterFrequencyGet
                0x9d00aec0       0x4c
 .text.DRV_TMR3_CounterFrequencyGet
                0x9d00aec0       0x4c build/default/debug/_ext/1407244131/drv_tmr_static.o
                0x9d00aec0                DRV_TMR3_CounterFrequencyGet

.text.DRV_USART0_Deinitialize
                0x9d00af0c       0x4c
 .text.DRV_USART0_Deinitialize
                0x9d00af0c       0x4c build/default/debug/_ext/327000265/drv_usart_static.o
                0x9d00af0c                DRV_USART0_Deinitialize

.text.OSAL_SEM_PostISR
                0x9d00af58       0x4c
 .text.OSAL_SEM_PostISR
                0x9d00af58       0x4c build/default/debug/_ext/24337685/osal_freertos.o
                0x9d00af58                OSAL_SEM_PostISR

.text.DRV_USART0_TransferStatus
                0x9d00afa4       0x48
 .text.DRV_USART0_TransferStatus
                0x9d00afa4       0x48 build/default/debug/_ext/327000265/drv_usart_static.o
                0x9d00afa4                DRV_USART0_TransferStatus

.text.SYS_CLK_SecondaryOscillatorEnable
                0x9d00afec       0x48
 .text.SYS_CLK_SecondaryOscillatorEnable
                0x9d00afec       0x48 build/default/debug/_ext/639803181/sys_clk_pic32mx.o
                0x9d00afec                SYS_CLK_SecondaryOscillatorEnable

.text.SYS_CLK_SecondaryOscillatorDisable
                0x9d00b034       0x48
 .text.SYS_CLK_SecondaryOscillatorDisable
                0x9d00b034       0x48 build/default/debug/_ext/639803181/sys_clk_pic32mx.o
                0x9d00b034                SYS_CLK_SecondaryOscillatorDisable

.text.SYS_DEVCON_SystemLock
                0x9d00b07c       0x48
 .text.SYS_DEVCON_SystemLock
                0x9d00b07c       0x48 build/default/debug/_ext/340578644/sys_devcon.o
                0x9d00b07c                SYS_DEVCON_SystemLock

.text.Motor_Left_Set
                0x9d00b0c4       0x48
 .text.Motor_Left_Set
                0x9d00b0c4       0x48 build/default/debug/_ext/1360937237/motor_encoder_thread.o
                0x9d00b0c4                Motor_Left_Set

.text.Motor_Right_Set
                0x9d00b10c       0x48
 .text.Motor_Right_Set
                0x9d00b10c       0x48 build/default/debug/_ext/1360937237/motor_encoder_thread.o
                0x9d00b10c                Motor_Right_Set

.text.OSAL_CRIT_Enter
                0x9d00b154       0x48
 .text.OSAL_CRIT_Enter
                0x9d00b154       0x48 build/default/debug/_ext/24337685/osal_freertos.o
                0x9d00b154                OSAL_CRIT_Enter

.text.vTaskEnterCritical
                0x9d00b19c       0x48
 .text.vTaskEnterCritical
                0x9d00b19c       0x48 build/default/debug/_ext/1128951024/tasks.o
                0x9d00b19c                vTaskEnterCritical

.text.vTaskPlaceOnUnorderedEventList
                0x9d00b1e4       0x48
 .text.vTaskPlaceOnUnorderedEventList
                0x9d00b1e4       0x48 build/default/debug/_ext/1128951024/tasks.o
                0x9d00b1e4                vTaskPlaceOnUnorderedEventList

.text.vTaskPlaceOnEventListRestricted
                0x9d00b22c       0x48
 .text.vTaskPlaceOnEventListRestricted
                0x9d00b22c       0x48 build/default/debug/_ext/1128951024/tasks.o
                0x9d00b22c                vTaskPlaceOnEventListRestricted

.text._bootstrap_exception_handler
                0x9d00b274       0x48
 .text._bootstrap_exception_handler
                0x9d00b274       0x48 c:/program files (x86)/microchip/xc32/v1.44/bin/bin/../../lib/gcc/pic32mx/4.8.3/../../../../pic32mx/lib\libpic32.a(default-bootstrap-exception-handler.o)
                0x9d00b274                _bootstrap_exception_handler

.vector_default
                0x9d00b2bc       0x48
 .vector_default
                0x9d00b2bc       0x48 c:/program files (x86)/microchip/xc32/v1.44/bin/bin/../../lib/gcc/pic32mx/4.8.3/../../../../pic32mx/lib\libpic32.a(defaultinterrupt.o)
                0x9d00b2bc                _DefaultInterrupt

.text.DRV_USART0_TasksTransmit
                0x9d00b304       0x44
 .text.DRV_USART0_TasksTransmit
                0x9d00b304       0x44 build/default/debug/_ext/327000265/drv_usart_static.o
                0x9d00b304                DRV_USART0_TasksTransmit

.text.SYS_CLK_Initialize
                0x9d00b348       0x44
 .text.SYS_CLK_Initialize
                0x9d00b348       0x44 build/default/debug/_ext/639803181/sys_clk_pic32mx.o
                0x9d00b348                SYS_CLK_Initialize

.text.SYS_DEVCON_PowerModeEnter
                0x9d00b38c       0x44
 .text.SYS_DEVCON_PowerModeEnter
                0x9d00b38c       0x44 build/default/debug/_ext/340578644/sys_devcon.o
                0x9d00b38c                SYS_DEVCON_PowerModeEnter

.text.IntHandlerDrvTmrInstance3
                0x9d00b3d0       0x44
 .text.IntHandlerDrvTmrInstance3
                0x9d00b3d0       0x44 build/default/debug/_ext/1688732426/system_interrupt.o
                0x9d00b3d0                IntHandlerDrvTmrInstance3

.text._general_exception_handler
                0x9d00b414       0x44
 .text._general_exception_handler
                0x9d00b414       0x44 build/default/debug/_ext/1688732426/system_exceptions.o
                0x9d00b414                _general_exception_handler

.text.OSAL_CRIT_Leave
                0x9d00b458       0x44
 .text.OSAL_CRIT_Leave
                0x9d00b458       0x44 build/default/debug/_ext/24337685/osal_freertos.o
                0x9d00b458                OSAL_CRIT_Leave

.text.uxListRemove
                0x9d00b49c       0x44
 .text.uxListRemove
                0x9d00b49c       0x44 build/default/debug/_ext/1128951024/list.o
                0x9d00b49c                uxListRemove

.text           0x9d00b4e0       0x44
 .text          0x9d00b4e0       0x44 c:/program files (x86)/microchip/xc32/v1.44/bin/bin/../../lib/gcc/pic32mx/4.8.3/../../../../pic32mx/lib\pic32_software_reset.o
                0x9d00b4e0                __pic32_software_reset

.text.DRV_OC2_Initialize
                0x9d00b524       0x40
 .text.DRV_OC2_Initialize
                0x9d00b524       0x40 build/default/debug/_ext/1047219354/drv_oc_static.o
                0x9d00b524                DRV_OC2_Initialize

.text.DRV_OC3_Initialize
                0x9d00b564       0x40
 .text.DRV_OC3_Initialize
                0x9d00b564       0x40 build/default/debug/_ext/1047219354/drv_oc_static.o
                0x9d00b564                DRV_OC3_Initialize

.text.OSAL_SEM_Pend
                0x9d00b5a4       0x40
 .text.OSAL_SEM_Pend
                0x9d00b5a4       0x40 build/default/debug/_ext/24337685/osal_freertos.o
                0x9d00b5a4                OSAL_SEM_Pend

.text.OSAL_MUTEX_Lock
                0x9d00b5e4       0x40
 .text.OSAL_MUTEX_Lock
                0x9d00b5e4       0x40 build/default/debug/_ext/24337685/osal_freertos.o
                0x9d00b5e4                OSAL_MUTEX_Lock

.text.prvIdleTask
                0x9d00b624       0x40
 .text.prvIdleTask
                0x9d00b624       0x40 build/default/debug/_ext/1128951024/tasks.o
                0x9d00b624                prvIdleTask

.text.DRV_ADC_NegativeInputSelect
                0x9d00b664       0x3c
 .text.DRV_ADC_NegativeInputSelect
                0x9d00b664       0x3c build/default/debug/_ext/1361460060/drv_adc_static.o
                0x9d00b664                DRV_ADC_NegativeInputSelect

.text.DRV_ADC_PositiveInputSelect
                0x9d00b6a0       0x3c
 .text.DRV_ADC_PositiveInputSelect
                0x9d00b6a0       0x3c build/default/debug/_ext/1361460060/drv_adc_static.o
                0x9d00b6a0                DRV_ADC_PositiveInputSelect

.text.DRV_OC0_Initialize
                0x9d00b6dc       0x3c
 .text.DRV_OC0_Initialize
                0x9d00b6dc       0x3c build/default/debug/_ext/1047219354/drv_oc_static.o
                0x9d00b6dc                DRV_OC0_Initialize

.text.DRV_OC1_Initialize
                0x9d00b718       0x3c
 .text.DRV_OC1_Initialize
                0x9d00b718       0x3c build/default/debug/_ext/1047219354/drv_oc_static.o
                0x9d00b718                DRV_OC1_Initialize

.text.DRV_TMR0_Stop
                0x9d00b754       0x3c
 .text.DRV_TMR0_Stop
                0x9d00b754       0x3c build/default/debug/_ext/1407244131/drv_tmr_static.o
                0x9d00b754                DRV_TMR0_Stop

.text.DRV_TMR1_Stop
                0x9d00b790       0x3c
 .text.DRV_TMR1_Stop
                0x9d00b790       0x3c build/default/debug/_ext/1407244131/drv_tmr_static.o
                0x9d00b790                DRV_TMR1_Stop

.text.DRV_TMR2_Stop
                0x9d00b7cc       0x3c
 .text.DRV_TMR2_Stop
                0x9d00b7cc       0x3c build/default/debug/_ext/1407244131/drv_tmr_static.o
                0x9d00b7cc                DRV_TMR2_Stop

.text.DRV_TMR3_Stop
                0x9d00b808       0x3c
 .text.DRV_TMR3_Stop
                0x9d00b808       0x3c build/default/debug/_ext/1407244131/drv_tmr_static.o
                0x9d00b808                DRV_TMR3_Stop

.text.hash      0x9d00b844       0x3c
 .text.hash     0x9d00b844       0x3c build/default/debug/_ext/1360937237/WiFiReceive.o
                0x9d00b844                hash

.text.WIFITRANSMIT_Initialize
                0x9d00b880       0x3c
 .text.WIFITRANSMIT_Initialize
                0x9d00b880       0x3c build/default/debug/_ext/1360937237/WiFiTransmit.o
                0x9d00b880                WIFITRANSMIT_Initialize

.text.SendOverWiFi
                0x9d00b8bc       0x3c
 .text.SendOverWiFi
                0x9d00b8bc       0x3c build/default/debug/_ext/1360937237/WiFiTransmit.o
                0x9d00b8bc                SendOverWiFi

.text.OSAL_MUTEX_Create
                0x9d00b8f8       0x3c
 .text.OSAL_MUTEX_Create
                0x9d00b8f8       0x3c build/default/debug/_ext/24337685/osal_freertos.o
                0x9d00b8f8                OSAL_MUTEX_Create

.text.OSAL_MUTEX_Delete
                0x9d00b934       0x3c
 .text.OSAL_MUTEX_Delete
                0x9d00b934       0x3c build/default/debug/_ext/24337685/osal_freertos.o
                0x9d00b934                OSAL_MUTEX_Delete

.text.uxPortSetInterruptMaskFromISR
                0x9d00b970       0x3c
 .text.uxPortSetInterruptMaskFromISR
                0x9d00b970       0x3c build/default/debug/_ext/12131622/port.o
                0x9d00b970                uxPortSetInterruptMaskFromISR

.text.uxTaskPriorityGetFromISR
                0x9d00b9ac       0x3c
 .text.uxTaskPriorityGetFromISR
                0x9d00b9ac       0x3c build/default/debug/_ext/1128951024/tasks.o
                0x9d00b9ac                uxTaskPriorityGetFromISR

.text.xEventGroupCreate
                0x9d00b9e8       0x3c
 .text.xEventGroupCreate
                0x9d00b9e8       0x3c build/default/debug/_ext/1128951024/event_groups.o
                0x9d00b9e8                xEventGroupCreate

.text.DRV_TMR0_Start
                0x9d00ba24       0x38
 .text.DRV_TMR0_Start
                0x9d00ba24       0x38 build/default/debug/_ext/1407244131/drv_tmr_static.o
                0x9d00ba24                DRV_TMR0_Start

.text.DRV_TMR1_Start
                0x9d00ba5c       0x38
 .text.DRV_TMR1_Start
                0x9d00ba5c       0x38 build/default/debug/_ext/1407244131/drv_tmr_static.o
                0x9d00ba5c                DRV_TMR1_Start

.text.DRV_TMR2_Start
                0x9d00ba94       0x38
 .text.DRV_TMR2_Start
                0x9d00ba94       0x38 build/default/debug/_ext/1407244131/drv_tmr_static.o
                0x9d00ba94                DRV_TMR2_Start

.text.DRV_TMR3_Start
                0x9d00bacc       0x38
 .text.DRV_TMR3_Start
                0x9d00bacc       0x38 build/default/debug/_ext/1407244131/drv_tmr_static.o
                0x9d00bacc                DRV_TMR3_Start

.text.GetMessageStat
                0x9d00bb04       0x38
 .text.GetMessageStat
                0x9d00bb04       0x38 build/default/debug/_ext/1360937237/WiFiReceive.o
                0x9d00bb04                GetMessageStat

.text.Forward   0x9d00bb3c       0x38
 .text.Forward  0x9d00bb3c       0x38 build/default/debug/_ext/1360937237/motor_encoder_thread.o
                0x9d00bb3c                Forward

.text.Backward  0x9d00bb74       0x38
 .text.Backward
                0x9d00bb74       0x38 build/default/debug/_ext/1360937237/motor_encoder_thread.o
                0x9d00bb74                Backward

.text.uxQueueSpacesAvailable
                0x9d00bbac       0x38
 .text.uxQueueSpacesAvailable
                0x9d00bbac       0x38 build/default/debug/_ext/1128951024/queue.o
                0x9d00bbac                uxQueueSpacesAvailable

.text.prvTaskIsTaskSuspended
                0x9d00bbe4       0x38
 .text.prvTaskIsTaskSuspended
                0x9d00bbe4       0x38 build/default/debug/_ext/1128951024/tasks.o
                0x9d00bbe4                prvTaskIsTaskSuspended

.text.prvResetNextTaskUnblockTime
                0x9d00bc1c       0x38
 .text.prvResetNextTaskUnblockTime
                0x9d00bc1c       0x38 build/default/debug/_ext/1128951024/tasks.o
                0x9d00bc1c                prvResetNextTaskUnblockTime

.text.uxTaskPriorityGet
                0x9d00bc54       0x38
 .text.uxTaskPriorityGet
                0x9d00bc54       0x38 build/default/debug/_ext/1128951024/tasks.o
                0x9d00bc54                uxTaskPriorityGet

.text.vTaskPlaceOnEventList
                0x9d00bc8c       0x38
 .text.vTaskPlaceOnEventList
                0x9d00bc8c       0x38 build/default/debug/_ext/1128951024/tasks.o
                0x9d00bc8c                vTaskPlaceOnEventList

.text.vTimerSetTimerID
                0x9d00bcc4       0x38
 .text.vTimerSetTimerID
                0x9d00bcc4       0x38 build/default/debug/_ext/1128951024/timers.o
                0x9d00bcc4                vTimerSetTimerID

.text.DRV_USART_ClientStatus
                0x9d00bcfc       0x34
 .text.DRV_USART_ClientStatus
                0x9d00bcfc       0x34 build/default/debug/_ext/327000265/drv_usart_mapping.o
                0x9d00bcfc                DRV_USART_ClientStatus

.text.DRV_USART_TransferStatus
                0x9d00bd30       0x34
 .text.DRV_USART_TransferStatus
                0x9d00bd30       0x34 build/default/debug/_ext/327000265/drv_usart_mapping.o
                0x9d00bd30                DRV_USART_TransferStatus

.text.DRV_USART_ErrorGet
                0x9d00bd64       0x34
 .text.DRV_USART_ErrorGet
                0x9d00bd64       0x34 build/default/debug/_ext/327000265/drv_usart_mapping.o
                0x9d00bd64                DRV_USART_ErrorGet

.text.DRV_USART_ReadByte
                0x9d00bd98       0x34
 .text.DRV_USART_ReadByte
                0x9d00bd98       0x34 build/default/debug/_ext/327000265/drv_usart_mapping.o
                0x9d00bd98                DRV_USART_ReadByte

.text.DRV_USART_ReceiverBufferSizeGet
                0x9d00bdcc       0x34
 .text.DRV_USART_ReceiverBufferSizeGet
                0x9d00bdcc       0x34 build/default/debug/_ext/327000265/drv_usart_mapping.o
                0x9d00bdcc                DRV_USART_ReceiverBufferSizeGet

.text.DRV_USART_TransmitBufferSizeGet
                0x9d00be00       0x34
 .text.DRV_USART_TransmitBufferSizeGet
                0x9d00be00       0x34 build/default/debug/_ext/327000265/drv_usart_mapping.o
                0x9d00be00                DRV_USART_TransmitBufferSizeGet

.text.DRV_USART_ReceiverBufferIsEmpty
                0x9d00be34       0x34
 .text.DRV_USART_ReceiverBufferIsEmpty
                0x9d00be34       0x34 build/default/debug/_ext/327000265/drv_usart_mapping.o
                0x9d00be34                DRV_USART_ReceiverBufferIsEmpty

.text.DRV_USART_TransmitBufferIsFull
                0x9d00be68       0x34
 .text.DRV_USART_TransmitBufferIsFull
                0x9d00be68       0x34 build/default/debug/_ext/327000265/drv_usart_mapping.o
                0x9d00be68                DRV_USART_TransmitBufferIsFull

.text.DRV_USART_BaudSet
                0x9d00be9c       0x34
 .text.DRV_USART_BaudSet
                0x9d00be9c       0x34 build/default/debug/_ext/327000265/drv_usart_mapping.o
                0x9d00be9c                DRV_USART_BaudSet

.text.DRV_USART_LineControlSet
                0x9d00bed0       0x34
 .text.DRV_USART_LineControlSet
                0x9d00bed0       0x34 build/default/debug/_ext/327000265/drv_usart_mapping.o
                0x9d00bed0                DRV_USART_LineControlSet

.text.Read_Encoders
                0x9d00bf04       0x34
 .text.Read_Encoders
                0x9d00bf04       0x34 build/default/debug/_ext/1360937237/motor_encoder_thread.o
                0x9d00bf04                Read_Encoders

.text.xQueueCreateCountingSemaphore
                0x9d00bf38       0x34
 .text.xQueueCreateCountingSemaphore
                0x9d00bf38       0x34 build/default/debug/_ext/1128951024/queue.o
                0x9d00bf38                xQueueCreateCountingSemaphore

.text.uxQueueMessagesWaiting
                0x9d00bf6c       0x34
 .text.uxQueueMessagesWaiting
                0x9d00bf6c       0x34 build/default/debug/_ext/1128951024/queue.o
                0x9d00bf6c                uxQueueMessagesWaiting

.text.vTaskEndScheduler
                0x9d00bfa0       0x34
 .text.vTaskEndScheduler
                0x9d00bfa0       0x34 build/default/debug/_ext/1128951024/tasks.o
                0x9d00bfa0                vTaskEndScheduler

.text.xTimerIsTimerActive
                0x9d00bfd4       0x34
 .text.xTimerIsTimerActive
                0x9d00bfd4       0x34 build/default/debug/_ext/1128951024/timers.o
                0x9d00bfd4                xTimerIsTimerActive

.text.xEventGroupGetBitsFromISR
                0x9d00c008       0x34
 .text.xEventGroupGetBitsFromISR
                0x9d00c008       0x34 build/default/debug/_ext/1128951024/event_groups.o
                0x9d00c008                xEventGroupGetBitsFromISR

.text.DRV_TMR_Open
                0x9d00c03c       0x30
 .text.DRV_TMR_Open
                0x9d00c03c       0x30 build/default/debug/_ext/1407244131/drv_tmr_mapping.o
                0x9d00c03c                DRV_TMR_Open

.text.DRV_USART_Initialize
                0x9d00c06c       0x30
 .text.DRV_USART_Initialize
                0x9d00c06c       0x30 build/default/debug/_ext/327000265/drv_usart_mapping.o
                0x9d00c06c                DRV_USART_Initialize

.text.DRV_USART_Status
                0x9d00c09c       0x30
 .text.DRV_USART_Status
                0x9d00c09c       0x30 build/default/debug/_ext/327000265/drv_usart_mapping.o
                0x9d00c09c                DRV_USART_Status

.text.DRV_USART_Open
                0x9d00c0cc       0x30
 .text.DRV_USART_Open
                0x9d00c0cc       0x30 build/default/debug/_ext/327000265/drv_usart_mapping.o
                0x9d00c0cc                DRV_USART_Open

.text.SYS_PORTS_PinToggle
                0x9d00c0fc       0x30
 .text.SYS_PORTS_PinToggle
                0x9d00c0fc       0x30 build/default/debug/_ext/822048611/sys_ports_static.o
                0x9d00c0fc                SYS_PORTS_PinToggle

.text.SYS_PORTS_PinSet
                0x9d00c12c       0x30
 .text.SYS_PORTS_PinSet
                0x9d00c12c       0x30 build/default/debug/_ext/822048611/sys_ports_static.o
                0x9d00c12c                SYS_PORTS_PinSet

.text.SYS_PORTS_PinClear
                0x9d00c15c       0x30
 .text.SYS_PORTS_PinClear
                0x9d00c15c       0x30 build/default/debug/_ext/822048611/sys_ports_static.o
                0x9d00c15c                SYS_PORTS_PinClear

.text.SYS_PORTS_PinOpenDrainEnable
                0x9d00c18c       0x30
 .text.SYS_PORTS_PinOpenDrainEnable
                0x9d00c18c       0x30 build/default/debug/_ext/822048611/sys_ports_static.o
                0x9d00c18c                SYS_PORTS_PinOpenDrainEnable

.text.SYS_PORTS_PinOpenDrainDisable
                0x9d00c1bc       0x30
 .text.SYS_PORTS_PinOpenDrainDisable
                0x9d00c1bc       0x30 build/default/debug/_ext/822048611/sys_ports_static.o
                0x9d00c1bc                SYS_PORTS_PinOpenDrainDisable

.text.GetConnectionStatus
                0x9d00c1ec       0x30
 .text.GetConnectionStatus
                0x9d00c1ec       0x30 build/default/debug/_ext/1360937237/WiFiTransmit.o
                0x9d00c1ec                GetConnectionStatus

.text.OSAL_SEM_Delete
                0x9d00c21c       0x30
 .text.OSAL_SEM_Delete
                0x9d00c21c       0x30 build/default/debug/_ext/24337685/osal_freertos.o
                0x9d00c21c                OSAL_SEM_Delete

.text.OSAL_SEM_Post
                0x9d00c24c       0x30
 .text.OSAL_SEM_Post
                0x9d00c24c       0x30 build/default/debug/_ext/24337685/osal_freertos.o
                0x9d00c24c                OSAL_SEM_Post

.text.OSAL_MUTEX_Unlock
                0x9d00c27c       0x30
 .text.OSAL_MUTEX_Unlock
                0x9d00c27c       0x30 build/default/debug/_ext/24337685/osal_freertos.o
                0x9d00c27c                OSAL_MUTEX_Unlock

.text.vListInsertEnd
                0x9d00c2ac       0x30
 .text.vListInsertEnd
                0x9d00c2ac       0x30 build/default/debug/_ext/1128951024/list.o
                0x9d00c2ac                vListInsertEnd

.text.prvDeleteTCB
                0x9d00c2dc       0x30
 .text.prvDeleteTCB
                0x9d00c2dc       0x30 build/default/debug/_ext/1128951024/tasks.o
                0x9d00c2dc                prvDeleteTCB

.text.pvTimerGetTimerID
                0x9d00c30c       0x30
 .text.pvTimerGetTimerID
                0x9d00c30c       0x30 build/default/debug/_ext/1128951024/timers.o
                0x9d00c30c                pvTimerGetTimerID

.text.DRV_TMR0_DividerRangeGet
                0x9d00c33c       0x2c
 .text.DRV_TMR0_DividerRangeGet
                0x9d00c33c       0x2c build/default/debug/_ext/1407244131/drv_tmr_static.o
                0x9d00c33c                DRV_TMR0_DividerRangeGet

.text.DRV_TMR1_DividerRangeGet
                0x9d00c368       0x2c
 .text.DRV_TMR1_DividerRangeGet
                0x9d00c368       0x2c build/default/debug/_ext/1407244131/drv_tmr_static.o
                0x9d00c368                DRV_TMR1_DividerRangeGet

.text.DRV_TMR2_DividerRangeGet
                0x9d00c394       0x2c
 .text.DRV_TMR2_DividerRangeGet
                0x9d00c394       0x2c build/default/debug/_ext/1407244131/drv_tmr_static.o
                0x9d00c394                DRV_TMR2_DividerRangeGet

.text.DRV_TMR3_DividerRangeGet
                0x9d00c3c0       0x2c
 .text.DRV_TMR3_DividerRangeGet
                0x9d00c3c0       0x2c build/default/debug/_ext/1407244131/drv_tmr_static.o
                0x9d00c3c0                DRV_TMR3_DividerRangeGet

.text.DRV_USART_Close
                0x9d00c3ec       0x2c
 .text.DRV_USART_Close
                0x9d00c3ec       0x2c build/default/debug/_ext/327000265/drv_usart_mapping.o
                0x9d00c3ec                DRV_USART_Close

.text.DRV_USART_WriteByte
                0x9d00c418       0x2c
 .text.DRV_USART_WriteByte
                0x9d00c418       0x2c build/default/debug/_ext/327000265/drv_usart_mapping.o
                0x9d00c418                DRV_USART_WriteByte

.text.SYS_PORTS_Set
                0x9d00c444       0x2c
 .text.SYS_PORTS_Set
                0x9d00c444       0x2c build/default/debug/_ext/822048611/sys_ports_static.o
                0x9d00c444                SYS_PORTS_Set

.text.SYS_PORTS_PinModeSelect
                0x9d00c470       0x2c
 .text.SYS_PORTS_PinModeSelect
                0x9d00c470       0x2c build/default/debug/_ext/822048611/sys_ports_static.o
                0x9d00c470                SYS_PORTS_PinModeSelect

.text.SYS_PORTS_PinRead
                0x9d00c49c       0x2c
 .text.SYS_PORTS_PinRead
                0x9d00c49c       0x2c build/default/debug/_ext/822048611/sys_ports_static.o
                0x9d00c49c                SYS_PORTS_PinRead

.text.Pause     0x9d00c4c8       0x2c
 .text.Pause    0x9d00c4c8       0x2c build/default/debug/_ext/1360937237/motor_encoder_thread.o
                0x9d00c4c8                Pause

.text.OSAL_SEM_GetCount
                0x9d00c4f4       0x2c
 .text.OSAL_SEM_GetCount
                0x9d00c4f4       0x2c build/default/debug/_ext/24337685/osal_freertos.o
                0x9d00c4f4                OSAL_SEM_GetCount

.text.DRV_USART_Deinitialize
                0x9d00c520       0x28
 .text.DRV_USART_Deinitialize
                0x9d00c520       0x28 build/default/debug/_ext/327000265/drv_usart_mapping.o
                0x9d00c520                DRV_USART_Deinitialize

.text.DRV_USART_TasksTransmit
                0x9d00c548       0x28
 .text.DRV_USART_TasksTransmit
                0x9d00c548       0x28 build/default/debug/_ext/327000265/drv_usart_mapping.o
                0x9d00c548                DRV_USART_TasksTransmit

.text.DRV_USART_TasksReceive
                0x9d00c570       0x28
 .text.DRV_USART_TasksReceive
                0x9d00c570       0x28 build/default/debug/_ext/327000265/drv_usart_mapping.o
                0x9d00c570                DRV_USART_TasksReceive

.text.DRV_USART_TasksError
                0x9d00c598       0x28
 .text.DRV_USART_TasksError
                0x9d00c598       0x28 build/default/debug/_ext/327000265/drv_usart_mapping.o
                0x9d00c598                DRV_USART_TasksError

.text.DRV_USART0_TasksReceive
                0x9d00c5c0       0x28
 .text.DRV_USART0_TasksReceive
                0x9d00c5c0       0x28 build/default/debug/_ext/327000265/drv_usart_static.o
                0x9d00c5c0                DRV_USART0_TasksReceive

.text.DRV_USART0_TasksError
                0x9d00c5e8       0x28
 .text.DRV_USART0_TasksError
                0x9d00c5e8       0x28 build/default/debug/_ext/327000265/drv_usart_static.o
                0x9d00c5e8                DRV_USART0_TasksError

.text.SYS_PORTS_Read
                0x9d00c610       0x28
 .text.SYS_PORTS_Read
                0x9d00c610       0x28 build/default/debug/_ext/822048611/sys_ports_static.o
                0x9d00c610                SYS_PORTS_Read

.text.SYS_PORTS_Write
                0x9d00c638       0x28
 .text.SYS_PORTS_Write
                0x9d00c638       0x28 build/default/debug/_ext/822048611/sys_ports_static.o
                0x9d00c638                SYS_PORTS_Write

.text.SYS_PORTS_Clear
                0x9d00c660       0x28
 .text.SYS_PORTS_Clear
                0x9d00c660       0x28 build/default/debug/_ext/822048611/sys_ports_static.o
                0x9d00c660                SYS_PORTS_Clear

.text.SYS_PORTS_DirectionGet
                0x9d00c688       0x28
 .text.SYS_PORTS_DirectionGet
                0x9d00c688       0x28 build/default/debug/_ext/822048611/sys_ports_static.o
                0x9d00c688                SYS_PORTS_DirectionGet

.text.SYS_PORTS_Toggle
                0x9d00c6b0       0x28
 .text.SYS_PORTS_Toggle
                0x9d00c6b0       0x28 build/default/debug/_ext/822048611/sys_ports_static.o
                0x9d00c6b0                SYS_PORTS_Toggle

.text.SYS_PORTS_OpenDrainEnable
                0x9d00c6d8       0x28
 .text.SYS_PORTS_OpenDrainEnable
                0x9d00c6d8       0x28 build/default/debug/_ext/822048611/sys_ports_static.o
                0x9d00c6d8                SYS_PORTS_OpenDrainEnable

.text.SYS_PORTS_OpenDrainDisable
                0x9d00c700       0x28
 .text.SYS_PORTS_OpenDrainDisable
                0x9d00c700       0x28 build/default/debug/_ext/822048611/sys_ports_static.o
                0x9d00c700                SYS_PORTS_OpenDrainDisable

.text.SYS_INT_ExternalInterruptTriggerSet
                0x9d00c728       0x28
 .text.SYS_INT_ExternalInterruptTriggerSet
                0x9d00c728       0x28 build/default/debug/_ext/122796885/sys_int_pic32.o
                0x9d00c728                SYS_INT_ExternalInterruptTriggerSet

.text.pvTaskIncrementMutexHeldCount
                0x9d00c750       0x28
 .text.pvTaskIncrementMutexHeldCount
                0x9d00c750       0x28 build/default/debug/_ext/1128951024/tasks.o
                0x9d00c750                pvTaskIncrementMutexHeldCount

.text.vApplicationStackOverflowHook
                0x9d00c778       0x24
 .text.vApplicationStackOverflowHook
                0x9d00c778       0x24 build/default/debug/_ext/1688732426/rtos_hooks.o
                0x9d00c778                vApplicationStackOverflowHook

.text.vApplicationMallocFailedHook
                0x9d00c79c       0x24
 .text.vApplicationMallocFailedHook
                0x9d00c79c       0x24 build/default/debug/_ext/1688732426/rtos_hooks.o
                0x9d00c79c                vApplicationMallocFailedHook

.text.Left_Motor_PID
                0x9d00c7c0       0x24
 .text.Left_Motor_PID
                0x9d00c7c0       0x24 build/default/debug/_ext/1360937237/motor_encoder_thread.o
                0x9d00c7c0                Left_Motor_PID

.text.Right_Motor_PID
                0x9d00c7e4       0x24
 .text.Right_Motor_PID
                0x9d00c7e4       0x24 build/default/debug/_ext/1360937237/motor_encoder_thread.o
                0x9d00c7e4                Right_Motor_PID

.text.prvTaskExitError
                0x9d00c808       0x24
 .text.prvTaskExitError
                0x9d00c808       0x24 build/default/debug/_ext/12131622/port.o

.text.uxTaskResetEventItemValue
                0x9d00c82c       0x24
 .text.uxTaskResetEventItemValue
                0x9d00c82c       0x24 build/default/debug/_ext/1128951024/tasks.o
                0x9d00c82c                uxTaskResetEventItemValue

.text.DRV_ADC_Open
                0x9d00c850       0x20
 .text.DRV_ADC_Open
                0x9d00c850       0x20 build/default/debug/_ext/1361460060/drv_adc_static.o
                0x9d00c850                DRV_ADC_Open

.text.DRV_ADC_SamplesRead
                0x9d00c870       0x20
 .text.DRV_ADC_SamplesRead
                0x9d00c870       0x20 build/default/debug/_ext/1361460060/drv_adc_static.o
                0x9d00c870                DRV_ADC_SamplesRead

.text.main      0x9d00c890       0x20
 .text.main     0x9d00c890       0x20 build/default/debug/_ext/1360937237/main.o
                0x9d00c890                main

.text.SYS_INT_Disable
                0x9d00c8b0       0x20
 .text.SYS_INT_Disable
                0x9d00c8b0       0x20 build/default/debug/_ext/122796885/sys_int_pic32.o
                0x9d00c8b0                SYS_INT_Disable

.text.vListInitialise
                0x9d00c8d0       0x20
 .text.vListInitialise
                0x9d00c8d0       0x20 build/default/debug/_ext/1128951024/list.o
                0x9d00c8d0                vListInitialise

.text.xTaskGetSchedulerState
                0x9d00c8f0       0x20
 .text.xTaskGetSchedulerState
                0x9d00c8f0       0x20 build/default/debug/_ext/1128951024/tasks.o
                0x9d00c8f0                xTaskGetSchedulerState

.text.DRV_ADC_DeInitialize
                0x9d00c910       0x1c
 .text.DRV_ADC_DeInitialize
                0x9d00c910       0x1c build/default/debug/_ext/1361460060/drv_adc_static.o
                0x9d00c910                DRV_ADC_DeInitialize

.text.DRV_ADC_Close
                0x9d00c92c       0x1c
 .text.DRV_ADC_Close
                0x9d00c92c       0x1c build/default/debug/_ext/1361460060/drv_adc_static.o
                0x9d00c92c                DRV_ADC_Close

.text.DRV_ADC_ChannelScanInputsAdd
                0x9d00c948       0x1c
 .text.DRV_ADC_ChannelScanInputsAdd
                0x9d00c948       0x1c build/default/debug/_ext/1361460060/drv_adc_static.o
                0x9d00c948                DRV_ADC_ChannelScanInputsAdd

.text.SYS_DEVCON_TraceEnable
                0x9d00c964       0x1c
 .text.SYS_DEVCON_TraceEnable
                0x9d00c964       0x1c build/default/debug/_ext/340578644/sys_devcon.o
                0x9d00c964                SYS_DEVCON_TraceEnable

.text.SYS_INT_StatusGetAndDisable
                0x9d00c980       0x1c
 .text.SYS_INT_StatusGetAndDisable
                0x9d00c980       0x1c build/default/debug/_ext/122796885/sys_int_pic32.o
                0x9d00c980                SYS_INT_StatusGetAndDisable

.text.SYS_INT_StatusRestore
                0x9d00c99c       0x1c
 .text.SYS_INT_StatusRestore
                0x9d00c99c       0x1c build/default/debug/_ext/122796885/sys_int_pic32.o
                0x9d00c99c                SYS_INT_StatusRestore

.text.vPortClearInterruptMaskFromISR
                0x9d00c9b8       0x1c
 .text.vPortClearInterruptMaskFromISR
                0x9d00c9b8       0x1c build/default/debug/_ext/12131622/port.o
                0x9d00c9b8                vPortClearInterruptMaskFromISR

.text.vQueueDelete
                0x9d00c9d4       0x1c
 .text.vQueueDelete
                0x9d00c9d4       0x1c build/default/debug/_ext/1128951024/queue.o
                0x9d00c9d4                vQueueDelete

.text.vEventGroupSetBitsCallback
                0x9d00c9f0       0x1c
 .text.vEventGroupSetBitsCallback
                0x9d00c9f0       0x1c build/default/debug/_ext/1128951024/event_groups.o
                0x9d00c9f0                vEventGroupSetBitsCallback

.text.vEventGroupClearBitsCallback
                0x9d00ca0c       0x1c
 .text.vEventGroupClearBitsCallback
                0x9d00ca0c       0x1c build/default/debug/_ext/1128951024/event_groups.o
                0x9d00ca0c                vEventGroupClearBitsCallback

.text.DRV_ADC_Start
                0x9d00ca28       0x18
 .text.DRV_ADC_Start
                0x9d00ca28       0x18 build/default/debug/_ext/1361460060/drv_adc_static.o
                0x9d00ca28                DRV_ADC_Start

.text.DRV_ADC_Stop
                0x9d00ca40       0x18
 .text.DRV_ADC_Stop
                0x9d00ca40       0x18 build/default/debug/_ext/1361460060/drv_adc_static.o
                0x9d00ca40                DRV_ADC_Stop

.text.DRV_USART0_ReceiverBufferIsEmpty
                0x9d00ca58       0x18
 .text.DRV_USART0_ReceiverBufferIsEmpty
                0x9d00ca58       0x18 build/default/debug/_ext/327000265/drv_usart_static_byte_model.o
                0x9d00ca58                DRV_USART0_ReceiverBufferIsEmpty

.text.SYS_DEVCON_JTAGEnable
                0x9d00ca70       0x18
 .text.SYS_DEVCON_JTAGEnable
                0x9d00ca70       0x18 build/default/debug/_ext/340578644/sys_devcon.o
                0x9d00ca70                SYS_DEVCON_JTAGEnable

.text.SYS_DEVCON_JTAGDisable
                0x9d00ca88       0x18
 .text.SYS_DEVCON_JTAGDisable
                0x9d00ca88       0x18 build/default/debug/_ext/340578644/sys_devcon.o
                0x9d00ca88                SYS_DEVCON_JTAGDisable

.text.SYS_DEVCON_TraceDisable
                0x9d00caa0       0x18
 .text.SYS_DEVCON_TraceDisable
                0x9d00caa0       0x18 build/default/debug/_ext/340578644/sys_devcon.o
                0x9d00caa0                SYS_DEVCON_TraceDisable

.text.SYS_PORTS_ChangeNotificationDisable
                0x9d00cab8       0x18
 .text.SYS_PORTS_ChangeNotificationDisable
                0x9d00cab8       0x18 build/default/debug/_ext/822048611/sys_ports_static.o
                0x9d00cab8                SYS_PORTS_ChangeNotificationDisable

.text.SYS_PORTS_ChangeNotificationPullUpEnable
                0x9d00cad0       0x18
 .text.SYS_PORTS_ChangeNotificationPullUpEnable
                0x9d00cad0       0x18 build/default/debug/_ext/822048611/sys_ports_static.o
                0x9d00cad0                SYS_PORTS_ChangeNotificationPullUpEnable

.text.SYS_PORTS_ChangeNotificationPullUpDisable
                0x9d00cae8       0x18
 .text.SYS_PORTS_ChangeNotificationPullUpDisable
                0x9d00cae8       0x18 build/default/debug/_ext/822048611/sys_ports_static.o
                0x9d00cae8                SYS_PORTS_ChangeNotificationPullUpDisable

.text.IntHandlerDrvTmrInstance0
                0x9d00cb00       0x18
 .text.IntHandlerDrvTmrInstance0
                0x9d00cb00       0x18 build/default/debug/_ext/1688732426/system_interrupt.o
                0x9d00cb00                IntHandlerDrvTmrInstance0

.text.IntHandlerDrvTmrInstance1
                0x9d00cb18       0x18
 .text.IntHandlerDrvTmrInstance1
                0x9d00cb18       0x18 build/default/debug/_ext/1688732426/system_interrupt.o
                0x9d00cb18                IntHandlerDrvTmrInstance1

.text.IntHandlerDrvTmrInstance2
                0x9d00cb30       0x18
 .text.IntHandlerDrvTmrInstance2
                0x9d00cb30       0x18 build/default/debug/_ext/1688732426/system_interrupt.o
                0x9d00cb30                IntHandlerDrvTmrInstance2

.text._CONTROL_Tasks
                0x9d00cb48       0x18
 .text._CONTROL_Tasks
                0x9d00cb48       0x18 build/default/debug/_ext/1688732426/system_tasks.o

.text._MOTOR_ENCODER_THREAD_Tasks
                0x9d00cb60       0x18
 .text._MOTOR_ENCODER_THREAD_Tasks
                0x9d00cb60       0x18 build/default/debug/_ext/1688732426/system_tasks.o

.text._WIFITRANSMIT_Tasks
                0x9d00cb78       0x18
 .text._WIFITRANSMIT_Tasks
                0x9d00cb78       0x18 build/default/debug/_ext/1688732426/system_tasks.o

.text._WIFIRECEIVE_Tasks
                0x9d00cb90       0x18
 .text._WIFIRECEIVE_Tasks
                0x9d00cb90       0x18 build/default/debug/_ext/1688732426/system_tasks.o

.rodata         0x9d00cba8       0x18
 .rodata        0x9d00cba8       0x18 build/default/debug/_ext/1360937237/WiFiReceive.o

.text           0x9d00cbc0       0x18
 .text          0x9d00cbc0       0x18 c:/program files (x86)/microchip/xc32/v1.44/bin/bin/../../lib/gcc/pic32mx/4.8.3/../../../../pic32mx/lib\libpic32.a(default-nmi-handler.o)
                0x9d00cbc0                _nmi_handler

.text.DRV_ADC_ChannelScanInputsRemove
                0x9d00cbd8       0x14
 .text.DRV_ADC_ChannelScanInputsRemove
                0x9d00cbd8       0x14 build/default/debug/_ext/1361460060/drv_adc_static.o
                0x9d00cbd8                DRV_ADC_ChannelScanInputsRemove

.text.DRV_ADC_SamplesAvailable
                0x9d00cbec       0x14
 .text.DRV_ADC_SamplesAvailable
                0x9d00cbec       0x14 build/default/debug/_ext/1361460060/drv_adc_static.o
                0x9d00cbec                DRV_ADC_SamplesAvailable

.text.DRV_OC0_Enable
                0x9d00cc00       0x14
 .text.DRV_OC0_Enable
                0x9d00cc00       0x14 build/default/debug/_ext/1047219354/drv_oc_static.o
                0x9d00cc00                DRV_OC0_Enable

.text.DRV_OC0_Disable
                0x9d00cc14       0x14
 .text.DRV_OC0_Disable
                0x9d00cc14       0x14 build/default/debug/_ext/1047219354/drv_oc_static.o
                0x9d00cc14                DRV_OC0_Disable

.text.DRV_OC0_Start
                0x9d00cc28       0x14
 .text.DRV_OC0_Start
                0x9d00cc28       0x14 build/default/debug/_ext/1047219354/drv_oc_static.o
                0x9d00cc28                DRV_OC0_Start

.text.DRV_OC0_Stop
                0x9d00cc3c       0x14
 .text.DRV_OC0_Stop
                0x9d00cc3c       0x14 build/default/debug/_ext/1047219354/drv_oc_static.o
                0x9d00cc3c                DRV_OC0_Stop

.text.DRV_OC0_PulseWidthSet
                0x9d00cc50       0x14
 .text.DRV_OC0_PulseWidthSet
                0x9d00cc50       0x14 build/default/debug/_ext/1047219354/drv_oc_static.o
                0x9d00cc50                DRV_OC0_PulseWidthSet

.text.DRV_OC1_Enable
                0x9d00cc64       0x14
 .text.DRV_OC1_Enable
                0x9d00cc64       0x14 build/default/debug/_ext/1047219354/drv_oc_static.o
                0x9d00cc64                DRV_OC1_Enable

.text.DRV_OC1_Disable
                0x9d00cc78       0x14
 .text.DRV_OC1_Disable
                0x9d00cc78       0x14 build/default/debug/_ext/1047219354/drv_oc_static.o
                0x9d00cc78                DRV_OC1_Disable

.text.DRV_OC1_Start
                0x9d00cc8c       0x14
 .text.DRV_OC1_Start
                0x9d00cc8c       0x14 build/default/debug/_ext/1047219354/drv_oc_static.o
                0x9d00cc8c                DRV_OC1_Start

.text.DRV_OC1_Stop
                0x9d00cca0       0x14
 .text.DRV_OC1_Stop
                0x9d00cca0       0x14 build/default/debug/_ext/1047219354/drv_oc_static.o
                0x9d00cca0                DRV_OC1_Stop

.text.DRV_OC1_PulseWidthSet
                0x9d00ccb4       0x14
 .text.DRV_OC1_PulseWidthSet
                0x9d00ccb4       0x14 build/default/debug/_ext/1047219354/drv_oc_static.o
                0x9d00ccb4                DRV_OC1_PulseWidthSet

.text.DRV_OC2_Enable
                0x9d00ccc8       0x14
 .text.DRV_OC2_Enable
                0x9d00ccc8       0x14 build/default/debug/_ext/1047219354/drv_oc_static.o
                0x9d00ccc8                DRV_OC2_Enable

.text.DRV_OC2_Disable
                0x9d00ccdc       0x14
 .text.DRV_OC2_Disable
                0x9d00ccdc       0x14 build/default/debug/_ext/1047219354/drv_oc_static.o
                0x9d00ccdc                DRV_OC2_Disable

.text.DRV_OC2_Start
                0x9d00ccf0       0x14
 .text.DRV_OC2_Start
                0x9d00ccf0       0x14 build/default/debug/_ext/1047219354/drv_oc_static.o
                0x9d00ccf0                DRV_OC2_Start

.text.DRV_OC2_Stop
                0x9d00cd04       0x14
 .text.DRV_OC2_Stop
                0x9d00cd04       0x14 build/default/debug/_ext/1047219354/drv_oc_static.o
                0x9d00cd04                DRV_OC2_Stop

.text.DRV_OC2_PulseWidthSet
                0x9d00cd18       0x14
 .text.DRV_OC2_PulseWidthSet
                0x9d00cd18       0x14 build/default/debug/_ext/1047219354/drv_oc_static.o
                0x9d00cd18                DRV_OC2_PulseWidthSet

.text.DRV_OC3_Enable
                0x9d00cd2c       0x14
 .text.DRV_OC3_Enable
                0x9d00cd2c       0x14 build/default/debug/_ext/1047219354/drv_oc_static.o
                0x9d00cd2c                DRV_OC3_Enable

.text.DRV_OC3_Disable
                0x9d00cd40       0x14
 .text.DRV_OC3_Disable
                0x9d00cd40       0x14 build/default/debug/_ext/1047219354/drv_oc_static.o
                0x9d00cd40                DRV_OC3_Disable

.text.DRV_OC3_Start
                0x9d00cd54       0x14
 .text.DRV_OC3_Start
                0x9d00cd54       0x14 build/default/debug/_ext/1047219354/drv_oc_static.o
                0x9d00cd54                DRV_OC3_Start

.text.DRV_OC3_Stop
                0x9d00cd68       0x14
 .text.DRV_OC3_Stop
                0x9d00cd68       0x14 build/default/debug/_ext/1047219354/drv_oc_static.o
                0x9d00cd68                DRV_OC3_Stop

.text.DRV_OC3_PulseWidthSet
                0x9d00cd7c       0x14
 .text.DRV_OC3_PulseWidthSet
                0x9d00cd7c       0x14 build/default/debug/_ext/1047219354/drv_oc_static.o
                0x9d00cd7c                DRV_OC3_PulseWidthSet

.text.DRV_TMR0_ClientStatus
                0x9d00cd90       0x14
 .text.DRV_TMR0_ClientStatus
                0x9d00cd90       0x14 build/default/debug/_ext/1407244131/drv_tmr_static.o
                0x9d00cd90                DRV_TMR0_ClientStatus

.text.DRV_TMR0_CounterValueSet
                0x9d00cda4       0x14
 .text.DRV_TMR0_CounterValueSet
                0x9d00cda4       0x14 build/default/debug/_ext/1407244131/drv_tmr_static.o
                0x9d00cda4                DRV_TMR0_CounterValueSet

.text.DRV_TMR0_CounterValueGet
                0x9d00cdb8       0x14
 .text.DRV_TMR0_CounterValueGet
                0x9d00cdb8       0x14 build/default/debug/_ext/1407244131/drv_tmr_static.o
                0x9d00cdb8                DRV_TMR0_CounterValueGet

.text.DRV_TMR0_PeriodValueSet
                0x9d00cdcc       0x14
 .text.DRV_TMR0_PeriodValueSet
                0x9d00cdcc       0x14 build/default/debug/_ext/1407244131/drv_tmr_static.o
                0x9d00cdcc                DRV_TMR0_PeriodValueSet

.text.DRV_TMR0_PeriodValueGet
                0x9d00cde0       0x14
 .text.DRV_TMR0_PeriodValueGet
                0x9d00cde0       0x14 build/default/debug/_ext/1407244131/drv_tmr_static.o
                0x9d00cde0                DRV_TMR0_PeriodValueGet

.text.DRV_TMR0_StopInIdleDisable
                0x9d00cdf4       0x14
 .text.DRV_TMR0_StopInIdleDisable
                0x9d00cdf4       0x14 build/default/debug/_ext/1407244131/drv_tmr_static.o
                0x9d00cdf4                DRV_TMR0_StopInIdleDisable

.text.DRV_TMR0_StopInIdleEnable
                0x9d00ce08       0x14
 .text.DRV_TMR0_StopInIdleEnable
                0x9d00ce08       0x14 build/default/debug/_ext/1407244131/drv_tmr_static.o
                0x9d00ce08                DRV_TMR0_StopInIdleEnable

.text.DRV_TMR1_ClientStatus
                0x9d00ce1c       0x14
 .text.DRV_TMR1_ClientStatus
                0x9d00ce1c       0x14 build/default/debug/_ext/1407244131/drv_tmr_static.o
                0x9d00ce1c                DRV_TMR1_ClientStatus

.text.DRV_TMR1_CounterValueSet
                0x9d00ce30       0x14
 .text.DRV_TMR1_CounterValueSet
                0x9d00ce30       0x14 build/default/debug/_ext/1407244131/drv_tmr_static.o
                0x9d00ce30                DRV_TMR1_CounterValueSet

.text.DRV_TMR1_CounterValueGet
                0x9d00ce44       0x14
 .text.DRV_TMR1_CounterValueGet
                0x9d00ce44       0x14 build/default/debug/_ext/1407244131/drv_tmr_static.o
                0x9d00ce44                DRV_TMR1_CounterValueGet

.text.DRV_TMR1_PeriodValueSet
                0x9d00ce58       0x14
 .text.DRV_TMR1_PeriodValueSet
                0x9d00ce58       0x14 build/default/debug/_ext/1407244131/drv_tmr_static.o
                0x9d00ce58                DRV_TMR1_PeriodValueSet

.text.DRV_TMR1_PeriodValueGet
                0x9d00ce6c       0x14
 .text.DRV_TMR1_PeriodValueGet
                0x9d00ce6c       0x14 build/default/debug/_ext/1407244131/drv_tmr_static.o
                0x9d00ce6c                DRV_TMR1_PeriodValueGet

.text.DRV_TMR1_StopInIdleDisable
                0x9d00ce80       0x14
 .text.DRV_TMR1_StopInIdleDisable
                0x9d00ce80       0x14 build/default/debug/_ext/1407244131/drv_tmr_static.o
                0x9d00ce80                DRV_TMR1_StopInIdleDisable

.text.DRV_TMR1_StopInIdleEnable
                0x9d00ce94       0x14
 .text.DRV_TMR1_StopInIdleEnable
                0x9d00ce94       0x14 build/default/debug/_ext/1407244131/drv_tmr_static.o
                0x9d00ce94                DRV_TMR1_StopInIdleEnable

.text.DRV_TMR2_ClientStatus
                0x9d00cea8       0x14
 .text.DRV_TMR2_ClientStatus
                0x9d00cea8       0x14 build/default/debug/_ext/1407244131/drv_tmr_static.o
                0x9d00cea8                DRV_TMR2_ClientStatus

.text.DRV_TMR2_CounterValueSet
                0x9d00cebc       0x14
 .text.DRV_TMR2_CounterValueSet
                0x9d00cebc       0x14 build/default/debug/_ext/1407244131/drv_tmr_static.o
                0x9d00cebc                DRV_TMR2_CounterValueSet

.text.DRV_TMR2_CounterValueGet
                0x9d00ced0       0x14
 .text.DRV_TMR2_CounterValueGet
                0x9d00ced0       0x14 build/default/debug/_ext/1407244131/drv_tmr_static.o
                0x9d00ced0                DRV_TMR2_CounterValueGet

.text.DRV_TMR2_PeriodValueSet
                0x9d00cee4       0x14
 .text.DRV_TMR2_PeriodValueSet
                0x9d00cee4       0x14 build/default/debug/_ext/1407244131/drv_tmr_static.o
                0x9d00cee4                DRV_TMR2_PeriodValueSet

.text.DRV_TMR2_PeriodValueGet
                0x9d00cef8       0x14
 .text.DRV_TMR2_PeriodValueGet
                0x9d00cef8       0x14 build/default/debug/_ext/1407244131/drv_tmr_static.o
                0x9d00cef8                DRV_TMR2_PeriodValueGet

.text.DRV_TMR2_StopInIdleDisable
                0x9d00cf0c       0x14
 .text.DRV_TMR2_StopInIdleDisable
                0x9d00cf0c       0x14 build/default/debug/_ext/1407244131/drv_tmr_static.o
                0x9d00cf0c                DRV_TMR2_StopInIdleDisable

.text.DRV_TMR2_StopInIdleEnable
                0x9d00cf20       0x14
 .text.DRV_TMR2_StopInIdleEnable
                0x9d00cf20       0x14 build/default/debug/_ext/1407244131/drv_tmr_static.o
                0x9d00cf20                DRV_TMR2_StopInIdleEnable

.text.DRV_TMR3_ClientStatus
                0x9d00cf34       0x14
 .text.DRV_TMR3_ClientStatus
                0x9d00cf34       0x14 build/default/debug/_ext/1407244131/drv_tmr_static.o
                0x9d00cf34                DRV_TMR3_ClientStatus

.text.DRV_TMR3_CounterValueSet
                0x9d00cf48       0x14
 .text.DRV_TMR3_CounterValueSet
                0x9d00cf48       0x14 build/default/debug/_ext/1407244131/drv_tmr_static.o
                0x9d00cf48                DRV_TMR3_CounterValueSet

.text.DRV_TMR3_CounterValueGet
                0x9d00cf5c       0x14
 .text.DRV_TMR3_CounterValueGet
                0x9d00cf5c       0x14 build/default/debug/_ext/1407244131/drv_tmr_static.o
                0x9d00cf5c                DRV_TMR3_CounterValueGet

.text.DRV_TMR3_PeriodValueSet
                0x9d00cf70       0x14
 .text.DRV_TMR3_PeriodValueSet
                0x9d00cf70       0x14 build/default/debug/_ext/1407244131/drv_tmr_static.o
                0x9d00cf70                DRV_TMR3_PeriodValueSet

.text.DRV_TMR3_PeriodValueGet
                0x9d00cf84       0x14
 .text.DRV_TMR3_PeriodValueGet
                0x9d00cf84       0x14 build/default/debug/_ext/1407244131/drv_tmr_static.o
                0x9d00cf84                DRV_TMR3_PeriodValueGet

.text.DRV_TMR3_StopInIdleDisable
                0x9d00cf98       0x14
 .text.DRV_TMR3_StopInIdleDisable
                0x9d00cf98       0x14 build/default/debug/_ext/1407244131/drv_tmr_static.o
                0x9d00cf98                DRV_TMR3_StopInIdleDisable

.text.DRV_TMR3_StopInIdleEnable
                0x9d00cfac       0x14
 .text.DRV_TMR3_StopInIdleEnable
                0x9d00cfac       0x14 build/default/debug/_ext/1407244131/drv_tmr_static.o
                0x9d00cfac                DRV_TMR3_StopInIdleEnable

.text.DRV_USART0_TransmitBufferIsFull
                0x9d00cfc0       0x14
 .text.DRV_USART0_TransmitBufferIsFull
                0x9d00cfc0       0x14 build/default/debug/_ext/327000265/drv_usart_static_byte_model.o
                0x9d00cfc0                DRV_USART0_TransmitBufferIsFull

.text.SYS_DEVCON_Initialize
                0x9d00cfd4       0x14
 .text.SYS_DEVCON_Initialize
                0x9d00cfd4       0x14 build/default/debug/_ext/340578644/sys_devcon.o
                0x9d00cfd4                SYS_DEVCON_Initialize

.text.SYS_PORTS_ChangeNotificationGlobalEnable
                0x9d00cfe8       0x14
 .text.SYS_PORTS_ChangeNotificationGlobalEnable
                0x9d00cfe8       0x14 build/default/debug/_ext/822048611/sys_ports_static.o
                0x9d00cfe8                SYS_PORTS_ChangeNotificationGlobalEnable

.text.SYS_PORTS_ChangeNotificationGlobalDisable
                0x9d00cffc       0x14
 .text.SYS_PORTS_ChangeNotificationGlobalDisable
                0x9d00cffc       0x14 build/default/debug/_ext/822048611/sys_ports_static.o
                0x9d00cffc                SYS_PORTS_ChangeNotificationGlobalDisable

.text.SYS_PORTS_GlobalChangeNotificationDisable
                0x9d00d010       0x14
 .text.SYS_PORTS_GlobalChangeNotificationDisable
                0x9d00d010       0x14 build/default/debug/_ext/822048611/sys_ports_static.o
                0x9d00d010                SYS_PORTS_GlobalChangeNotificationDisable

.text.SYS_PORTS_ChangeNotificationInIdleModeEnable
                0x9d00d024       0x14
 .text.SYS_PORTS_ChangeNotificationInIdleModeEnable
                0x9d00d024       0x14 build/default/debug/_ext/822048611/sys_ports_static.o
                0x9d00d024                SYS_PORTS_ChangeNotificationInIdleModeEnable

.text.SYS_PORTS_ChangeNotificationInIdleModeDisable
                0x9d00d038       0x14
 .text.SYS_PORTS_ChangeNotificationInIdleModeDisable
                0x9d00d038       0x14 build/default/debug/_ext/822048611/sys_ports_static.o
                0x9d00d038                SYS_PORTS_ChangeNotificationInIdleModeDisable

.text.jsmn_init
                0x9d00d04c       0x14
 .text.jsmn_init
                0x9d00d04c       0x14 build/default/debug/_ext/1360937237/jsmn.o
                0x9d00d04c                jsmn_init

.text.SYS_INT_Initialize
                0x9d00d060       0x14
 .text.SYS_INT_Initialize
                0x9d00d060       0x14 build/default/debug/_ext/122796885/sys_int_pic32.o
                0x9d00d060                SYS_INT_Initialize

.text.xPortGetFreeHeapSize
                0x9d00d074       0x14
 .text.xPortGetFreeHeapSize
                0x9d00d074       0x14 build/default/debug/_ext/1856876499/heap_1.o
                0x9d00d074                xPortGetFreeHeapSize

.text.xQueueIsQueueFullFromISR
                0x9d00d088       0x14
 .text.xQueueIsQueueFullFromISR
                0x9d00d088       0x14 build/default/debug/_ext/1128951024/queue.o
                0x9d00d088                xQueueIsQueueFullFromISR

.text.vTaskSuspendAll
                0x9d00d09c       0x14
 .text.vTaskSuspendAll
                0x9d00d09c       0x14 build/default/debug/_ext/1128951024/tasks.o
                0x9d00d09c                vTaskSuspendAll

.text.vTaskSetTimeOutState
                0x9d00d0b0       0x14
 .text.vTaskSetTimeOutState
                0x9d00d0b0       0x14 build/default/debug/_ext/1128951024/tasks.o
                0x9d00d0b0                vTaskSetTimeOutState

.text.DRV_OC0_FaultHasOccurred
                0x9d00d0c4       0x10
 .text.DRV_OC0_FaultHasOccurred
                0x9d00d0c4       0x10 build/default/debug/_ext/1047219354/drv_oc_static.o
                0x9d00d0c4                DRV_OC0_FaultHasOccurred

.text.DRV_OC1_FaultHasOccurred
                0x9d00d0d4       0x10
 .text.DRV_OC1_FaultHasOccurred
                0x9d00d0d4       0x10 build/default/debug/_ext/1047219354/drv_oc_static.o
                0x9d00d0d4                DRV_OC1_FaultHasOccurred

.text.DRV_OC2_FaultHasOccurred
                0x9d00d0e4       0x10
 .text.DRV_OC2_FaultHasOccurred
                0x9d00d0e4       0x10 build/default/debug/_ext/1047219354/drv_oc_static.o
                0x9d00d0e4                DRV_OC2_FaultHasOccurred

.text.DRV_OC3_FaultHasOccurred
                0x9d00d0f4       0x10
 .text.DRV_OC3_FaultHasOccurred
                0x9d00d0f4       0x10 build/default/debug/_ext/1047219354/drv_oc_static.o
                0x9d00d0f4                DRV_OC3_FaultHasOccurred

.text.DRV_TMR0_CounterClear
                0x9d00d104       0x10
 .text.DRV_TMR0_CounterClear
                0x9d00d104       0x10 build/default/debug/_ext/1407244131/drv_tmr_static.o
                0x9d00d104                DRV_TMR0_CounterClear

.text.DRV_TMR1_CounterClear
                0x9d00d114       0x10
 .text.DRV_TMR1_CounterClear
                0x9d00d114       0x10 build/default/debug/_ext/1407244131/drv_tmr_static.o
                0x9d00d114                DRV_TMR1_CounterClear

.text.DRV_TMR2_CounterClear
                0x9d00d124       0x10
 .text.DRV_TMR2_CounterClear
                0x9d00d124       0x10 build/default/debug/_ext/1407244131/drv_tmr_static.o
                0x9d00d124                DRV_TMR2_CounterClear

.text.DRV_TMR3_CounterClear
                0x9d00d134       0x10
 .text.DRV_TMR3_CounterClear
                0x9d00d134       0x10 build/default/debug/_ext/1407244131/drv_tmr_static.o
                0x9d00d134                DRV_TMR3_CounterClear

.text.DRV_USART0_ErrorGet
                0x9d00d144       0x10
 .text.DRV_USART0_ErrorGet
                0x9d00d144       0x10 build/default/debug/_ext/327000265/drv_usart_static.o
                0x9d00d144                DRV_USART0_ErrorGet

.text.SYS_CLK_SecondaryOscillatorIsEnabled
                0x9d00d154       0x10
 .text.SYS_CLK_SecondaryOscillatorIsEnabled
                0x9d00d154       0x10 build/default/debug/_ext/639803181/sys_clk_pic32mx.o
                0x9d00d154                SYS_CLK_SecondaryOscillatorIsEnabled

.text.SYS_DEVCON_Reinitialize
                0x9d00d164       0x10
 .text.SYS_DEVCON_Reinitialize
                0x9d00d164       0x10 build/default/debug/_ext/340578644/sys_devcon.o
                0x9d00d164                SYS_DEVCON_Reinitialize

.rodata         0x9d00d174       0x10
 .rodata        0x9d00d174       0x10 build/default/debug/_ext/1360937237/Control.o

.text.pcTaskGetName
                0x9d00d184       0x10
 .text.pcTaskGetName
                0x9d00d184       0x10 build/default/debug/_ext/1128951024/tasks.o
                0x9d00d184                pcTaskGetName

.text.vTaskMissedYield
                0x9d00d194       0x10
 .text.vTaskMissedYield
                0x9d00d194       0x10 build/default/debug/_ext/1128951024/tasks.o
                0x9d00d194                vTaskMissedYield

.text.__exception_handler_break
                0x9d00d1a4        0xc
 .text.__exception_handler_break
                0x9d00d1a4        0xc c:/program files (x86)/microchip/xc32/v1.44/bin/bin/../../lib/gcc/pic32mx/4.8.3/../../../../pic32mx/lib\software-debug-break.o
                0x9d00d1a4                __exception_handler_break

.text.SYS_CLK_SystemFrequencyGet
                0x9d00d1b0        0xc
 .text.SYS_CLK_SystemFrequencyGet
                0x9d00d1b0        0xc build/default/debug/_ext/639803181/sys_clk_pic32mx.o
                0x9d00d1b0                SYS_CLK_SystemFrequencyGet

.text.SYS_CLK_PeripheralFrequencyGet
                0x9d00d1bc        0xc
 .text.SYS_CLK_PeripheralFrequencyGet
                0x9d00d1bc        0xc build/default/debug/_ext/639803181/sys_clk_pic32mx.o
                0x9d00d1bc                SYS_CLK_PeripheralFrequencyGet

.rodata         0x9d00d1c8       0x18
 .rodata        0x9d00d1c8        0xc build/default/debug/_ext/1360937237/motor_encoder_thread.o
 .rodata        0x9d00d1d4        0xc build/default/debug/_ext/24337685/osal_freertos.o

.text.OSAL_Name
                0x9d00d1e0        0xc
 .text.OSAL_Name
                0x9d00d1e0        0xc build/default/debug/_ext/24337685/osal_freertos.o
                0x9d00d1e0                OSAL_Name

.text.uxQueueMessagesWaitingFromISR
                0x9d00d1ec        0xc
 .text.uxQueueMessagesWaitingFromISR
                0x9d00d1ec        0xc build/default/debug/_ext/1128951024/queue.o
                0x9d00d1ec                uxQueueMessagesWaitingFromISR

.text.xQueueIsQueueEmptyFromISR
                0x9d00d1f8        0xc
 .text.xQueueIsQueueEmptyFromISR
                0x9d00d1f8        0xc build/default/debug/_ext/1128951024/queue.o
                0x9d00d1f8                xQueueIsQueueEmptyFromISR

.text.xTaskGetTickCount
                0x9d00d204        0xc
 .text.xTaskGetTickCount
                0x9d00d204        0xc build/default/debug/_ext/1128951024/tasks.o
                0x9d00d204                xTaskGetTickCount

.text.xTaskGetTickCountFromISR
                0x9d00d210        0xc
 .text.xTaskGetTickCountFromISR
                0x9d00d210        0xc build/default/debug/_ext/1128951024/tasks.o
                0x9d00d210                xTaskGetTickCountFromISR

.text.uxTaskGetNumberOfTasks
                0x9d00d21c        0xc
 .text.uxTaskGetNumberOfTasks
                0x9d00d21c        0xc build/default/debug/_ext/1128951024/tasks.o
                0x9d00d21c                uxTaskGetNumberOfTasks

.text.xTaskGetCurrentTaskHandle
                0x9d00d228        0xc
 .text.xTaskGetCurrentTaskHandle
                0x9d00d228        0xc build/default/debug/_ext/1128951024/tasks.o
                0x9d00d228                xTaskGetCurrentTaskHandle

.text.DRV_OC_CompareValuesSingleSet
                0x9d00d234        0x8
 .text.DRV_OC_CompareValuesSingleSet
                0x9d00d234        0x8 build/default/debug/_ext/1047219354/drv_oc_mapping.o
                0x9d00d234                DRV_OC_CompareValuesSingleSet

.text.DRV_OC_CompareValuesDualSet
                0x9d00d23c        0x8
 .text.DRV_OC_CompareValuesDualSet
                0x9d00d23c        0x8 build/default/debug/_ext/1047219354/drv_oc_mapping.o
                0x9d00d23c                DRV_OC_CompareValuesDualSet

.text.DRV_TMR1_CounterFrequencyGet
                0x9d00d244        0x8
 .text.DRV_TMR1_CounterFrequencyGet
                0x9d00d244        0x8 build/default/debug/_ext/1407244131/drv_tmr_static.o
                0x9d00d244                DRV_TMR1_CounterFrequencyGet

.text.DRV_TMR2_CounterFrequencyGet
                0x9d00d24c        0x8
 .text.DRV_TMR2_CounterFrequencyGet
                0x9d00d24c        0x8 build/default/debug/_ext/1407244131/drv_tmr_static.o
                0x9d00d24c                DRV_TMR2_CounterFrequencyGet

.text.DRV_TMR_Status
                0x9d00d254        0x8
 .text.DRV_TMR_Status
                0x9d00d254        0x8 build/default/debug/_ext/1407244131/drv_tmr_mapping.o
                0x9d00d254                DRV_TMR_Status

.text.DRV_TMR_Tasks
                0x9d00d25c        0x8
 .text.DRV_TMR_Tasks
                0x9d00d25c        0x8 build/default/debug/_ext/1407244131/drv_tmr_mapping.o
                0x9d00d25c                DRV_TMR_Tasks

.text.DRV_TMR_AlarmRegister
                0x9d00d264        0x8
 .text.DRV_TMR_AlarmRegister
                0x9d00d264        0x8 build/default/debug/_ext/1407244131/drv_tmr_mapping.o
                0x9d00d264                DRV_TMR_AlarmRegister

.text.DRV_TMR_AlarmDisable
                0x9d00d26c        0x8
 .text.DRV_TMR_AlarmDisable
                0x9d00d26c        0x8 build/default/debug/_ext/1407244131/drv_tmr_mapping.o
                0x9d00d26c                DRV_TMR_AlarmDisable

.text.DRV_TMR_AlarmEnable
                0x9d00d274        0x8
 .text.DRV_TMR_AlarmEnable
                0x9d00d274        0x8 build/default/debug/_ext/1407244131/drv_tmr_mapping.o
                0x9d00d274                DRV_TMR_AlarmEnable

.text.DRV_TMR_AlarmPeriodSet
                0x9d00d27c        0x8
 .text.DRV_TMR_AlarmPeriodSet
                0x9d00d27c        0x8 build/default/debug/_ext/1407244131/drv_tmr_mapping.o
                0x9d00d27c                DRV_TMR_AlarmPeriodSet

.text.DRV_TMR_AlarmPeriodGet
                0x9d00d284        0x8
 .text.DRV_TMR_AlarmPeriodGet
                0x9d00d284        0x8 build/default/debug/_ext/1407244131/drv_tmr_mapping.o
                0x9d00d284                DRV_TMR_AlarmPeriodGet

.text.DRV_TMR_AlarmDeregister
                0x9d00d28c        0x8
 .text.DRV_TMR_AlarmDeregister
                0x9d00d28c        0x8 build/default/debug/_ext/1407244131/drv_tmr_mapping.o
                0x9d00d28c                DRV_TMR_AlarmDeregister

.text.DRV_TMR_AlarmHasElapsed
                0x9d00d294        0x8
 .text.DRV_TMR_AlarmHasElapsed
                0x9d00d294        0x8 build/default/debug/_ext/1407244131/drv_tmr_mapping.o
                0x9d00d294                DRV_TMR_AlarmHasElapsed

.text.DRV_TMR_OperationModeGet
                0x9d00d29c        0x8
 .text.DRV_TMR_OperationModeGet
                0x9d00d29c        0x8 build/default/debug/_ext/1407244131/drv_tmr_mapping.o
                0x9d00d29c                DRV_TMR_OperationModeGet

.text.DRV_TMR_GateModeSet
                0x9d00d2a4        0x8
 .text.DRV_TMR_GateModeSet
                0x9d00d2a4        0x8 build/default/debug/_ext/1407244131/drv_tmr_mapping.o
                0x9d00d2a4                DRV_TMR_GateModeSet

.text.DRV_TMR_GateModeClear
                0x9d00d2ac        0x8
 .text.DRV_TMR_GateModeClear
                0x9d00d2ac        0x8 build/default/debug/_ext/1407244131/drv_tmr_mapping.o
                0x9d00d2ac                DRV_TMR_GateModeClear

.text.DRV_USART0_Status
                0x9d00d2b4        0x8
 .text.DRV_USART0_Status
                0x9d00d2b4        0x8 build/default/debug/_ext/327000265/drv_usart_static.o
                0x9d00d2b4                DRV_USART0_Status

.text.DRV_USART0_Open
                0x9d00d2bc        0x8
 .text.DRV_USART0_Open
                0x9d00d2bc        0x8 build/default/debug/_ext/327000265/drv_usart_static.o
                0x9d00d2bc                DRV_USART0_Open

.text.DRV_USART0_Close
                0x9d00d2c4        0x8
 .text.DRV_USART0_Close
                0x9d00d2c4        0x8 build/default/debug/_ext/327000265/drv_usart_static.o
                0x9d00d2c4                DRV_USART0_Close

.text.DRV_USART0_ClientStatus
                0x9d00d2cc        0x8
 .text.DRV_USART0_ClientStatus
                0x9d00d2cc        0x8 build/default/debug/_ext/327000265/drv_usart_static.o
                0x9d00d2cc                DRV_USART0_ClientStatus

.text.DRV_USART0_ReceiverBufferSizeGet
                0x9d00d2d4        0x8
 .text.DRV_USART0_ReceiverBufferSizeGet
                0x9d00d2d4        0x8 build/default/debug/_ext/327000265/drv_usart_static_byte_model.o
                0x9d00d2d4                DRV_USART0_ReceiverBufferSizeGet

.text.DRV_USART0_TransmitBufferSizeGet
                0x9d00d2dc        0x8
 .text.DRV_USART0_TransmitBufferSizeGet
                0x9d00d2dc        0x8 build/default/debug/_ext/327000265/drv_usart_static_byte_model.o
                0x9d00d2dc                DRV_USART0_TransmitBufferSizeGet

.text.SYS_CLK_ReferenceFrequencyGet
                0x9d00d2e4        0x8
 .text.SYS_CLK_ReferenceFrequencyGet
                0x9d00d2e4        0x8 build/default/debug/_ext/639803181/sys_clk_pic32mx.o
                0x9d00d2e4                SYS_CLK_ReferenceFrequencyGet

.text.SYS_DEVCON_Deinitialize
                0x9d00d2ec        0x8
 .text.SYS_DEVCON_Deinitialize
                0x9d00d2ec        0x8 build/default/debug/_ext/340578644/sys_devcon.o
                0x9d00d2ec                SYS_DEVCON_Deinitialize

.text.SYS_DEVCON_Status
                0x9d00d2f4        0x8
 .text.SYS_DEVCON_Status
                0x9d00d2f4        0x8 build/default/debug/_ext/340578644/sys_devcon.o
                0x9d00d2f4                SYS_DEVCON_Status

.text.SYS_DEVCON_Tasks
                0x9d00d2fc        0x8
 .text.SYS_DEVCON_Tasks
                0x9d00d2fc        0x8 build/default/debug/_ext/340578644/sys_devcon.o
                0x9d00d2fc                SYS_DEVCON_Tasks

.text.SYS_PORTS_LatchedGet
                0x9d00d304        0x8
 .text.SYS_PORTS_LatchedGet
                0x9d00d304        0x8 build/default/debug/_ext/822048611/sys_ports_static.o
                0x9d00d304                SYS_PORTS_LatchedGet

.text.SYS_PORTS_InterruptStatusGet
                0x9d00d30c        0x8
 .text.SYS_PORTS_InterruptStatusGet
                0x9d00d30c        0x8 build/default/debug/_ext/822048611/sys_ports_static.o
                0x9d00d30c                SYS_PORTS_InterruptStatusGet

.text.SYS_PORTS_PinLatchedGet
                0x9d00d314        0x8
 .text.SYS_PORTS_PinLatchedGet
                0x9d00d314        0x8 build/default/debug/_ext/822048611/sys_ports_static.o
                0x9d00d314                SYS_PORTS_PinLatchedGet

.text.SYS_PORTS_PinPullUpEnable
                0x9d00d31c        0x8
 .text.SYS_PORTS_PinPullUpEnable
                0x9d00d31c        0x8 build/default/debug/_ext/822048611/sys_ports_static.o
                0x9d00d31c                SYS_PORTS_PinPullUpEnable

.text.SYS_PORTS_PinPullUpDisable
                0x9d00d324        0x8
 .text.SYS_PORTS_PinPullUpDisable
                0x9d00d324        0x8 build/default/debug/_ext/822048611/sys_ports_static.o
                0x9d00d324                SYS_PORTS_PinPullUpDisable

.text.SYS_PORTS_PinPullDownEnable
                0x9d00d32c        0x8
 .text.SYS_PORTS_PinPullDownEnable
                0x9d00d32c        0x8 build/default/debug/_ext/822048611/sys_ports_static.o
                0x9d00d32c                SYS_PORTS_PinPullDownEnable

.text.SYS_PORTS_PinPullDownDisable
                0x9d00d334        0x8
 .text.SYS_PORTS_PinPullDownDisable
                0x9d00d334        0x8 build/default/debug/_ext/822048611/sys_ports_static.o
                0x9d00d334                SYS_PORTS_PinPullDownDisable

.text.SYS_PORTS_InterruptEnable
                0x9d00d33c        0x8
 .text.SYS_PORTS_InterruptEnable
                0x9d00d33c        0x8 build/default/debug/_ext/822048611/sys_ports_static.o
                0x9d00d33c                SYS_PORTS_InterruptEnable

.text.SYS_PORTS_RemapInput
                0x9d00d344        0x8
 .text.SYS_PORTS_RemapInput
                0x9d00d344        0x8 build/default/debug/_ext/822048611/sys_ports_static.o
                0x9d00d344                SYS_PORTS_RemapInput

.text.SYS_PORTS_RemapOutput
                0x9d00d34c        0x8
 .text.SYS_PORTS_RemapOutput
                0x9d00d34c        0x8 build/default/debug/_ext/822048611/sys_ports_static.o
                0x9d00d34c                SYS_PORTS_RemapOutput

.text._SYS_Tasks
                0x9d00d354        0x8
 .text._SYS_Tasks
                0x9d00d354        0x8 build/default/debug/_ext/1688732426/system_tasks.o

.text.OSAL_Initialize
                0x9d00d35c        0x8
 .text.OSAL_Initialize
                0x9d00d35c        0x8 build/default/debug/_ext/24337685/osal_freertos.o
                0x9d00d35c                OSAL_Initialize

.text.vPortFree
                0x9d00d364        0x8
 .text.vPortFree
                0x9d00d364        0x8 build/default/debug/_ext/1856876499/heap_1.o
                0x9d00d364                vPortFree

.text.vPortInitialiseBlocks
                0x9d00d36c        0x8
 .text.vPortInitialiseBlocks
                0x9d00d36c        0x8 build/default/debug/_ext/1856876499/heap_1.o
                0x9d00d36c                vPortInitialiseBlocks

.text.vPortEndScheduler
                0x9d00d374        0x8
 .text.vPortEndScheduler
                0x9d00d374        0x8 build/default/debug/_ext/12131622/port.o
                0x9d00d374                vPortEndScheduler

.text.vListInitialiseItem
                0x9d00d37c        0x8
 .text.vListInitialiseItem
                0x9d00d37c        0x8 build/default/debug/_ext/1128951024/list.o
                0x9d00d37c                vListInitialiseItem

.rodata         0x9d00d384       0x10
 .rodata        0x9d00d384        0x8 build/default/debug/_ext/1128951024/tasks.o
 .rodata        0x9d00d38c        0x8 build/default/debug/_ext/1128951024/timers.o

.text.xTimerGetTimerDaemonTaskHandle
                0x9d00d394        0x8
 .text.xTimerGetTimerDaemonTaskHandle
                0x9d00d394        0x8 build/default/debug/_ext/1128951024/timers.o
                0x9d00d394                xTimerGetTimerDaemonTaskHandle

.text.xTimerGetPeriod
                0x9d00d39c        0x8
 .text.xTimerGetPeriod
                0x9d00d39c        0x8 build/default/debug/_ext/1128951024/timers.o
                0x9d00d39c                xTimerGetPeriod

.text.xTimerGetExpiryTime
                0x9d00d3a4        0x8
 .text.xTimerGetExpiryTime
                0x9d00d3a4        0x8 build/default/debug/_ext/1128951024/timers.o
                0x9d00d3a4                xTimerGetExpiryTime

.text.pcTimerGetName
                0x9d00d3ac        0x8
 .text.pcTimerGetName
                0x9d00d3ac        0x8 build/default/debug/_ext/1128951024/timers.o
                0x9d00d3ac                pcTimerGetName

.text._on_reset
                0x9d00d3b4        0x8
 .text._on_reset
                0x9d00d3b4        0x8 c:/program files (x86)/microchip/xc32/v1.44/bin/bin/../../lib/gcc/pic32mx/4.8.3/../../../../pic32mx/lib\libpic32.a(default-on-reset.o)
                0x9d00d3b4                _on_reset

.text._on_bootstrap
                0x9d00d3bc        0x8
 .text._on_bootstrap
                0x9d00d3bc        0x8 c:/program files (x86)/microchip/xc32/v1.44/bin/bin/../../lib/gcc/pic32mx/4.8.3/../../../../pic32mx/lib\libpic32.a(default-on-bootstrap.o)
                0x9d00d3bc                _on_bootstrap

.rodata         0x9d00d3c4        0x4
 .rodata        0x9d00d3c4        0x4 build/default/debug/_ext/12131622/port.o
                0x9d00d3c4                xISRStackTop

.text%z218      0x00000000        0x0
 .text          0x00000000        0x0 c:/program files (x86)/microchip/xc32/v1.44/bin/bin/../../lib/gcc/pic32mx/4.8.3/../../../../pic32mx/lib\libpic32.a(xc32_uart.o)

.text%z219      0x00000000        0x0
 .text          0x00000000        0x0 c:/program files (x86)/microchip/xc32/v1.44/bin/bin/../../lib/gcc/pic32mx/4.8.3/../../../../pic32mx/lib\libpic32.a(_mon_putc.o)

.text%z220      0x00000000        0x0
 .text          0x00000000        0x0 c:/program files (x86)/microchip/xc32/v1.44/bin/bin/../../lib/gcc/pic32mx/4.8.3/../../../../pic32mx/lib\libpic32.a(write.o)

.text%z221      0x00000000        0x0
 .text          0x00000000        0x0 c:/program files (x86)/microchip/xc32/v1.44/bin/bin/../../lib/gcc/pic32mx/4.8.3/../../../../pic32mx/lib\libm.a(sitofp.o)

.text%z222      0x00000000        0x0
 .text          0x00000000        0x0 c:/program files (x86)/microchip/xc32/v1.44/bin/bin/../../lib/gcc/pic32mx/4.8.3/../../../../pic32mx/lib\libm.a(fptoli.o)

.text%z223      0x00000000        0x0
 .text          0x00000000        0x0 c:/program files (x86)/microchip/xc32/v1.44/bin/bin/../../lib/gcc/pic32mx/4.8.3/../../../../pic32mx/lib\libm.a(fpcmp.o)

.text%z224      0x00000000        0x0
 .text          0x00000000        0x0 c:/program files (x86)/microchip/xc32/v1.44/bin/bin/../../lib/gcc/pic32mx/4.8.3/../../../../pic32mx/lib\libm.a(fp32subadd.o)

.text%z225      0x00000000        0x0
 .text          0x00000000        0x0 c:/program files (x86)/microchip/xc32/v1.44/bin/bin/../../lib/gcc/pic32mx/4.8.3/../../../../pic32mx/lib\libm.a(fp32mul.o)

.text%z226      0x00000000        0x0
 .text          0x00000000        0x0 c:/program files (x86)/microchip/xc32/v1.44/bin/bin/../../lib/gcc/pic32mx/4.8.3/../../../../pic32mx/lib\libm.a(fp32div.o)

.text%z227      0x00000000        0x0
 .text          0x00000000        0x0 c:/program files (x86)/microchip/xc32/v1.44/bin/bin/../../lib/gcc/pic32mx/4.8.3/../../../../pic32mx/lib\libc.a(_flsbuf_simple.o)

.text%z228      0x00000000        0x0
 .text          0x00000000        0x0 c:/program files (x86)/microchip/xc32/v1.44/bin/bin/../../lib/gcc/pic32mx/4.8.3/../../../../pic32mx/lib\libc.a(_iob.o)

.text%z229      0x00000000        0x0
 .text          0x00000000        0x0 c:/program files (x86)/microchip/xc32/v1.44/bin/bin/../../lib/gcc/pic32mx/4.8.3/../../../../pic32mx/lib\libc.a(_fputc_simple.o)

.text%z230      0x00000000        0x0
 .text          0x00000000        0x0 c:/program files (x86)/microchip/xc32/v1.44/bin/bin/../../lib/gcc/pic32mx/4.8.3/../../../../pic32mx/lib\libc.a(doprnt_cdnopuxX.eo)

.text%z231      0x00000000        0x0
 .text          0x00000000        0x0 c:/program files (x86)/microchip/xc32/v1.44/bin/bin/../../lib/gcc/pic32mx/4.8.3/../../../../pic32mx/lib\libc.a(sprintf_cdnopuxX.eo)

.text%z232      0x00000000        0x0
 .text          0x00000000        0x0 c:/program files (x86)/microchip/xc32/v1.44/bin/bin/../../lib/gcc/pic32mx/4.8.3/../../../../pic32mx/lib\libc.a(strncmp.o)

.text%z233      0x00000000        0x0
 .text          0x00000000        0x0 c:/program files (x86)/microchip/xc32/v1.44/bin/bin/../../lib/gcc/pic32mx/4.8.3/../../../../pic32mx/lib\libc.a(ctype.o)

.text%z234      0x00000000        0x0
 .text          0x00000000        0x0 c:/program files (x86)/microchip/xc32/v1.44/bin/bin/../../lib/gcc/pic32mx/4.8.3/../../../../pic32mx/lib\libc.a(atoi.o)

.text%z235      0x00000000        0x0
 .text          0x00000000        0x0 c:/program files (x86)/microchip/xc32/v1.44/bin/bin/../../lib/gcc/pic32mx/4.8.3/../../../../pic32mx/lib\libpic32.a(defaultinterrupt.o)

.text%z236      0x00000000        0x0
 .text          0x00000000        0x0 c:/program files (x86)/microchip/xc32/v1.44/bin/bin/../../lib/gcc/pic32mx/4.8.3/../../../../pic32mx/lib\libpic32.a(vector51.o)

.text%z237      0x00000000        0x0
 .text          0x00000000        0x0 c:/program files (x86)/microchip/xc32/v1.44/bin/bin/../../lib/gcc/pic32mx/4.8.3/../../../../pic32mx/lib\libpic32.a(vector50.o)

.text%z238      0x00000000        0x0
 .text          0x00000000        0x0 c:/program files (x86)/microchip/xc32/v1.44/bin/bin/../../lib/gcc/pic32mx/4.8.3/../../../../pic32mx/lib\libpic32.a(vector49.o)

.text%z239      0x00000000        0x0
 .text          0x00000000        0x0 c:/program files (x86)/microchip/xc32/v1.44/bin/bin/../../lib/gcc/pic32mx/4.8.3/../../../../pic32mx/lib\libpic32.a(vector48.o)

.text%z240      0x00000000        0x0
 .text          0x00000000        0x0 c:/program files (x86)/microchip/xc32/v1.44/bin/bin/../../lib/gcc/pic32mx/4.8.3/../../../../pic32mx/lib\libpic32.a(vector47.o)

.text%z241      0x00000000        0x0
 .text          0x00000000        0x0 c:/program files (x86)/microchip/xc32/v1.44/bin/bin/../../lib/gcc/pic32mx/4.8.3/../../../../pic32mx/lib\libpic32.a(vector46.o)

.text%z242      0x00000000        0x0
 .text          0x00000000        0x0 c:/program files (x86)/microchip/xc32/v1.44/bin/bin/../../lib/gcc/pic32mx/4.8.3/../../../../pic32mx/lib\libpic32.a(vector45.o)

.text%z243      0x00000000        0x0
 .text          0x00000000        0x0 c:/program files (x86)/microchip/xc32/v1.44/bin/bin/../../lib/gcc/pic32mx/4.8.3/../../../../pic32mx/lib\libpic32.a(vector44.o)

.text%z244      0x00000000        0x0
 .text          0x00000000        0x0 c:/program files (x86)/microchip/xc32/v1.44/bin/bin/../../lib/gcc/pic32mx/4.8.3/../../../../pic32mx/lib\libpic32.a(vector43.o)

.text%z245      0x00000000        0x0
 .text          0x00000000        0x0 c:/program files (x86)/microchip/xc32/v1.44/bin/bin/../../lib/gcc/pic32mx/4.8.3/../../../../pic32mx/lib\libpic32.a(vector42.o)

.text%z246      0x00000000        0x0
 .text          0x00000000        0x0 c:/program files (x86)/microchip/xc32/v1.44/bin/bin/../../lib/gcc/pic32mx/4.8.3/../../../../pic32mx/lib\libpic32.a(vector41.o)

.text%z247      0x00000000        0x0
 .text          0x00000000        0x0 c:/program files (x86)/microchip/xc32/v1.44/bin/bin/../../lib/gcc/pic32mx/4.8.3/../../../../pic32mx/lib\libpic32.a(vector40.o)

.text%z248      0x00000000        0x0
 .text          0x00000000        0x0 c:/program files (x86)/microchip/xc32/v1.44/bin/bin/../../lib/gcc/pic32mx/4.8.3/../../../../pic32mx/lib\libpic32.a(vector39.o)

.text%z249      0x00000000        0x0
 .text          0x00000000        0x0 c:/program files (x86)/microchip/xc32/v1.44/bin/bin/../../lib/gcc/pic32mx/4.8.3/../../../../pic32mx/lib\libpic32.a(vector38.o)

.text%z250      0x00000000        0x0
 .text          0x00000000        0x0 c:/program files (x86)/microchip/xc32/v1.44/bin/bin/../../lib/gcc/pic32mx/4.8.3/../../../../pic32mx/lib\libpic32.a(vector37.o)

.text%z251      0x00000000        0x0
 .text          0x00000000        0x0 c:/program files (x86)/microchip/xc32/v1.44/bin/bin/../../lib/gcc/pic32mx/4.8.3/../../../../pic32mx/lib\libpic32.a(vector36.o)

.text%z252      0x00000000        0x0
 .text          0x00000000        0x0 c:/program files (x86)/microchip/xc32/v1.44/bin/bin/../../lib/gcc/pic32mx/4.8.3/../../../../pic32mx/lib\libpic32.a(vector35.o)

.text%z253      0x00000000        0x0
 .text          0x00000000        0x0 c:/program files (x86)/microchip/xc32/v1.44/bin/bin/../../lib/gcc/pic32mx/4.8.3/../../../../pic32mx/lib\libpic32.a(vector34.o)

.text%z254      0x00000000        0x0
 .text          0x00000000        0x0 c:/program files (x86)/microchip/xc32/v1.44/bin/bin/../../lib/gcc/pic32mx/4.8.3/../../../../pic32mx/lib\libpic32.a(vector33.o)

.text%z255      0x00000000        0x0
 .text          0x00000000        0x0 c:/program files (x86)/microchip/xc32/v1.44/bin/bin/../../lib/gcc/pic32mx/4.8.3/../../../../pic32mx/lib\libpic32.a(vector32.o)

.text%z256      0x00000000        0x0
 .text          0x00000000        0x0 c:/program files (x86)/microchip/xc32/v1.44/bin/bin/../../lib/gcc/pic32mx/4.8.3/../../../../pic32mx/lib\libpic32.a(vector31.o)

.text%z257      0x00000000        0x0
 .text          0x00000000        0x0 c:/program files (x86)/microchip/xc32/v1.44/bin/bin/../../lib/gcc/pic32mx/4.8.3/../../../../pic32mx/lib\libpic32.a(vector30.o)

.text%z258      0x00000000        0x0
 .text          0x00000000        0x0 c:/program files (x86)/microchip/xc32/v1.44/bin/bin/../../lib/gcc/pic32mx/4.8.3/../../../../pic32mx/lib\libpic32.a(vector29.o)

.text%z259      0x00000000        0x0
 .text          0x00000000        0x0 c:/program files (x86)/microchip/xc32/v1.44/bin/bin/../../lib/gcc/pic32mx/4.8.3/../../../../pic32mx/lib\libpic32.a(vector28.o)

.text%z260      0x00000000        0x0
 .text          0x00000000        0x0 c:/program files (x86)/microchip/xc32/v1.44/bin/bin/../../lib/gcc/pic32mx/4.8.3/../../../../pic32mx/lib\libpic32.a(vector27.o)

.text%z261      0x00000000        0x0
 .text          0x00000000        0x0 c:/program files (x86)/microchip/xc32/v1.44/bin/bin/../../lib/gcc/pic32mx/4.8.3/../../../../pic32mx/lib\libpic32.a(vector26.o)

.text%z262      0x00000000        0x0
 .text          0x00000000        0x0 c:/program files (x86)/microchip/xc32/v1.44/bin/bin/../../lib/gcc/pic32mx/4.8.3/../../../../pic32mx/lib\libpic32.a(vector25.o)

.text%z263      0x00000000        0x0
 .text          0x00000000        0x0 c:/program files (x86)/microchip/xc32/v1.44/bin/bin/../../lib/gcc/pic32mx/4.8.3/../../../../pic32mx/lib\libpic32.a(vector23.o)

.text%z264      0x00000000        0x0
 .text          0x00000000        0x0 c:/program files (x86)/microchip/xc32/v1.44/bin/bin/../../lib/gcc/pic32mx/4.8.3/../../../../pic32mx/lib\libpic32.a(vector22.o)

.text%z265      0x00000000        0x0
 .text          0x00000000        0x0 c:/program files (x86)/microchip/xc32/v1.44/bin/bin/../../lib/gcc/pic32mx/4.8.3/../../../../pic32mx/lib\libpic32.a(vector21.o)

.text%z266      0x00000000        0x0
 .text          0x00000000        0x0 c:/program files (x86)/microchip/xc32/v1.44/bin/bin/../../lib/gcc/pic32mx/4.8.3/../../../../pic32mx/lib\libpic32.a(vector18.o)

.text%z267      0x00000000        0x0
 .text          0x00000000        0x0 c:/program files (x86)/microchip/xc32/v1.44/bin/bin/../../lib/gcc/pic32mx/4.8.3/../../../../pic32mx/lib\libpic32.a(vector17.o)

.text%z268      0x00000000        0x0
 .text          0x00000000        0x0 c:/program files (x86)/microchip/xc32/v1.44/bin/bin/../../lib/gcc/pic32mx/4.8.3/../../../../pic32mx/lib\libpic32.a(vector14.o)

.text%z269      0x00000000        0x0
 .text          0x00000000        0x0 c:/program files (x86)/microchip/xc32/v1.44/bin/bin/../../lib/gcc/pic32mx/4.8.3/../../../../pic32mx/lib\libpic32.a(vector13.o)

.text%z270      0x00000000        0x0
 .text          0x00000000        0x0 c:/program files (x86)/microchip/xc32/v1.44/bin/bin/../../lib/gcc/pic32mx/4.8.3/../../../../pic32mx/lib\libpic32.a(vector11.o)

.text%z271      0x00000000        0x0
 .text          0x00000000        0x0 c:/program files (x86)/microchip/xc32/v1.44/bin/bin/../../lib/gcc/pic32mx/4.8.3/../../../../pic32mx/lib\libpic32.a(vector10.o)

.text%z272      0x00000000        0x0
 .text          0x00000000        0x0 c:/program files (x86)/microchip/xc32/v1.44/bin/bin/../../lib/gcc/pic32mx/4.8.3/../../../../pic32mx/lib\libpic32.a(vector9.o)

.text%z273      0x00000000        0x0
 .text          0x00000000        0x0 c:/program files (x86)/microchip/xc32/v1.44/bin/bin/../../lib/gcc/pic32mx/4.8.3/../../../../pic32mx/lib\libpic32.a(vector7.o)

.text%z274      0x00000000        0x0
 .text          0x00000000        0x0 c:/program files (x86)/microchip/xc32/v1.44/bin/bin/../../lib/gcc/pic32mx/4.8.3/../../../../pic32mx/lib\libpic32.a(vector6.o)

.text%z275      0x00000000        0x0
 .text          0x00000000        0x0 c:/program files (x86)/microchip/xc32/v1.44/bin/bin/../../lib/gcc/pic32mx/4.8.3/../../../../pic32mx/lib\libpic32.a(vector5.o)

.text%z276      0x00000000        0x0
 .text          0x00000000        0x0 c:/program files (x86)/microchip/xc32/v1.44/bin/bin/../../lib/gcc/pic32mx/4.8.3/../../../../pic32mx/lib\libpic32.a(vector3.o)

.text%z277      0x00000000        0x0
 .text          0x00000000        0x0 c:/program files (x86)/microchip/xc32/v1.44/bin/bin/../../lib/gcc/pic32mx/4.8.3/../../../../pic32mx/lib\libpic32.a(vector2.o)

.text%z278      0x00000000        0x0
 .text          0x00000000        0x0 c:/program files (x86)/microchip/xc32/v1.44/bin/bin/../../lib/gcc/pic32mx/4.8.3/../../../../pic32mx/lib\libpic32.a(vector0.o)

.text%z279      0x00000000        0x0
 .text          0x00000000        0x0 c:/program files (x86)/microchip/xc32/v1.44/bin/bin/../../lib/gcc/pic32mx/4.8.3/../../../../pic32mx/lib\libpic32.a(general-exception.o)

.text%z280      0x00000000        0x0
 .text          0x00000000        0x0 c:/program files (x86)/microchip/xc32/v1.44/bin/bin/../../lib/gcc/pic32mx/4.8.3/../../../../pic32mx/lib\libpic32.a(default-on-bootstrap.o)

.text%z281      0x00000000        0x0
 .text          0x00000000        0x0 c:/program files (x86)/microchip/xc32/v1.44/bin/bin/../../lib/gcc/pic32mx/4.8.3/../../../../pic32mx/lib\libpic32.a(default-on-reset.o)

.text%z282      0x00000000        0x0
 .text          0x00000000        0x0 c:/program files (x86)/microchip/xc32/v1.44/bin/bin/../../lib/gcc/pic32mx/4.8.3/../../../../pic32mx/lib\libpic32.a(default-bootstrap-exception-handler.o)

.text%z283      0x00000000        0x0
 .text          0x00000000        0x0 c:/program files (x86)/microchip/xc32/v1.44/bin/bin/../../lib/gcc/pic32mx/4.8.3/../../../../pic32mx/lib/./proc/32MX795F512L\processor.o

.text%z284      0x00000000        0x0
 .text          0x00000000        0x0 c:/program files (x86)/microchip/xc32/v1.44/bin/bin/../../lib/gcc/pic32mx/4.8.3/../../../../pic32mx/lib/./proc/32MX795F512L\default_isr_vectors.o

.text%z285      0x00000000        0x0
 .text          0x00000000        0x0 build/default/debug/_ext/1128951024/event_groups.o

.text%z286      0x00000000        0x0
 .text          0x00000000        0x0 build/default/debug/_ext/1128951024/timers.o

.text%z287      0x00000000        0x0
 .text          0x00000000        0x0 build/default/debug/_ext/1128951024/tasks.o

.text%z288      0x00000000        0x0
 .text          0x00000000        0x0 build/default/debug/_ext/1128951024/queue.o

.text%z289      0x00000000        0x0
 .text          0x00000000        0x0 build/default/debug/_ext/1128951024/list.o

.text%z290      0x00000000        0x0
 .text          0x00000000        0x0 build/default/debug/_ext/1128951024/croutine.o

.text%z291      0x00000000        0x0
 .text          0x00000000        0x0 build/default/debug/_ext/12131622/port.o

.text%z292      0x00000000        0x0
 .text          0x00000000        0x0 build/default/debug/_ext/1856876499/heap_1.o

.text%z293      0x00000000        0x0
 .text          0x00000000        0x0 build/default/debug/_ext/122796885/sys_int_pic32.o

.text%z294      0x00000000        0x0
 .text          0x00000000        0x0 build/default/debug/_ext/24337685/osal_freertos.o

.text%z295      0x00000000        0x0
 .text          0x00000000        0x0 build/default/debug/_ext/1360937237/statemachine.o

.text%z296      0x00000000        0x0
 .text          0x00000000        0x0 build/default/debug/_ext/1360937237/jsmn.o

.text%z297      0x00000000        0x0
 .text          0x00000000        0x0 build/default/debug/_ext/1360937237/main.o

.text%z298      0x00000000        0x0
 .text          0x00000000        0x0 build/default/debug/_ext/1360937237/Control.o

.text%z299      0x00000000        0x0
 .text          0x00000000        0x0 build/default/debug/_ext/1360937237/motor_encoder_thread.o

.text%z300      0x00000000        0x0
 .text          0x00000000        0x0 build/default/debug/_ext/1360937237/WiFiTransmit.o

.text%z301      0x00000000        0x0
 .text          0x00000000        0x0 build/default/debug/_ext/1360937237/WiFiReceive.o

.text%z302      0x00000000        0x0
 .text          0x00000000        0x0 build/default/debug/_ext/1688732426/rtos_hooks.o

.text%z303      0x00000000        0x0
 .text          0x00000000        0x0 build/default/debug/_ext/1688732426/system_interrupt_a.o

.text%z304      0x00000000        0x0
 .text          0x00000000        0x0 build/default/debug/_ext/1688732426/system_tasks.o

.text%z305      0x00000000        0x0
 .text          0x00000000        0x0 build/default/debug/_ext/1688732426/system_exceptions.o

.text%z306      0x00000000        0x0
 .text          0x00000000        0x0 build/default/debug/_ext/1688732426/system_interrupt.o

.text%z307      0x00000000        0x0
 .text          0x00000000        0x0 build/default/debug/_ext/1688732426/system_init.o

.text%z308      0x00000000        0x0
 .text          0x00000000        0x0 build/default/debug/_ext/822048611/sys_ports_static.o

.text%z309      0x00000000        0x0
 .text          0x00000000        0x0 build/default/debug/_ext/340578644/sys_devcon_pic32mx.o

.text%z310      0x00000000        0x0
 .text          0x00000000        0x0 build/default/debug/_ext/340578644/sys_devcon.o

.text%z311      0x00000000        0x0
 .text          0x00000000        0x0 build/default/debug/_ext/639803181/sys_clk_pic32mx.o

.text%z312      0x00000000        0x0
 .text          0x00000000        0x0 build/default/debug/_ext/327000265/drv_usart_static_byte_model.o

.text%z313      0x00000000        0x0
 .text          0x00000000        0x0 build/default/debug/_ext/327000265/drv_usart_static.o

.text%z314      0x00000000        0x0
 .text          0x00000000        0x0 build/default/debug/_ext/327000265/drv_usart_mapping.o

.text%z315      0x00000000        0x0
 .text          0x00000000        0x0 build/default/debug/_ext/1407244131/drv_tmr_mapping.o

.text%z316      0x00000000        0x0
 .text          0x00000000        0x0 build/default/debug/_ext/1407244131/drv_tmr_static.o

.text%z317      0x00000000        0x0
 .text          0x00000000        0x0 build/default/debug/_ext/1047219354/drv_oc_static.o

.text%z318      0x00000000        0x0
 .text          0x00000000        0x0 build/default/debug/_ext/1047219354/drv_oc_mapping.o

.text%z319      0x00000000        0x0
 .text          0x00000000        0x0 build/default/debug/_ext/1361460060/drv_adc_static.o

.text%z320      0x00000000        0x0
 .text          0x00000000        0x0 c:/program files (x86)/microchip/xc32/v1.44/bin/bin/../../lib/gcc/pic32mx/4.8.3/../../../../pic32mx/lib\software-debug-break.o

.text%z321      0x00000000        0x0
 .text          0x00000000        0x0 c:/program files (x86)/microchip/xc32/v1.44/bin/bin/../../lib/gcc/pic32mx/4.8.3/../../../../pic32mx/lib/./proc/32MX795F512L/crt0_mips32r2.o
